Component: ARM Compiler 5.06 update 6 (build 750) Tool: armlink [4d35ed]

==============================================================================

Section Cross References

    startup_stm32f407xx.o(STACK) refers (Special) to heapauxi.o(.text) for __use_two_region_memory
    startup_stm32f407xx.o(HEAP) refers (Special) to heapauxi.o(.text) for __use_two_region_memory
    startup_stm32f407xx.o(RESET) refers (Special) to heapauxi.o(.text) for __use_two_region_memory
    startup_stm32f407xx.o(RESET) refers to startup_stm32f407xx.o(STACK) for __initial_sp
    startup_stm32f407xx.o(RESET) refers to startup_stm32f407xx.o(.text) for Reset_Handler
    startup_stm32f407xx.o(RESET) refers to stm32f4xx_it.o(i.NMI_Handler) for NMI_Handler
    startup_stm32f407xx.o(RESET) refers to stm32f4xx_it.o(i.HardFault_Handler) for HardFault_Handler
    startup_stm32f407xx.o(RESET) refers to stm32f4xx_it.o(i.MemManage_Handler) for MemManage_Handler
    startup_stm32f407xx.o(RESET) refers to stm32f4xx_it.o(i.BusFault_Handler) for BusFault_Handler
    startup_stm32f407xx.o(RESET) refers to stm32f4xx_it.o(i.UsageFault_Handler) for UsageFault_Handler
    startup_stm32f407xx.o(RESET) refers to stm32f4xx_it.o(i.SVC_Handler) for SVC_Handler
    startup_stm32f407xx.o(RESET) refers to stm32f4xx_it.o(i.DebugMon_Handler) for DebugMon_Handler
    startup_stm32f407xx.o(RESET) refers to stm32f4xx_it.o(i.PendSV_Handler) for PendSV_Handler
    startup_stm32f407xx.o(RESET) refers to stm32f4xx_it.o(i.SysTick_Handler) for SysTick_Handler
    startup_stm32f407xx.o(.text) refers (Special) to heapauxi.o(.text) for __use_two_region_memory
    startup_stm32f407xx.o(.text) refers to system_stm32f4xx.o(i.SystemInit) for SystemInit
    startup_stm32f407xx.o(.text) refers to __main.o(!!!main) for __main
    startup_stm32f407xx.o(.text) refers to startup_stm32f407xx.o(HEAP) for Heap_Mem
    startup_stm32f407xx.o(.text) refers to startup_stm32f407xx.o(STACK) for Stack_Mem
    adafruit_gfx.o(.ARM.exidx) refers to adafruit_gfx.o(.rev16_text) for __asm___16_Adafruit_GFX_cpp_7e22ceb4___ZN38_INTERNAL_16_Adafruit_GFX_cpp_7e22ceb47__REV16Ej
    adafruit_gfx.o(.ARM.exidx) refers to adafruit_gfx.o(.revsh_text) for __asm___16_Adafruit_GFX_cpp_7e22ceb4___ZN38_INTERNAL_16_Adafruit_GFX_cpp_7e22ceb47__REVSHEs
    adafruit_gfx.o(.ARM.exidx) refers to adafruit_gfx.o(.rrx_text) for __asm___16_Adafruit_GFX_cpp_7e22ceb4___ZN38_INTERNAL_16_Adafruit_GFX_cpp_7e22ceb45__RRXEj
    adafruit_gfx.o(i._ZN12Adafruit_GFX10fillCircleEssst) refers to adafruit_gfx.o(i._ZN12Adafruit_GFX16fillCircleHelperEssshst) for Adafruit_GFX::fillCircleHelper(short, short, short, unsigned char, short, unsigned short)
    adafruit_gfx.o(i._ZN12Adafruit_GFX13drawRoundRectEssssst) refers to adafruit_gfx.o(i._ZN12Adafruit_GFX16drawCircleHelperEsssht) for Adafruit_GFX::drawCircleHelper(short, short, short, unsigned char, unsigned short)
    adafruit_gfx.o(i._ZN12Adafruit_GFX13fillRoundRectEssssst) refers to adafruit_gfx.o(i._ZN12Adafruit_GFX16fillCircleHelperEssshst) for Adafruit_GFX::fillCircleHelper(short, short, short, unsigned char, short, unsigned short)
    adafruit_gfx.o(i._ZN12Adafruit_GFX5writeEh) refers to adafruit_gfx.o(i._ZN12Adafruit_GFX8drawCharEsshtth) for Adafruit_GFX::drawChar(short, short, unsigned char, unsigned short, unsigned short, unsigned char)
    adafruit_gfx.o(i._ZN12Adafruit_GFX8drawCharEsshtth) refers to adafruit_gfx.o(.constdata) for .constdata
    adafruit_gfx.o(i._ZN12Adafruit_GFXC2Ess) refers to adafruit_gfx.o(.constdata__ZTV12Adafruit_GFX) for vtable for Adafruit_GFX
    adafruit_gfx.o(.ARM.exidx) refers to adafruit_gfx.o(i._ZN12Adafruit_GFXC2Ess) for i._ZN12Adafruit_GFXC2Ess
    adafruit_gfx.o(.ARM.exidx) refers to adafruit_gfx.o(i._ZN12Adafruit_GFX8drawLineEsssst) for i._ZN12Adafruit_GFX8drawLineEsssst
    adafruit_gfx.o(.ARM.exidx) refers to unwind_pr1.o(.text) for __aeabi_unwind_cpp_pr1
    adafruit_gfx.o(.ARM.exidx) refers to adafruit_gfx.o(.ARM.extab) for .extab._ZN12Adafruit_GFX8drawLineEsssst
    adafruit_gfx.o(.ARM.exidx) refers to adafruit_gfx.o(i._ZN12Adafruit_GFX13drawFastVLineEssst) for i._ZN12Adafruit_GFX13drawFastVLineEssst
    adafruit_gfx.o(.ARM.exidx) refers to unwind_pr0.o(.text) for __aeabi_unwind_cpp_pr0
    adafruit_gfx.o(.ARM.exidx) refers to adafruit_gfx.o(i._ZN12Adafruit_GFX13drawFastHLineEssst) for i._ZN12Adafruit_GFX13drawFastHLineEssst
    adafruit_gfx.o(.ARM.exidx) refers to unwind_pr0.o(.text) for __aeabi_unwind_cpp_pr0
    adafruit_gfx.o(.ARM.exidx) refers to adafruit_gfx.o(i._ZN12Adafruit_GFX8drawRectEsssst) for i._ZN12Adafruit_GFX8drawRectEsssst
    adafruit_gfx.o(.ARM.exidx) refers to unwind_pr0.o(.text) for __aeabi_unwind_cpp_pr0
    adafruit_gfx.o(.ARM.exidx) refers to adafruit_gfx.o(i._ZN12Adafruit_GFX8fillRectEsssst) for i._ZN12Adafruit_GFX8fillRectEsssst
    adafruit_gfx.o(.ARM.exidx) refers to unwind_pr0.o(.text) for __aeabi_unwind_cpp_pr0
    adafruit_gfx.o(.ARM.exidx) refers to adafruit_gfx.o(i._ZN12Adafruit_GFX10fillScreenEt) for i._ZN12Adafruit_GFX10fillScreenEt
    adafruit_gfx.o(.ARM.exidx) refers to unwind_pr0.o(.text) for __aeabi_unwind_cpp_pr0
    adafruit_gfx.o(.ARM.exidx) refers to adafruit_gfx.o(i._ZN12Adafruit_GFX10drawCircleEssst) for i._ZN12Adafruit_GFX10drawCircleEssst
    adafruit_gfx.o(.ARM.exidx) refers to unwind_pr1.o(.text) for __aeabi_unwind_cpp_pr1
    adafruit_gfx.o(.ARM.exidx) refers to adafruit_gfx.o(.ARM.extab) for .extab._ZN12Adafruit_GFX10drawCircleEssst
    adafruit_gfx.o(.ARM.exidx) refers to adafruit_gfx.o(i._ZN12Adafruit_GFX16drawCircleHelperEsssht) for i._ZN12Adafruit_GFX16drawCircleHelperEsssht
    adafruit_gfx.o(.ARM.exidx) refers to unwind_pr1.o(.text) for __aeabi_unwind_cpp_pr1
    adafruit_gfx.o(.ARM.exidx) refers to adafruit_gfx.o(.ARM.extab) for .extab._ZN12Adafruit_GFX16drawCircleHelperEsssht
    adafruit_gfx.o(.ARM.exidx) refers to adafruit_gfx.o(i._ZN12Adafruit_GFX16fillCircleHelperEssshst) for i._ZN12Adafruit_GFX16fillCircleHelperEssshst
    adafruit_gfx.o(.ARM.exidx) refers to unwind_pr0.o(.text) for __aeabi_unwind_cpp_pr0
    adafruit_gfx.o(.ARM.exidx) refers to adafruit_gfx.o(i._ZN12Adafruit_GFX10fillCircleEssst) for i._ZN12Adafruit_GFX10fillCircleEssst
    adafruit_gfx.o(.ARM.exidx) refers to unwind_pr0.o(.text) for __aeabi_unwind_cpp_pr0
    adafruit_gfx.o(.ARM.exidx) refers to adafruit_gfx.o(i._ZN12Adafruit_GFX12drawTriangleEsssssst) for i._ZN12Adafruit_GFX12drawTriangleEsssssst
    adafruit_gfx.o(.ARM.exidx) refers to unwind_pr1.o(.text) for __aeabi_unwind_cpp_pr1
    adafruit_gfx.o(.ARM.exidx) refers to adafruit_gfx.o(.ARM.extab) for .extab._ZN12Adafruit_GFX12drawTriangleEsssssst
    adafruit_gfx.o(.ARM.exidx) refers to adafruit_gfx.o(i._ZN12Adafruit_GFX12fillTriangleEsssssst) for i._ZN12Adafruit_GFX12fillTriangleEsssssst
    adafruit_gfx.o(.ARM.exidx) refers to unwind_pr0.o(.text) for __aeabi_unwind_cpp_pr0
    adafruit_gfx.o(.ARM.exidx) refers to adafruit_gfx.o(i._ZN12Adafruit_GFX13drawRoundRectEssssst) for i._ZN12Adafruit_GFX13drawRoundRectEssssst
    adafruit_gfx.o(.ARM.exidx) refers to unwind_pr0.o(.text) for __aeabi_unwind_cpp_pr0
    adafruit_gfx.o(.ARM.exidx) refers to adafruit_gfx.o(i._ZN12Adafruit_GFX13fillRoundRectEssssst) for i._ZN12Adafruit_GFX13fillRoundRectEssssst
    adafruit_gfx.o(.ARM.exidx) refers to unwind_pr0.o(.text) for __aeabi_unwind_cpp_pr0
    adafruit_gfx.o(.ARM.exidx) refers to adafruit_gfx.o(i._ZN12Adafruit_GFX10drawBitmapEssPKhsst) for i._ZN12Adafruit_GFX10drawBitmapEssPKhsst
    adafruit_gfx.o(.ARM.exidx) refers to unwind_pr1.o(.text) for __aeabi_unwind_cpp_pr1
    adafruit_gfx.o(.ARM.exidx) refers to adafruit_gfx.o(.ARM.extab) for .extab._ZN12Adafruit_GFX10drawBitmapEssPKhsst
    adafruit_gfx.o(.ARM.exidx) refers to adafruit_gfx.o(i._ZN12Adafruit_GFX10drawBitmapEssPKhsstt) for i._ZN12Adafruit_GFX10drawBitmapEssPKhsstt
    adafruit_gfx.o(.ARM.exidx) refers to unwind_pr1.o(.text) for __aeabi_unwind_cpp_pr1
    adafruit_gfx.o(.ARM.exidx) refers to adafruit_gfx.o(.ARM.extab) for .extab._ZN12Adafruit_GFX10drawBitmapEssPKhsstt
    adafruit_gfx.o(.ARM.exidx) refers to adafruit_gfx.o(i._ZN12Adafruit_GFX11drawXBitmapEssPKhsst) for i._ZN12Adafruit_GFX11drawXBitmapEssPKhsst
    adafruit_gfx.o(.ARM.exidx) refers to unwind_pr1.o(.text) for __aeabi_unwind_cpp_pr1
    adafruit_gfx.o(.ARM.exidx) refers to adafruit_gfx.o(.ARM.extab) for .extab._ZN12Adafruit_GFX11drawXBitmapEssPKhsst
    adafruit_gfx.o(.ARM.exidx) refers to adafruit_gfx.o(i._ZN12Adafruit_GFX8drawCharEsshtth) for i._ZN12Adafruit_GFX8drawCharEsshtth
    adafruit_gfx.o(.ARM.exidx) refers to unwind_pr0.o(.text) for __aeabi_unwind_cpp_pr0
    adafruit_gfx.o(.ARM.exidx) refers to adafruit_gfx.o(i._ZN12Adafruit_GFX9setCursorEss) for i._ZN12Adafruit_GFX9setCursorEss
    adafruit_gfx.o(.ARM.exidx) refers to adafruit_gfx.o(i._ZN12Adafruit_GFX12setTextColorEt) for i._ZN12Adafruit_GFX12setTextColorEt
    adafruit_gfx.o(.ARM.exidx) refers to adafruit_gfx.o(i._ZN12Adafruit_GFX12setTextColorEtt) for i._ZN12Adafruit_GFX12setTextColorEtt
    adafruit_gfx.o(.ARM.exidx) refers to adafruit_gfx.o(i._ZN12Adafruit_GFX11setTextSizeEh) for i._ZN12Adafruit_GFX11setTextSizeEh
    adafruit_gfx.o(.ARM.exidx) refers to adafruit_gfx.o(i._ZN12Adafruit_GFX11setTextWrapEb) for i._ZN12Adafruit_GFX11setTextWrapEb
    adafruit_gfx.o(.ARM.exidx) refers to adafruit_gfx.o(i._ZN12Adafruit_GFX11setRotationEh) for i._ZN12Adafruit_GFX11setRotationEh
    adafruit_gfx.o(.ARM.exidx) refers to adafruit_gfx.o(i._ZN12Adafruit_GFX5writeEh) for i._ZN12Adafruit_GFX5writeEh
    adafruit_gfx.o(.ARM.exidx) refers to unwind_pr0.o(.text) for __aeabi_unwind_cpp_pr0
    adafruit_gfx.o(.ARM.exidx) refers to adafruit_gfx.o(i._ZNK12Adafruit_GFX6heightEv) for i._ZNK12Adafruit_GFX6heightEv
    adafruit_gfx.o(.ARM.exidx) refers to adafruit_gfx.o(i._ZNK12Adafruit_GFX5widthEv) for i._ZNK12Adafruit_GFX5widthEv
    adafruit_gfx.o(.ARM.exidx) refers to adafruit_gfx.o(i._ZNK12Adafruit_GFX11getRotationEv) for i._ZNK12Adafruit_GFX11getRotationEv
    adafruit_ssd1306.o(.ARM.exidx) refers to adafruit_ssd1306.o(.rev16_text) for __asm___20_Adafruit_SSD1306_cpp_33ec5c78___ZN42_INTERNAL_20_Adafruit_SSD1306_cpp_33ec5c787__REV16Ej
    adafruit_ssd1306.o(.ARM.exidx) refers to adafruit_ssd1306.o(.revsh_text) for __asm___20_Adafruit_SSD1306_cpp_33ec5c78___ZN42_INTERNAL_20_Adafruit_SSD1306_cpp_33ec5c787__REVSHEs
    adafruit_ssd1306.o(.ARM.exidx) refers to adafruit_ssd1306.o(.rrx_text) for __asm___20_Adafruit_SSD1306_cpp_33ec5c78___ZN42_INTERNAL_20_Adafruit_SSD1306_cpp_33ec5c785__RRXEj
    adafruit_ssd1306.o(i._ZN16Adafruit_SSD130610stopscrollEv) refers to adafruit_ssd1306.o(i._ZN16Adafruit_SSD130615ssd1306_commandEh) for Adafruit_SSD1306::ssd1306_command(unsigned char)
    adafruit_ssd1306.o(i._ZN16Adafruit_SSD130612clearDisplayEv) refers to adafruit_ssd1306.o(i._ZN16Adafruit_SSD13066memsetEPhtt) for Adafruit_SSD1306::memset(unsigned char*, unsigned short, unsigned short)
    adafruit_ssd1306.o(i._ZN16Adafruit_SSD130612ssd1306_dataEt) refers to stm32f4xx_hal_i2c.o(i.HAL_I2C_Master_Transmit) for HAL_I2C_Master_Transmit
    adafruit_ssd1306.o(i._ZN16Adafruit_SSD130612ssd1306_dataEt) refers to adafruit_ssd1306.o(.data) for .data
    adafruit_ssd1306.o(i._ZN16Adafruit_SSD130613drawFastHLineEssst) refers to adafruit_ssd1306.o(.data__ZZN16Adafruit_SSD130621drawFastVLineInternalEssstE7premask) for Adafruit_SSD1306::drawFastVLineInternal(short, short, short, unsigned short)::premask
    adafruit_ssd1306.o(i._ZN16Adafruit_SSD130613drawFastHLineEssst) refers to adafruit_ssd1306.o(.data__ZZN16Adafruit_SSD130621drawFastVLineInternalEssstE8postmask) for Adafruit_SSD1306::drawFastVLineInternal(short, short, short, unsigned short)::postmask
    adafruit_ssd1306.o(i._ZN16Adafruit_SSD130613drawFastVLineEssst) refers to adafruit_ssd1306.o(.data__ZZN16Adafruit_SSD130621drawFastVLineInternalEssstE7premask) for Adafruit_SSD1306::drawFastVLineInternal(short, short, short, unsigned short)::premask
    adafruit_ssd1306.o(i._ZN16Adafruit_SSD130613drawFastVLineEssst) refers to adafruit_ssd1306.o(.data__ZZN16Adafruit_SSD130621drawFastVLineInternalEssstE8postmask) for Adafruit_SSD1306::drawFastVLineInternal(short, short, short, unsigned short)::postmask
    adafruit_ssd1306.o(i._ZN16Adafruit_SSD130613invertDisplayEh) refers to adafruit_ssd1306.o(i._ZN16Adafruit_SSD130615ssd1306_commandEh) for Adafruit_SSD1306::ssd1306_command(unsigned char)
    adafruit_ssd1306.o(i._ZN16Adafruit_SSD130615ssd1306_commandEh) refers to stm32f4xx_hal_i2c.o(i.HAL_I2C_Master_Transmit) for HAL_I2C_Master_Transmit
    adafruit_ssd1306.o(i._ZN16Adafruit_SSD130615ssd1306_commandEh) refers to adafruit_ssd1306.o(.data) for .data
    adafruit_ssd1306.o(i._ZN16Adafruit_SSD130615startscrollleftEhh) refers to adafruit_ssd1306.o(i._ZN16Adafruit_SSD130615ssd1306_commandEh) for Adafruit_SSD1306::ssd1306_command(unsigned char)
    adafruit_ssd1306.o(i._ZN16Adafruit_SSD130616startscrollrightEhh) refers to adafruit_ssd1306.o(i._ZN16Adafruit_SSD130615ssd1306_commandEh) for Adafruit_SSD1306::ssd1306_command(unsigned char)
    adafruit_ssd1306.o(i._ZN16Adafruit_SSD130619startscrolldiagleftEhh) refers to adafruit_ssd1306.o(i._ZN16Adafruit_SSD130615ssd1306_commandEh) for Adafruit_SSD1306::ssd1306_command(unsigned char)
    adafruit_ssd1306.o(i._ZN16Adafruit_SSD130620startscrolldiagrightEhh) refers to adafruit_ssd1306.o(i._ZN16Adafruit_SSD130615ssd1306_commandEh) for Adafruit_SSD1306::ssd1306_command(unsigned char)
    adafruit_ssd1306.o(i._ZN16Adafruit_SSD13063dimEb) refers to adafruit_ssd1306.o(i._ZN16Adafruit_SSD130615ssd1306_commandEh) for Adafruit_SSD1306::ssd1306_command(unsigned char)
    adafruit_ssd1306.o(i._ZN16Adafruit_SSD13065beginEhhb) refers to adafruit_ssd1306.o(i._ZN16Adafruit_SSD130615ssd1306_commandEh) for Adafruit_SSD1306::ssd1306_command(unsigned char)
    adafruit_ssd1306.o(i._ZN16Adafruit_SSD13066printfEPKc) refers to adafruit_ssd1306.o(.constdata) for .constdata
    adafruit_ssd1306.o(i._ZN16Adafruit_SSD13067displayEv) refers to adafruit_ssd1306.o(i._ZN16Adafruit_SSD130615ssd1306_commandEh) for Adafruit_SSD1306::ssd1306_command(unsigned char)
    adafruit_ssd1306.o(i._ZN16Adafruit_SSD13067displayEv) refers to adafruit_ssd1306.o(i._ZN16Adafruit_SSD130612ssd1306_dataEt) for Adafruit_SSD1306::ssd1306_data(unsigned short)
    adafruit_ssd1306.o(i._ZN16Adafruit_SSD13069drawPixelEsst) refers to adafruit_gfx.o(i._ZNK12Adafruit_GFX5widthEv) for Adafruit_GFX::width() const
    adafruit_ssd1306.o(i._ZN16Adafruit_SSD13069drawPixelEsst) refers to adafruit_gfx.o(i._ZNK12Adafruit_GFX6heightEv) for Adafruit_GFX::height() const
    adafruit_ssd1306.o(i._ZN16Adafruit_SSD13069drawPixelEsst) refers to adafruit_gfx.o(i._ZNK12Adafruit_GFX11getRotationEv) for Adafruit_GFX::getRotation() const
    adafruit_ssd1306.o(i._ZN16Adafruit_SSD1306C1EP19__I2C_HandleTypeDefa) refers to adafruit_gfx.o(i._ZN12Adafruit_GFXC2Ess) for Adafruit_GFX::Adafruit_GFX__sub_object(short, short)
    adafruit_ssd1306.o(i._ZN16Adafruit_SSD1306C1EP19__I2C_HandleTypeDefa) refers to adafruit_ssd1306.o(.constdata__ZTV16Adafruit_SSD1306) for vtable for Adafruit_SSD1306
    adafruit_ssd1306.o(i._ZN16Adafruit_SSD1306C1EP19__I2C_HandleTypeDefa) refers to adafruit_ssd1306.o(.data) for .data
    adafruit_ssd1306.o(.ARM.exidx) refers to adafruit_ssd1306.o(i._ZN16Adafruit_SSD1306C1EP19__I2C_HandleTypeDefa) for i._ZN16Adafruit_SSD1306C1EP19__I2C_HandleTypeDefa
    adafruit_ssd1306.o(.ARM.exidx) refers to unwind_pr0.o(.text) for __aeabi_unwind_cpp_pr0
    adafruit_ssd1306.o(.ARM.exidx) refers to adafruit_ssd1306.o(i._ZN16Adafruit_SSD130615ssd1306_commandEh) for i._ZN16Adafruit_SSD130615ssd1306_commandEh
    adafruit_ssd1306.o(.ARM.exidx) refers to unwind_pr0.o(.text) for __aeabi_unwind_cpp_pr0
    adafruit_ssd1306.o(.ARM.exidx) refers to adafruit_ssd1306.o(i._ZN16Adafruit_SSD13065beginEhhb) for i._ZN16Adafruit_SSD13065beginEhhb
    adafruit_ssd1306.o(.ARM.exidx) refers to unwind_pr0.o(.text) for __aeabi_unwind_cpp_pr0
    adafruit_ssd1306.o(.ARM.exidx) refers to adafruit_ssd1306.o(i._ZN16Adafruit_SSD130612ssd1306_dataEt) for i._ZN16Adafruit_SSD130612ssd1306_dataEt
    adafruit_ssd1306.o(.ARM.exidx) refers to unwind_pr0.o(.text) for __aeabi_unwind_cpp_pr0
    adafruit_ssd1306.o(.ARM.exidx) refers to adafruit_ssd1306.o(i._ZN16Adafruit_SSD13066memsetEPhtt) for i._ZN16Adafruit_SSD13066memsetEPhtt
    adafruit_ssd1306.o(.ARM.exidx) refers to adafruit_ssd1306.o(i._ZN16Adafruit_SSD130612clearDisplayEv) for i._ZN16Adafruit_SSD130612clearDisplayEv
    adafruit_ssd1306.o(.ARM.exidx) refers to adafruit_ssd1306.o(i._ZN16Adafruit_SSD130613invertDisplayEh) for i._ZN16Adafruit_SSD130613invertDisplayEh
    adafruit_ssd1306.o(.ARM.exidx) refers to adafruit_ssd1306.o(i._ZN16Adafruit_SSD13067displayEv) for i._ZN16Adafruit_SSD13067displayEv
    adafruit_ssd1306.o(.ARM.exidx) refers to unwind_pr0.o(.text) for __aeabi_unwind_cpp_pr0
    adafruit_ssd1306.o(.ARM.exidx) refers to adafruit_ssd1306.o(i._ZN16Adafruit_SSD130616startscrollrightEhh) for i._ZN16Adafruit_SSD130616startscrollrightEhh
    adafruit_ssd1306.o(.ARM.exidx) refers to unwind_pr0.o(.text) for __aeabi_unwind_cpp_pr0
    adafruit_ssd1306.o(.ARM.exidx) refers to adafruit_ssd1306.o(i._ZN16Adafruit_SSD130615startscrollleftEhh) for i._ZN16Adafruit_SSD130615startscrollleftEhh
    adafruit_ssd1306.o(.ARM.exidx) refers to unwind_pr0.o(.text) for __aeabi_unwind_cpp_pr0
    adafruit_ssd1306.o(.ARM.exidx) refers to adafruit_ssd1306.o(i._ZN16Adafruit_SSD130620startscrolldiagrightEhh) for i._ZN16Adafruit_SSD130620startscrolldiagrightEhh
    adafruit_ssd1306.o(.ARM.exidx) refers to unwind_pr0.o(.text) for __aeabi_unwind_cpp_pr0
    adafruit_ssd1306.o(.ARM.exidx) refers to adafruit_ssd1306.o(i._ZN16Adafruit_SSD130619startscrolldiagleftEhh) for i._ZN16Adafruit_SSD130619startscrolldiagleftEhh
    adafruit_ssd1306.o(.ARM.exidx) refers to unwind_pr0.o(.text) for __aeabi_unwind_cpp_pr0
    adafruit_ssd1306.o(.ARM.exidx) refers to adafruit_ssd1306.o(i._ZN16Adafruit_SSD130610stopscrollEv) for i._ZN16Adafruit_SSD130610stopscrollEv
    adafruit_ssd1306.o(.ARM.exidx) refers to adafruit_ssd1306.o(i._ZN16Adafruit_SSD13063dimEb) for i._ZN16Adafruit_SSD13063dimEb
    adafruit_ssd1306.o(.ARM.exidx) refers to unwind_pr0.o(.text) for __aeabi_unwind_cpp_pr0
    adafruit_ssd1306.o(.ARM.exidx) refers to adafruit_ssd1306.o(i._ZN16Adafruit_SSD13069drawPixelEsst) for i._ZN16Adafruit_SSD13069drawPixelEsst
    adafruit_ssd1306.o(.ARM.exidx) refers to unwind_pr0.o(.text) for __aeabi_unwind_cpp_pr0
    adafruit_ssd1306.o(.ARM.exidx) refers to adafruit_ssd1306.o(i._ZN16Adafruit_SSD130613drawFastVLineEssst) for i._ZN16Adafruit_SSD130613drawFastVLineEssst
    adafruit_ssd1306.o(.ARM.exidx) refers to adafruit_ssd1306.o(i._ZN16Adafruit_SSD130613drawFastHLineEssst) for i._ZN16Adafruit_SSD130613drawFastHLineEssst
    adafruit_ssd1306.o(.ARM.exidx) refers to adafruit_ssd1306.o(i._ZN16Adafruit_SSD13066printfEPKc) for i._ZN16Adafruit_SSD13066printfEPKc
    main.o(.ARM.exidx) refers to main.o(.rev16_text) for __asm___8_main_cpp_6a9831bd___ZN29_INTERNAL_8_main_cpp_6a9831bd7__REV16Ej
    main.o(.ARM.exidx) refers to main.o(.revsh_text) for __asm___8_main_cpp_6a9831bd___ZN29_INTERNAL_8_main_cpp_6a9831bd7__REVSHEs
    main.o(.ARM.exidx) refers to main.o(.rrx_text) for __asm___8_main_cpp_6a9831bd___ZN29_INTERNAL_8_main_cpp_6a9831bd5__RRXEj
    main.o(i._Z18SystemClock_Configv) refers to rt_memclr_w.o(.text) for __aeabi_memclr4
    main.o(i._Z18SystemClock_Configv) refers to stm32f4xx_hal_rcc.o(i.HAL_RCC_OscConfig) for HAL_RCC_OscConfig
    main.o(i._Z18SystemClock_Configv) refers to stm32f4xx_hal_rcc.o(i.HAL_RCC_ClockConfig) for HAL_RCC_ClockConfig
    main.o(i._ZN29_INTERNAL_8_main_cpp_6a9831bd12MX_GPIO_InitEv) refers to rt_memclr_w.o(.text) for __aeabi_memclr4
    main.o(i._ZN29_INTERNAL_8_main_cpp_6a9831bd12MX_GPIO_InitEv) refers to stm32f4xx_hal_gpio.o(i.HAL_GPIO_WritePin) for HAL_GPIO_WritePin
    main.o(i._ZN29_INTERNAL_8_main_cpp_6a9831bd12MX_GPIO_InitEv) refers to stm32f4xx_hal_gpio.o(i.HAL_GPIO_Init) for HAL_GPIO_Init
    main.o(i.__sti___8_main_cpp_6a9831bd) refers to double_screen.o(i._ZN13Double_screenC1Ev) for Double_screen::Double_screen()
    main.o(i.__sti___8_main_cpp_6a9831bd) refers to main.o(.bss) for .bss
    main.o(i.main) refers to stm32f4xx_hal.o(i.HAL_Init) for HAL_Init
    main.o(i.main) refers to main.o(i._Z18SystemClock_Configv) for SystemClock_Config()
    main.o(i.main) refers to main.o(i._ZN29_INTERNAL_8_main_cpp_6a9831bd12MX_GPIO_InitEv) for [local to main_cpp]::MX_GPIO_Init()
    main.o(i.main) refers to stm32f4xx_hal_i2c.o(i.HAL_I2C_Init) for HAL_I2C_Init
    main.o(i.main) refers to snake_game.o(i._ZN10Snake_gameC1Essss) for Snake_game::Snake_game(short, short, short, short)
    main.o(i.main) refers to snake_game.o(i._ZN10Snake_game7getElemEv) for Snake_game::getElem()
    main.o(i.main) refers to stm32f4xx_hal_gpio.o(i.HAL_GPIO_WritePin) for HAL_GPIO_WritePin
    main.o(i.main) refers to snake_game.o(i._ZN10Snake_game16drawCurrentSnakeEv) for Snake_game::drawCurrentSnake()
    main.o(i.main) refers to stm32f4xx_hal_gpio.o(i.HAL_GPIO_TogglePin) for HAL_GPIO_TogglePin
    main.o(i.main) refers to stm32f4xx_hal.o(i.HAL_Delay) for HAL_Delay
    main.o(i.main) refers to main.o(.bss) for .bss
    main.o(i.main.clean) refers to main.o(i._ZN10Snake_gameD1Ev) for Snake_game::~Snake_game()
    main.o(i.main.clean) refers to arm_exceptions_cleanup.o(.emb_text) for __cxa_end_cleanup
    main.o(.ARM.exidx) refers to main.o(i.Error_Handler) for i.Error_Handler
    main.o(.ARM.exidx) refers to main.o(i._Z18SystemClock_Configv) for i._Z18SystemClock_Configv
    main.o(.ARM.exidx) refers to unwind_pr0.o(.text) for __aeabi_unwind_cpp_pr0
    main.o(.ARM.exidx) refers to main.o(i.main) for i.main
    main.o(.ARM.exidx) refers to unwind_pr0.o(.text) for __aeabi_unwind_cpp_pr0
    main.o(.ARM.exidx) refers to main.o(.ARM.extab) for .extab.main
    main.o(.ARM.exidx) refers to main.o(i.main.clean) for i.main.clean
    main.o(.ARM.exidx) refers to main.o(i.__sti___8_main_cpp_6a9831bd) for i.__sti___8_main_cpp_6a9831bd
    main.o(.ARM.exidx) refers to main.o(i._ZN29_INTERNAL_8_main_cpp_6a9831bd12MX_GPIO_InitEv) for i._ZN29_INTERNAL_8_main_cpp_6a9831bd12MX_GPIO_InitEv
    main.o(.ARM.exidx) refers to unwind_pr0.o(.text) for __aeabi_unwind_cpp_pr0
    main.o(.ARM.extab) refers to main.o(i.main.clean) for i.main.clean
    main.o(.init_array) refers to main.o(i.__sti___8_main_cpp_6a9831bd) for __sti___8_main_cpp_6a9831bd
    main.o(.init_array) refers to init_aeabi.o(.text) for __cpp_initialize__aeabi_
    stm32f4xx_it.o(.ARM.exidx) refers to stm32f4xx_it.o(.rev16_text) for __asm___14_stm32f4xx_it_c_bb8ca80c___ZN36_INTERNAL_14_stm32f4xx_it_c_bb8ca80c7__REV16Ej
    stm32f4xx_it.o(.ARM.exidx) refers to stm32f4xx_it.o(.revsh_text) for __asm___14_stm32f4xx_it_c_bb8ca80c___ZN36_INTERNAL_14_stm32f4xx_it_c_bb8ca80c7__REVSHEs
    stm32f4xx_it.o(.ARM.exidx) refers to stm32f4xx_it.o(.rrx_text) for __asm___14_stm32f4xx_it_c_bb8ca80c___ZN36_INTERNAL_14_stm32f4xx_it_c_bb8ca80c5__RRXEj
    stm32f4xx_it.o(i.SysTick_Handler) refers to stm32f4xx_hal.o(i.HAL_IncTick) for HAL_IncTick
    stm32f4xx_it.o(.ARM.exidx) refers to stm32f4xx_it.o(i.NMI_Handler) for i.NMI_Handler
    stm32f4xx_it.o(.ARM.exidx) refers to stm32f4xx_it.o(i.HardFault_Handler) for i.HardFault_Handler
    stm32f4xx_it.o(.ARM.exidx) refers to stm32f4xx_it.o(i.MemManage_Handler) for i.MemManage_Handler
    stm32f4xx_it.o(.ARM.exidx) refers to stm32f4xx_it.o(i.BusFault_Handler) for i.BusFault_Handler
    stm32f4xx_it.o(.ARM.exidx) refers to stm32f4xx_it.o(i.UsageFault_Handler) for i.UsageFault_Handler
    stm32f4xx_it.o(.ARM.exidx) refers to stm32f4xx_it.o(i.SVC_Handler) for i.SVC_Handler
    stm32f4xx_it.o(.ARM.exidx) refers to stm32f4xx_it.o(i.DebugMon_Handler) for i.DebugMon_Handler
    stm32f4xx_it.o(.ARM.exidx) refers to stm32f4xx_it.o(i.PendSV_Handler) for i.PendSV_Handler
    stm32f4xx_it.o(.ARM.exidx) refers to stm32f4xx_it.o(i.SysTick_Handler) for i.SysTick_Handler
    stm32f4xx_hal_msp.o(.ARM.exidx) refers to stm32f4xx_hal_msp.o(.rev16_text) for __asm___19_stm32f4xx_hal_msp_c_d46e2bee___ZN41_INTERNAL_19_stm32f4xx_hal_msp_c_d46e2bee7__REV16Ej
    stm32f4xx_hal_msp.o(.ARM.exidx) refers to stm32f4xx_hal_msp.o(.revsh_text) for __asm___19_stm32f4xx_hal_msp_c_d46e2bee___ZN41_INTERNAL_19_stm32f4xx_hal_msp_c_d46e2bee7__REVSHEs
    stm32f4xx_hal_msp.o(.ARM.exidx) refers to stm32f4xx_hal_msp.o(.rrx_text) for __asm___19_stm32f4xx_hal_msp_c_d46e2bee___ZN41_INTERNAL_19_stm32f4xx_hal_msp_c_d46e2bee5__RRXEj
    stm32f4xx_hal_msp.o(i.HAL_I2C_MspDeInit) refers to stm32f4xx_hal_gpio.o(i.HAL_GPIO_DeInit) for HAL_GPIO_DeInit
    stm32f4xx_hal_msp.o(i.HAL_I2C_MspInit) refers to rt_memclr_w.o(.text) for __aeabi_memclr4
    stm32f4xx_hal_msp.o(i.HAL_I2C_MspInit) refers to stm32f4xx_hal_gpio.o(i.HAL_GPIO_Init) for HAL_GPIO_Init
    stm32f4xx_hal_msp.o(.ARM.exidx) refers to stm32f4xx_hal_msp.o(i.HAL_MspInit) for i.HAL_MspInit
    stm32f4xx_hal_msp.o(.ARM.exidx) refers to stm32f4xx_hal_msp.o(i.HAL_I2C_MspInit) for i.HAL_I2C_MspInit
    stm32f4xx_hal_msp.o(.ARM.exidx) refers to unwind_pr0.o(.text) for __aeabi_unwind_cpp_pr0
    stm32f4xx_hal_msp.o(.ARM.exidx) refers to stm32f4xx_hal_msp.o(i.HAL_I2C_MspDeInit) for i.HAL_I2C_MspDeInit
    double_screen.o(.ARM.exidx) refers to double_screen.o(.rev16_text) for __asm___17_Double_screen_cpp_lcd_top___ZN38_INTERNAL_17_Double_screen_cpp_lcd_top7__REV16Ej
    double_screen.o(.ARM.exidx) refers to double_screen.o(.revsh_text) for __asm___17_Double_screen_cpp_lcd_top___ZN38_INTERNAL_17_Double_screen_cpp_lcd_top7__REVSHEs
    double_screen.o(.ARM.exidx) refers to double_screen.o(.rrx_text) for __asm___17_Double_screen_cpp_lcd_top___ZN38_INTERNAL_17_Double_screen_cpp_lcd_top5__RRXEj
    double_screen.o(i._ZN13Double_screen11printBottomEPKc) refers to adafruit_ssd1306.o(i._ZN16Adafruit_SSD13066printfEPKc) for Adafruit_SSD1306::printf(const char*)
    double_screen.o(i._ZN13Double_screen11printBottomEPKc) refers to double_screen.o(.bss) for .bss
    double_screen.o(i._ZN13Double_screen11setTextSizeEh) refers to adafruit_gfx.o(i._ZN12Adafruit_GFX11setTextSizeEh) for Adafruit_GFX::setTextSize(unsigned char)
    double_screen.o(i._ZN13Double_screen11setTextSizeEh) refers to double_screen.o(.bss) for .bss
    double_screen.o(i._ZN13Double_screen12clearDisplayEv) refers to adafruit_ssd1306.o(i._ZN16Adafruit_SSD130612clearDisplayEv) for Adafruit_SSD1306::clearDisplay()
    double_screen.o(i._ZN13Double_screen12clearDisplayEv) refers to double_screen.o(.bss) for .bss
    double_screen.o(i._ZN13Double_screen12setTextColorEt) refers to adafruit_gfx.o(i._ZN12Adafruit_GFX12setTextColorEt) for Adafruit_GFX::setTextColor(unsigned short)
    double_screen.o(i._ZN13Double_screen12setTextColorEt) refers to double_screen.o(.bss) for .bss
    double_screen.o(i._ZN13Double_screen12setTextColorEtt) refers to adafruit_gfx.o(i._ZN12Adafruit_GFX12setTextColorEtt) for Adafruit_GFX::setTextColor(unsigned short, unsigned short)
    double_screen.o(i._ZN13Double_screen12setTextColorEtt) refers to double_screen.o(.bss) for .bss
    double_screen.o(i._ZN13Double_screen5beginEhhb) refers to adafruit_ssd1306.o(i._ZN16Adafruit_SSD13065beginEhhb) for Adafruit_SSD1306::begin(unsigned char, unsigned char, bool)
    double_screen.o(i._ZN13Double_screen5beginEhhb) refers to double_screen.o(.bss) for .bss
    double_screen.o(i._ZN13Double_screen7displayEv) refers to adafruit_ssd1306.o(i._ZN16Adafruit_SSD13067displayEv) for Adafruit_SSD1306::display()
    double_screen.o(i._ZN13Double_screen7displayEv) refers to double_screen.o(.bss) for .bss
    double_screen.o(i._ZN13Double_screen8drawLineEsssst) refers to adafruit_gfx.o(i._ZN12Adafruit_GFX8drawLineEsssst) for Adafruit_GFX::drawLine(short, short, short, short, unsigned short)
    double_screen.o(i._ZN13Double_screen8drawLineEsssst) refers to double_screen.o(.bss) for .bss
    double_screen.o(i._ZN13Double_screen8printTopEPKc) refers to adafruit_ssd1306.o(i._ZN16Adafruit_SSD13066printfEPKc) for Adafruit_SSD1306::printf(const char*)
    double_screen.o(i._ZN13Double_screen8printTopEPKc) refers to double_screen.o(.bss) for .bss
    double_screen.o(i._ZN13Double_screen9drawPixelEsst) refers to adafruit_ssd1306.o(i._ZN16Adafruit_SSD13069drawPixelEsst) for Adafruit_SSD1306::drawPixel(short, short, unsigned short)
    double_screen.o(i._ZN13Double_screen9drawPixelEsst) refers to double_screen.o(.bss) for .bss
    double_screen.o(i._ZN13Double_screen9setCursorEss) refers to adafruit_gfx.o(i._ZN12Adafruit_GFX9setCursorEss) for Adafruit_GFX::setCursor(short, short)
    double_screen.o(i._ZN13Double_screen9setCursorEss) refers to double_screen.o(.bss) for .bss
    double_screen.o(i.__sti___17_Double_screen_cpp_lcd_top) refers to adafruit_ssd1306.o(i._ZN16Adafruit_SSD1306C1EP19__I2C_HandleTypeDefa) for Adafruit_SSD1306::Adafruit_SSD1306(__I2C_HandleTypeDef*, signed char)
    double_screen.o(i.__sti___17_Double_screen_cpp_lcd_top) refers to main.o(.bss) for hi2c1
    double_screen.o(i.__sti___17_Double_screen_cpp_lcd_top) refers to double_screen.o(.bss) for .bss
    double_screen.o(.ARM.exidx) refers to double_screen.o(i._ZN13Double_screenC1Ev) for i._ZN13Double_screenC1Ev
    double_screen.o(.ARM.exidx) refers to double_screen.o(i._ZN13Double_screen9drawPixelEsst) for i._ZN13Double_screen9drawPixelEsst
    double_screen.o(.ARM.exidx) refers to double_screen.o(i._ZN13Double_screen8drawLineEsssst) for i._ZN13Double_screen8drawLineEsssst
    double_screen.o(.ARM.exidx) refers to unwind_pr0.o(.text) for __aeabi_unwind_cpp_pr0
    double_screen.o(.ARM.exidx) refers to double_screen.o(i._ZN13Double_screen13drawFastVLineEssst) for i._ZN13Double_screen13drawFastVLineEssst
    double_screen.o(.ARM.exidx) refers to double_screen.o(i._ZN13Double_screen13drawFastHLineEssst) for i._ZN13Double_screen13drawFastHLineEssst
    double_screen.o(.ARM.exidx) refers to double_screen.o(i._ZN13Double_screen8drawRectEsssst) for i._ZN13Double_screen8drawRectEsssst
    double_screen.o(.ARM.exidx) refers to double_screen.o(i._ZN13Double_screen8fillRectEsssst) for i._ZN13Double_screen8fillRectEsssst
    double_screen.o(.ARM.exidx) refers to double_screen.o(i._ZN13Double_screen10fillScreenEt) for i._ZN13Double_screen10fillScreenEt
    double_screen.o(.ARM.exidx) refers to double_screen.o(i._ZN13Double_screen10drawCircleEssst) for i._ZN13Double_screen10drawCircleEssst
    double_screen.o(.ARM.exidx) refers to double_screen.o(i._ZN13Double_screen16drawCircleHelperEsssht) for i._ZN13Double_screen16drawCircleHelperEsssht
    double_screen.o(.ARM.exidx) refers to double_screen.o(i._ZN13Double_screen10fillCircleEssst) for i._ZN13Double_screen10fillCircleEssst
    double_screen.o(.ARM.exidx) refers to double_screen.o(i._ZN13Double_screen16fillCircleHelperEssshst) for i._ZN13Double_screen16fillCircleHelperEssshst
    double_screen.o(.ARM.exidx) refers to double_screen.o(i._ZN13Double_screen12drawTriangleEsssssst) for i._ZN13Double_screen12drawTriangleEsssssst
    double_screen.o(.ARM.exidx) refers to double_screen.o(i._ZN13Double_screen12fillTriangleEsssssst) for i._ZN13Double_screen12fillTriangleEsssssst
    double_screen.o(.ARM.exidx) refers to double_screen.o(i._ZN13Double_screen13drawRoundRectEssssst) for i._ZN13Double_screen13drawRoundRectEssssst
    double_screen.o(.ARM.exidx) refers to double_screen.o(i._ZN13Double_screen13fillRoundRectEssssst) for i._ZN13Double_screen13fillRoundRectEssssst
    double_screen.o(.ARM.exidx) refers to double_screen.o(i._ZN13Double_screen10drawBitmapEssPKhsst) for i._ZN13Double_screen10drawBitmapEssPKhsst
    double_screen.o(.ARM.exidx) refers to double_screen.o(i._ZN13Double_screen10drawBitmapEssPKhsstt) for i._ZN13Double_screen10drawBitmapEssPKhsstt
    double_screen.o(.ARM.exidx) refers to double_screen.o(i._ZN13Double_screen11drawXBitmapEssPKhsst) for i._ZN13Double_screen11drawXBitmapEssPKhsst
    double_screen.o(.ARM.exidx) refers to double_screen.o(i._ZN13Double_screen8drawCharEsshtth) for i._ZN13Double_screen8drawCharEsshtth
    double_screen.o(.ARM.exidx) refers to double_screen.o(i._ZN13Double_screen9setCursorEss) for i._ZN13Double_screen9setCursorEss
    double_screen.o(.ARM.exidx) refers to unwind_pr0.o(.text) for __aeabi_unwind_cpp_pr0
    double_screen.o(.ARM.exidx) refers to double_screen.o(i._ZN13Double_screen12setTextColorEt) for i._ZN13Double_screen12setTextColorEt
    double_screen.o(.ARM.exidx) refers to unwind_pr0.o(.text) for __aeabi_unwind_cpp_pr0
    double_screen.o(.ARM.exidx) refers to double_screen.o(i._ZN13Double_screen12setTextColorEtt) for i._ZN13Double_screen12setTextColorEtt
    double_screen.o(.ARM.exidx) refers to unwind_pr0.o(.text) for __aeabi_unwind_cpp_pr0
    double_screen.o(.ARM.exidx) refers to double_screen.o(i._ZN13Double_screen11setTextSizeEh) for i._ZN13Double_screen11setTextSizeEh
    double_screen.o(.ARM.exidx) refers to unwind_pr0.o(.text) for __aeabi_unwind_cpp_pr0
    double_screen.o(.ARM.exidx) refers to double_screen.o(i._ZN13Double_screen11setTextWrapEb) for i._ZN13Double_screen11setTextWrapEb
    double_screen.o(.ARM.exidx) refers to double_screen.o(i._ZN13Double_screen11setRotationEh) for i._ZN13Double_screen11setRotationEh
    double_screen.o(.ARM.exidx) refers to double_screen.o(i._ZN13Double_screen5writeEh) for i._ZN13Double_screen5writeEh
    double_screen.o(.ARM.exidx) refers to double_screen.o(i._ZNK13Double_screen6heightEv) for i._ZNK13Double_screen6heightEv
    double_screen.o(.ARM.exidx) refers to double_screen.o(i._ZNK13Double_screen5widthEv) for i._ZNK13Double_screen5widthEv
    double_screen.o(.ARM.exidx) refers to double_screen.o(i._ZNK13Double_screen11getRotationEv) for i._ZNK13Double_screen11getRotationEv
    double_screen.o(.ARM.exidx) refers to double_screen.o(i._ZN13Double_screen5beginEhhb) for i._ZN13Double_screen5beginEhhb
    double_screen.o(.ARM.exidx) refers to unwind_pr0.o(.text) for __aeabi_unwind_cpp_pr0
    double_screen.o(.ARM.exidx) refers to double_screen.o(i._ZN13Double_screen12clearDisplayEv) for i._ZN13Double_screen12clearDisplayEv
    double_screen.o(.ARM.exidx) refers to unwind_pr0.o(.text) for __aeabi_unwind_cpp_pr0
    double_screen.o(.ARM.exidx) refers to double_screen.o(i._ZN13Double_screen13invertDisplayEh) for i._ZN13Double_screen13invertDisplayEh
    double_screen.o(.ARM.exidx) refers to double_screen.o(i._ZN13Double_screen7displayEv) for i._ZN13Double_screen7displayEv
    double_screen.o(.ARM.exidx) refers to unwind_pr0.o(.text) for __aeabi_unwind_cpp_pr0
    double_screen.o(.ARM.exidx) refers to double_screen.o(i._ZN13Double_screen16startscrollrightEhh) for i._ZN13Double_screen16startscrollrightEhh
    double_screen.o(.ARM.exidx) refers to double_screen.o(i._ZN13Double_screen15startscrollleftEhh) for i._ZN13Double_screen15startscrollleftEhh
    double_screen.o(.ARM.exidx) refers to double_screen.o(i._ZN13Double_screen20startscrolldiagrightEhh) for i._ZN13Double_screen20startscrolldiagrightEhh
    double_screen.o(.ARM.exidx) refers to double_screen.o(i._ZN13Double_screen19startscrolldiagleftEhh) for i._ZN13Double_screen19startscrolldiagleftEhh
    double_screen.o(.ARM.exidx) refers to double_screen.o(i._ZN13Double_screen10stopscrollEv) for i._ZN13Double_screen10stopscrollEv
    double_screen.o(.ARM.exidx) refers to double_screen.o(i._ZN13Double_screen3dimEb) for i._ZN13Double_screen3dimEb
    double_screen.o(.ARM.exidx) refers to double_screen.o(i._ZN13Double_screen8printTopEPKc) for i._ZN13Double_screen8printTopEPKc
    double_screen.o(.ARM.exidx) refers to double_screen.o(i._ZN13Double_screen11printBottomEPKc) for i._ZN13Double_screen11printBottomEPKc
    double_screen.o(.ARM.exidx) refers to double_screen.o(i._ZN13Double_screen12fastSPIwriteEh) for i._ZN13Double_screen12fastSPIwriteEh
    double_screen.o(.ARM.exidx) refers to double_screen.o(i._ZN13Double_screen6memsetEPhtt) for i._ZN13Double_screen6memsetEPhtt
    double_screen.o(.ARM.exidx) refers to double_screen.o(i.__sti___17_Double_screen_cpp_lcd_top) for i.__sti___17_Double_screen_cpp_lcd_top
    double_screen.o(.ARM.exidx) refers to unwind_pr0.o(.text) for __aeabi_unwind_cpp_pr0
    double_screen.o(.init_array) refers to double_screen.o(i.__sti___17_Double_screen_cpp_lcd_top) for __sti___17_Double_screen_cpp_lcd_top
    double_screen.o(.init_array) refers to init_aeabi.o(.text) for __cpp_initialize__aeabi_
    snake_game.o(.ARM.exidx) refers to snake_game.o(.rev16_text) for __asm___14_Snake_game_cpp_0bbd9435___ZN36_INTERNAL_14_Snake_game_cpp_0bbd94357__REV16Ej
    snake_game.o(.ARM.exidx) refers to snake_game.o(.revsh_text) for __asm___14_Snake_game_cpp_0bbd9435___ZN36_INTERNAL_14_Snake_game_cpp_0bbd94357__REVSHEs
    snake_game.o(.ARM.exidx) refers to snake_game.o(.rrx_text) for __asm___14_Snake_game_cpp_0bbd9435___ZN36_INTERNAL_14_Snake_game_cpp_0bbd94355__RRXEj
    snake_game.o(i._ZN10Snake_game10addNewHeadEii) refers to snake_game.o(t._ZN6VectorIiEC1Ev) for Vector<int>::Vector()
    snake_game.o(i._ZN10Snake_game10addNewHeadEii) refers to snake_game.o(t._ZN6VectorIiE9push_backERKi) for Vector<int>::push_back(const int&)
    snake_game.o(i._ZN10Snake_game10addNewHeadEii) refers to snake_game.o(t._ZN6VectorIS_IiEE7reserveEi) for Vector<Vector<int>>::reserve(int)
    snake_game.o(i._ZN10Snake_game10addNewHeadEii) refers to snake_game.o(t._ZN6VectorIiEaSERKS0_) for Vector<int>::operator =(const Vector<int>&)
    snake_game.o(i._ZN10Snake_game10addNewHeadEii) refers to main.o(t._ZN6VectorIiED1Ev) for Vector<int>::~Vector()
    snake_game.o(i._ZN10Snake_game10addNewHeadEii.clean) refers to main.o(t._ZN6VectorIiED1Ev) for Vector<int>::~Vector()
    snake_game.o(i._ZN10Snake_game10addNewHeadEii.clean) refers to arm_exceptions_cleanup.o(.emb_text) for __cxa_end_cleanup
    snake_game.o(i._ZN10Snake_game16drawCurrentSnakeEv) refers to double_screen.o(i._ZN13Double_screen12clearDisplayEv) for Double_screen::clearDisplay()
    snake_game.o(i._ZN10Snake_game16drawCurrentSnakeEv) refers to snake_game.o(t._ZN6VectorIS_IiEE2atEi) for Vector<Vector<int>>::at(int)
    snake_game.o(i._ZN10Snake_game16drawCurrentSnakeEv) refers to snake_game.o(t._ZN6VectorIiE4backEv) for Vector<int>::back()
    snake_game.o(i._ZN10Snake_game16drawCurrentSnakeEv) refers to double_screen.o(i._ZN13Double_screen8drawLineEsssst) for Double_screen::drawLine(short, short, short, short, unsigned short)
    snake_game.o(i._ZN10Snake_game16drawCurrentSnakeEv) refers to double_screen.o(i._ZN13Double_screen7displayEv) for Double_screen::display()
    snake_game.o(i._ZN10Snake_game16drawCurrentSnakeEv) refers to stm32f4xx_hal.o(i.HAL_Delay) for HAL_Delay
    snake_game.o(i._ZN10Snake_game16initializeScreenEv) refers to double_screen.o(i._ZN13Double_screen5beginEhhb) for Double_screen::begin(unsigned char, unsigned char, bool)
    snake_game.o(i._ZN10Snake_game16initializeScreenEv) refers to double_screen.o(i._ZN13Double_screen7displayEv) for Double_screen::display()
    snake_game.o(i._ZN10Snake_game16initializeScreenEv) refers to stm32f4xx_hal.o(i.HAL_Delay) for HAL_Delay
    snake_game.o(i._ZN10Snake_game7getElemEv) refers to snake_game.o(t._ZN6VectorIS_IiEE2atEi) for Vector<Vector<int>>::at(int)
    snake_game.o(i._ZN10Snake_game7getElemEv) refers to snake_game.o(t._ZN6VectorIiE4backEv) for Vector<int>::back()
    snake_game.o(i._ZN10Snake_gameC1Essss) refers to double_screen.o(i._ZN13Double_screenC1Ev) for Double_screen::Double_screen()
    snake_game.o(i._ZN10Snake_gameC1Essss) refers to snake_game.o(i._ZN10Snake_game16initializeScreenEv) for Snake_game::initializeScreen()
    snake_game.o(i._ZN10Snake_gameC1Essss) refers to snake_game.o(i._ZN10Snake_game10addNewHeadEii) for Snake_game::addNewHead(int, int)
    snake_game.o(i._ZN10Snake_gameC1Essss.clean) refers to main.o(t._ZN6VectorIS_IiEED1Ev) for Vector<Vector<int>>::~Vector()
    snake_game.o(i._ZN10Snake_gameC1Essss.clean) refers to arm_exceptions_cleanup.o(.emb_text) for __cxa_end_cleanup
    snake_game.o(.ARM.exidx) refers to snake_game.o(i._ZN10Snake_game10addNewHeadEii) for i._ZN10Snake_game10addNewHeadEii
    snake_game.o(.ARM.exidx) refers to unwind_pr0.o(.text) for __aeabi_unwind_cpp_pr0
    snake_game.o(.ARM.exidx) refers to snake_game.o(.ARM.extab) for .extab._ZN10Snake_game10addNewHeadEii
    snake_game.o(.ARM.exidx) refers to snake_game.o(i._ZN10Snake_game10addNewHeadEii.clean) for i._ZN10Snake_game10addNewHeadEii.clean
    snake_game.o(.ARM.exidx) refers to snake_game.o(i._ZN10Snake_game16initializeScreenEv) for i._ZN10Snake_game16initializeScreenEv
    snake_game.o(.ARM.exidx) refers to unwind_pr0.o(.text) for __aeabi_unwind_cpp_pr0
    snake_game.o(.ARM.exidx) refers to snake_game.o(i._ZN10Snake_gameC1Essss) for i._ZN10Snake_gameC1Essss
    snake_game.o(.ARM.exidx) refers to unwind_pr0.o(.text) for __aeabi_unwind_cpp_pr0
    snake_game.o(.ARM.exidx) refers to snake_game.o(.ARM.extab) for .extab._ZN10Snake_gameC1Essss
    snake_game.o(.ARM.exidx) refers to snake_game.o(i._ZN10Snake_gameC1Essss.clean) for i._ZN10Snake_gameC1Essss.clean
    snake_game.o(.ARM.exidx) refers to snake_game.o(i._ZN10Snake_game5rightEv) for i._ZN10Snake_game5rightEv
    snake_game.o(.ARM.exidx) refers to snake_game.o(i._ZN10Snake_game4leftEv) for i._ZN10Snake_game4leftEv
    snake_game.o(.ARM.exidx) refers to snake_game.o(i._ZN10Snake_game2upEv) for i._ZN10Snake_game2upEv
    snake_game.o(.ARM.exidx) refers to snake_game.o(i._ZN10Snake_game4downEv) for i._ZN10Snake_game4downEv
    snake_game.o(.ARM.exidx) refers to snake_game.o(i._ZN10Snake_game7getSizeEv) for i._ZN10Snake_game7getSizeEv
    snake_game.o(.ARM.exidx) refers to snake_game.o(i._ZN10Snake_game7getElemEv) for i._ZN10Snake_game7getElemEv
    snake_game.o(.ARM.exidx) refers to unwind_pr0.o(.text) for __aeabi_unwind_cpp_pr0
    snake_game.o(.ARM.exidx) refers to snake_game.o(i._ZN10Snake_game7popTailEv) for i._ZN10Snake_game7popTailEv
    snake_game.o(.ARM.exidx) refers to snake_game.o(i._ZN10Snake_game16drawCurrentSnakeEv) for i._ZN10Snake_game16drawCurrentSnakeEv
    snake_game.o(.ARM.exidx) refers to unwind_pr0.o(.text) for __aeabi_unwind_cpp_pr0
    snake_game.o(.ARM.extab) refers to snake_game.o(i._ZN10Snake_game10addNewHeadEii.clean) for i._ZN10Snake_game10addNewHeadEii.clean
    snake_game.o(.ARM.extab) refers to snake_game.o(i._ZN10Snake_gameC1Essss.clean) for i._ZN10Snake_gameC1Essss.clean
    stm32f4xx_hal_i2c.o(.ARM.exidx) refers to stm32f4xx_hal_i2c.o(.rev16_text) for __asm___19_stm32f4xx_hal_i2c_c_0eb271f4___ZN41_INTERNAL_19_stm32f4xx_hal_i2c_c_0eb271f47__REV16Ej
    stm32f4xx_hal_i2c.o(.ARM.exidx) refers to stm32f4xx_hal_i2c.o(.revsh_text) for __asm___19_stm32f4xx_hal_i2c_c_0eb271f4___ZN41_INTERNAL_19_stm32f4xx_hal_i2c_c_0eb271f47__REVSHEs
    stm32f4xx_hal_i2c.o(.ARM.exidx) refers to stm32f4xx_hal_i2c.o(.rrx_text) for __asm___19_stm32f4xx_hal_i2c_c_0eb271f4___ZN41_INTERNAL_19_stm32f4xx_hal_i2c_c_0eb271f45__RRXEj
    stm32f4xx_hal_i2c.o(i.HAL_I2C_DeInit) refers to stm32f4xx_hal_msp.o(i.HAL_I2C_MspDeInit) for HAL_I2C_MspDeInit
    stm32f4xx_hal_i2c.o(i.HAL_I2C_ER_IRQHandler) refers to stm32f4xx_hal_i2c.o(i._ZN41_INTERNAL_19_stm32f4xx_hal_i2c_c_0eb271f412I2C_Slave_AFEP19__I2C_HandleTypeDef) for [local to stm32f4xx_hal_i2c_c]::I2C_Slave_AF(__I2C_HandleTypeDef*)
    stm32f4xx_hal_i2c.o(i.HAL_I2C_ER_IRQHandler) refers to stm32f4xx_hal_i2c.o(i._ZN41_INTERNAL_19_stm32f4xx_hal_i2c_c_0eb271f411I2C_ITErrorEP19__I2C_HandleTypeDef) for [local to stm32f4xx_hal_i2c_c]::I2C_ITError(__I2C_HandleTypeDef*)
    stm32f4xx_hal_i2c.o(i.HAL_I2C_EV_IRQHandler) refers to stm32f4xx_hal_i2c.o(i._ZN41_INTERNAL_19_stm32f4xx_hal_i2c_c_0eb271f413I2C_Master_SBEP19__I2C_HandleTypeDef) for [local to stm32f4xx_hal_i2c_c]::I2C_Master_SB(__I2C_HandleTypeDef*)
    stm32f4xx_hal_i2c.o(i.HAL_I2C_EV_IRQHandler) refers to stm32f4xx_hal_i2c.o(i._ZN41_INTERNAL_19_stm32f4xx_hal_i2c_c_0eb271f415I2C_Master_ADDREP19__I2C_HandleTypeDef) for [local to stm32f4xx_hal_i2c_c]::I2C_Master_ADDR(__I2C_HandleTypeDef*)
    stm32f4xx_hal_i2c.o(i.HAL_I2C_EV_IRQHandler) refers to stm32f4xx_hal_i2c.o(i._ZN41_INTERNAL_19_stm32f4xx_hal_i2c_c_0eb271f422I2C_MasterTransmit_TXEEP19__I2C_HandleTypeDef) for [local to stm32f4xx_hal_i2c_c]::I2C_MasterTransmit_TXE(__I2C_HandleTypeDef*)
    stm32f4xx_hal_i2c.o(i.HAL_I2C_EV_IRQHandler) refers to stm32f4xx_hal_i2c.o(i._ZN41_INTERNAL_19_stm32f4xx_hal_i2c_c_0eb271f422I2C_MasterTransmit_BTFEP19__I2C_HandleTypeDef) for [local to stm32f4xx_hal_i2c_c]::I2C_MasterTransmit_BTF(__I2C_HandleTypeDef*)
    stm32f4xx_hal_i2c.o(i.HAL_I2C_EV_IRQHandler) refers to stm32f4xx_hal_i2c.o(i._ZN41_INTERNAL_19_stm32f4xx_hal_i2c_c_0eb271f422I2C_MasterReceive_RXNEEP19__I2C_HandleTypeDef) for [local to stm32f4xx_hal_i2c_c]::I2C_MasterReceive_RXNE(__I2C_HandleTypeDef*)
    stm32f4xx_hal_i2c.o(i.HAL_I2C_EV_IRQHandler) refers to stm32f4xx_hal_i2c.o(i._ZN41_INTERNAL_19_stm32f4xx_hal_i2c_c_0eb271f421I2C_MasterReceive_BTFEP19__I2C_HandleTypeDef) for [local to stm32f4xx_hal_i2c_c]::I2C_MasterReceive_BTF(__I2C_HandleTypeDef*)
    stm32f4xx_hal_i2c.o(i.HAL_I2C_EV_IRQHandler) refers to stm32f4xx_hal_i2c.o(i.HAL_I2C_AddrCallback) for HAL_I2C_AddrCallback
    stm32f4xx_hal_i2c.o(i.HAL_I2C_EV_IRQHandler) refers to stm32f4xx_hal_i2c.o(i._ZN41_INTERNAL_19_stm32f4xx_hal_i2c_c_0eb271f415I2C_Slave_STOPFEP19__I2C_HandleTypeDef) for [local to stm32f4xx_hal_i2c_c]::I2C_Slave_STOPF(__I2C_HandleTypeDef*)
    stm32f4xx_hal_i2c.o(i.HAL_I2C_EV_IRQHandler) refers to stm32f4xx_hal_i2c.o(i.HAL_I2C_SlaveRxCpltCallback) for HAL_I2C_SlaveRxCpltCallback
    stm32f4xx_hal_i2c.o(i.HAL_I2C_EV_IRQHandler) refers to stm32f4xx_hal_i2c.o(i.HAL_I2C_SlaveTxCpltCallback) for HAL_I2C_SlaveTxCpltCallback
    stm32f4xx_hal_i2c.o(i.HAL_I2C_Init) refers to stm32f4xx_hal_msp.o(i.HAL_I2C_MspInit) for HAL_I2C_MspInit
    stm32f4xx_hal_i2c.o(i.HAL_I2C_Init) refers to stm32f4xx_hal_rcc.o(i.HAL_RCC_GetPCLK1Freq) for HAL_RCC_GetPCLK1Freq
    stm32f4xx_hal_i2c.o(i.HAL_I2C_IsDeviceReady) refers to stm32f4xx_hal.o(i.HAL_GetTick) for HAL_GetTick
    stm32f4xx_hal_i2c.o(i.HAL_I2C_IsDeviceReady) refers to stm32f4xx_hal_i2c.o(i._ZN41_INTERNAL_19_stm32f4xx_hal_i2c_c_0eb271f426I2C_WaitOnFlagUntilTimeoutEP19__I2C_HandleTypeDefj10FlagStatusjj) for [local to stm32f4xx_hal_i2c_c]::I2C_WaitOnFlagUntilTimeout(__I2C_HandleTypeDef*, unsigned, FlagStatus, unsigned, unsigned)
    stm32f4xx_hal_i2c.o(i.HAL_I2C_Master_Abort_IT) refers to stm32f4xx_hal_i2c.o(i._ZN41_INTERNAL_19_stm32f4xx_hal_i2c_c_0eb271f411I2C_ITErrorEP19__I2C_HandleTypeDef) for [local to stm32f4xx_hal_i2c_c]::I2C_ITError(__I2C_HandleTypeDef*)
    stm32f4xx_hal_i2c.o(i.HAL_I2C_Master_Receive) refers to stm32f4xx_hal.o(i.HAL_GetTick) for HAL_GetTick
    stm32f4xx_hal_i2c.o(i.HAL_I2C_Master_Receive) refers to stm32f4xx_hal_i2c.o(i._ZN41_INTERNAL_19_stm32f4xx_hal_i2c_c_0eb271f426I2C_WaitOnFlagUntilTimeoutEP19__I2C_HandleTypeDefj10FlagStatusjj) for [local to stm32f4xx_hal_i2c_c]::I2C_WaitOnFlagUntilTimeout(__I2C_HandleTypeDef*, unsigned, FlagStatus, unsigned, unsigned)
    stm32f4xx_hal_i2c.o(i.HAL_I2C_Master_Receive) refers to stm32f4xx_hal_i2c.o(i._ZN41_INTERNAL_19_stm32f4xx_hal_i2c_c_0eb271f421I2C_MasterRequestReadEP19__I2C_HandleTypeDeftjj) for [local to stm32f4xx_hal_i2c_c]::I2C_MasterRequestRead(__I2C_HandleTypeDef*, unsigned short, unsigned, unsigned)
    stm32f4xx_hal_i2c.o(i.HAL_I2C_Master_Receive) refers to stm32f4xx_hal_i2c.o(i._ZN41_INTERNAL_19_stm32f4xx_hal_i2c_c_0eb271f430I2C_WaitOnRXNEFlagUntilTimeoutEP19__I2C_HandleTypeDefjj) for [local to stm32f4xx_hal_i2c_c]::I2C_WaitOnRXNEFlagUntilTimeout(__I2C_HandleTypeDef*, unsigned, unsigned)
    stm32f4xx_hal_i2c.o(i.HAL_I2C_Master_Receive_DMA) refers to stm32f4xx_hal_dma.o(i.HAL_DMA_Start_IT) for HAL_DMA_Start_IT
    stm32f4xx_hal_i2c.o(i.HAL_I2C_Master_Receive_DMA) refers to system_stm32f4xx.o(.data) for SystemCoreClock
    stm32f4xx_hal_i2c.o(i.HAL_I2C_Master_Receive_DMA) refers to stm32f4xx_hal_i2c.o(i._ZN41_INTERNAL_19_stm32f4xx_hal_i2c_c_0eb271f415I2C_DMAXferCpltEP19__DMA_HandleTypeDef) for [local to stm32f4xx_hal_i2c_c]::I2C_DMAXferCplt(__DMA_HandleTypeDef*)
    stm32f4xx_hal_i2c.o(i.HAL_I2C_Master_Receive_DMA) refers to stm32f4xx_hal_i2c.o(i._ZN41_INTERNAL_19_stm32f4xx_hal_i2c_c_0eb271f412I2C_DMAErrorEP19__DMA_HandleTypeDef) for [local to stm32f4xx_hal_i2c_c]::I2C_DMAError(__DMA_HandleTypeDef*)
    stm32f4xx_hal_i2c.o(i.HAL_I2C_Master_Receive_IT) refers to system_stm32f4xx.o(.data) for SystemCoreClock
    stm32f4xx_hal_i2c.o(i.HAL_I2C_Master_Seq_Receive_DMA) refers to stm32f4xx_hal_dma.o(i.HAL_DMA_Start_IT) for HAL_DMA_Start_IT
    stm32f4xx_hal_i2c.o(i.HAL_I2C_Master_Seq_Receive_DMA) refers to system_stm32f4xx.o(.data) for SystemCoreClock
    stm32f4xx_hal_i2c.o(i.HAL_I2C_Master_Seq_Receive_DMA) refers to stm32f4xx_hal_i2c.o(i._ZN41_INTERNAL_19_stm32f4xx_hal_i2c_c_0eb271f415I2C_DMAXferCpltEP19__DMA_HandleTypeDef) for [local to stm32f4xx_hal_i2c_c]::I2C_DMAXferCplt(__DMA_HandleTypeDef*)
    stm32f4xx_hal_i2c.o(i.HAL_I2C_Master_Seq_Receive_DMA) refers to stm32f4xx_hal_i2c.o(i._ZN41_INTERNAL_19_stm32f4xx_hal_i2c_c_0eb271f412I2C_DMAErrorEP19__DMA_HandleTypeDef) for [local to stm32f4xx_hal_i2c_c]::I2C_DMAError(__DMA_HandleTypeDef*)
    stm32f4xx_hal_i2c.o(i.HAL_I2C_Master_Seq_Receive_IT) refers to system_stm32f4xx.o(.data) for SystemCoreClock
    stm32f4xx_hal_i2c.o(i.HAL_I2C_Master_Seq_Transmit_DMA) refers to stm32f4xx_hal_dma.o(i.HAL_DMA_Start_IT) for HAL_DMA_Start_IT
    stm32f4xx_hal_i2c.o(i.HAL_I2C_Master_Seq_Transmit_DMA) refers to system_stm32f4xx.o(.data) for SystemCoreClock
    stm32f4xx_hal_i2c.o(i.HAL_I2C_Master_Seq_Transmit_DMA) refers to stm32f4xx_hal_i2c.o(i._ZN41_INTERNAL_19_stm32f4xx_hal_i2c_c_0eb271f415I2C_DMAXferCpltEP19__DMA_HandleTypeDef) for [local to stm32f4xx_hal_i2c_c]::I2C_DMAXferCplt(__DMA_HandleTypeDef*)
    stm32f4xx_hal_i2c.o(i.HAL_I2C_Master_Seq_Transmit_DMA) refers to stm32f4xx_hal_i2c.o(i._ZN41_INTERNAL_19_stm32f4xx_hal_i2c_c_0eb271f412I2C_DMAErrorEP19__DMA_HandleTypeDef) for [local to stm32f4xx_hal_i2c_c]::I2C_DMAError(__DMA_HandleTypeDef*)
    stm32f4xx_hal_i2c.o(i.HAL_I2C_Master_Seq_Transmit_IT) refers to system_stm32f4xx.o(.data) for SystemCoreClock
    stm32f4xx_hal_i2c.o(i.HAL_I2C_Master_Transmit) refers to stm32f4xx_hal.o(i.HAL_GetTick) for HAL_GetTick
    stm32f4xx_hal_i2c.o(i.HAL_I2C_Master_Transmit) refers to stm32f4xx_hal_i2c.o(i._ZN41_INTERNAL_19_stm32f4xx_hal_i2c_c_0eb271f426I2C_WaitOnFlagUntilTimeoutEP19__I2C_HandleTypeDefj10FlagStatusjj) for [local to stm32f4xx_hal_i2c_c]::I2C_WaitOnFlagUntilTimeout(__I2C_HandleTypeDef*, unsigned, FlagStatus, unsigned, unsigned)
    stm32f4xx_hal_i2c.o(i.HAL_I2C_Master_Transmit) refers to stm32f4xx_hal_i2c.o(i._ZN41_INTERNAL_19_stm32f4xx_hal_i2c_c_0eb271f422I2C_MasterRequestWriteEP19__I2C_HandleTypeDeftjj) for [local to stm32f4xx_hal_i2c_c]::I2C_MasterRequestWrite(__I2C_HandleTypeDef*, unsigned short, unsigned, unsigned)
    stm32f4xx_hal_i2c.o(i.HAL_I2C_Master_Transmit) refers to stm32f4xx_hal_i2c.o(i._ZN41_INTERNAL_19_stm32f4xx_hal_i2c_c_0eb271f429I2C_WaitOnTXEFlagUntilTimeoutEP19__I2C_HandleTypeDefjj) for [local to stm32f4xx_hal_i2c_c]::I2C_WaitOnTXEFlagUntilTimeout(__I2C_HandleTypeDef*, unsigned, unsigned)
    stm32f4xx_hal_i2c.o(i.HAL_I2C_Master_Transmit) refers to stm32f4xx_hal_i2c.o(i._ZN41_INTERNAL_19_stm32f4xx_hal_i2c_c_0eb271f429I2C_WaitOnBTFFlagUntilTimeoutEP19__I2C_HandleTypeDefjj) for [local to stm32f4xx_hal_i2c_c]::I2C_WaitOnBTFFlagUntilTimeout(__I2C_HandleTypeDef*, unsigned, unsigned)
    stm32f4xx_hal_i2c.o(i.HAL_I2C_Master_Transmit_DMA) refers to stm32f4xx_hal_dma.o(i.HAL_DMA_Start_IT) for HAL_DMA_Start_IT
    stm32f4xx_hal_i2c.o(i.HAL_I2C_Master_Transmit_DMA) refers to system_stm32f4xx.o(.data) for SystemCoreClock
    stm32f4xx_hal_i2c.o(i.HAL_I2C_Master_Transmit_DMA) refers to stm32f4xx_hal_i2c.o(i._ZN41_INTERNAL_19_stm32f4xx_hal_i2c_c_0eb271f415I2C_DMAXferCpltEP19__DMA_HandleTypeDef) for [local to stm32f4xx_hal_i2c_c]::I2C_DMAXferCplt(__DMA_HandleTypeDef*)
    stm32f4xx_hal_i2c.o(i.HAL_I2C_Master_Transmit_DMA) refers to stm32f4xx_hal_i2c.o(i._ZN41_INTERNAL_19_stm32f4xx_hal_i2c_c_0eb271f412I2C_DMAErrorEP19__DMA_HandleTypeDef) for [local to stm32f4xx_hal_i2c_c]::I2C_DMAError(__DMA_HandleTypeDef*)
    stm32f4xx_hal_i2c.o(i.HAL_I2C_Master_Transmit_IT) refers to system_stm32f4xx.o(.data) for SystemCoreClock
    stm32f4xx_hal_i2c.o(i.HAL_I2C_Mem_Read) refers to stm32f4xx_hal.o(i.HAL_GetTick) for HAL_GetTick
    stm32f4xx_hal_i2c.o(i.HAL_I2C_Mem_Read) refers to stm32f4xx_hal_i2c.o(i._ZN41_INTERNAL_19_stm32f4xx_hal_i2c_c_0eb271f426I2C_WaitOnFlagUntilTimeoutEP19__I2C_HandleTypeDefj10FlagStatusjj) for [local to stm32f4xx_hal_i2c_c]::I2C_WaitOnFlagUntilTimeout(__I2C_HandleTypeDef*, unsigned, FlagStatus, unsigned, unsigned)
    stm32f4xx_hal_i2c.o(i.HAL_I2C_Mem_Read) refers to stm32f4xx_hal_i2c.o(i._ZN41_INTERNAL_19_stm32f4xx_hal_i2c_c_0eb271f421I2C_RequestMemoryReadEP19__I2C_HandleTypeDeftttjj) for [local to stm32f4xx_hal_i2c_c]::I2C_RequestMemoryRead(__I2C_HandleTypeDef*, unsigned short, unsigned short, unsigned short, unsigned, unsigned)
    stm32f4xx_hal_i2c.o(i.HAL_I2C_Mem_Read) refers to stm32f4xx_hal_i2c.o(i._ZN41_INTERNAL_19_stm32f4xx_hal_i2c_c_0eb271f430I2C_WaitOnRXNEFlagUntilTimeoutEP19__I2C_HandleTypeDefjj) for [local to stm32f4xx_hal_i2c_c]::I2C_WaitOnRXNEFlagUntilTimeout(__I2C_HandleTypeDef*, unsigned, unsigned)
    stm32f4xx_hal_i2c.o(i.HAL_I2C_Mem_Read_DMA) refers to stm32f4xx_hal.o(i.HAL_GetTick) for HAL_GetTick
    stm32f4xx_hal_i2c.o(i.HAL_I2C_Mem_Read_DMA) refers to stm32f4xx_hal_dma.o(i.HAL_DMA_Start_IT) for HAL_DMA_Start_IT
    stm32f4xx_hal_i2c.o(i.HAL_I2C_Mem_Read_DMA) refers to stm32f4xx_hal_i2c.o(i._ZN41_INTERNAL_19_stm32f4xx_hal_i2c_c_0eb271f421I2C_RequestMemoryReadEP19__I2C_HandleTypeDeftttjj) for [local to stm32f4xx_hal_i2c_c]::I2C_RequestMemoryRead(__I2C_HandleTypeDef*, unsigned short, unsigned short, unsigned short, unsigned, unsigned)
    stm32f4xx_hal_i2c.o(i.HAL_I2C_Mem_Read_DMA) refers to system_stm32f4xx.o(.data) for SystemCoreClock
    stm32f4xx_hal_i2c.o(i.HAL_I2C_Mem_Read_DMA) refers to stm32f4xx_hal_i2c.o(i._ZN41_INTERNAL_19_stm32f4xx_hal_i2c_c_0eb271f415I2C_DMAXferCpltEP19__DMA_HandleTypeDef) for [local to stm32f4xx_hal_i2c_c]::I2C_DMAXferCplt(__DMA_HandleTypeDef*)
    stm32f4xx_hal_i2c.o(i.HAL_I2C_Mem_Read_DMA) refers to stm32f4xx_hal_i2c.o(i._ZN41_INTERNAL_19_stm32f4xx_hal_i2c_c_0eb271f412I2C_DMAErrorEP19__DMA_HandleTypeDef) for [local to stm32f4xx_hal_i2c_c]::I2C_DMAError(__DMA_HandleTypeDef*)
    stm32f4xx_hal_i2c.o(i.HAL_I2C_Mem_Read_IT) refers to system_stm32f4xx.o(.data) for SystemCoreClock
    stm32f4xx_hal_i2c.o(i.HAL_I2C_Mem_Write) refers to stm32f4xx_hal.o(i.HAL_GetTick) for HAL_GetTick
    stm32f4xx_hal_i2c.o(i.HAL_I2C_Mem_Write) refers to stm32f4xx_hal_i2c.o(i._ZN41_INTERNAL_19_stm32f4xx_hal_i2c_c_0eb271f426I2C_WaitOnFlagUntilTimeoutEP19__I2C_HandleTypeDefj10FlagStatusjj) for [local to stm32f4xx_hal_i2c_c]::I2C_WaitOnFlagUntilTimeout(__I2C_HandleTypeDef*, unsigned, FlagStatus, unsigned, unsigned)
    stm32f4xx_hal_i2c.o(i.HAL_I2C_Mem_Write) refers to stm32f4xx_hal_i2c.o(i._ZN41_INTERNAL_19_stm32f4xx_hal_i2c_c_0eb271f422I2C_RequestMemoryWriteEP19__I2C_HandleTypeDeftttjj) for [local to stm32f4xx_hal_i2c_c]::I2C_RequestMemoryWrite(__I2C_HandleTypeDef*, unsigned short, unsigned short, unsigned short, unsigned, unsigned)
    stm32f4xx_hal_i2c.o(i.HAL_I2C_Mem_Write) refers to stm32f4xx_hal_i2c.o(i._ZN41_INTERNAL_19_stm32f4xx_hal_i2c_c_0eb271f429I2C_WaitOnTXEFlagUntilTimeoutEP19__I2C_HandleTypeDefjj) for [local to stm32f4xx_hal_i2c_c]::I2C_WaitOnTXEFlagUntilTimeout(__I2C_HandleTypeDef*, unsigned, unsigned)
    stm32f4xx_hal_i2c.o(i.HAL_I2C_Mem_Write) refers to stm32f4xx_hal_i2c.o(i._ZN41_INTERNAL_19_stm32f4xx_hal_i2c_c_0eb271f429I2C_WaitOnBTFFlagUntilTimeoutEP19__I2C_HandleTypeDefjj) for [local to stm32f4xx_hal_i2c_c]::I2C_WaitOnBTFFlagUntilTimeout(__I2C_HandleTypeDef*, unsigned, unsigned)
    stm32f4xx_hal_i2c.o(i.HAL_I2C_Mem_Write_DMA) refers to stm32f4xx_hal.o(i.HAL_GetTick) for HAL_GetTick
    stm32f4xx_hal_i2c.o(i.HAL_I2C_Mem_Write_DMA) refers to stm32f4xx_hal_dma.o(i.HAL_DMA_Start_IT) for HAL_DMA_Start_IT
    stm32f4xx_hal_i2c.o(i.HAL_I2C_Mem_Write_DMA) refers to stm32f4xx_hal_i2c.o(i._ZN41_INTERNAL_19_stm32f4xx_hal_i2c_c_0eb271f422I2C_RequestMemoryWriteEP19__I2C_HandleTypeDeftttjj) for [local to stm32f4xx_hal_i2c_c]::I2C_RequestMemoryWrite(__I2C_HandleTypeDef*, unsigned short, unsigned short, unsigned short, unsigned, unsigned)
    stm32f4xx_hal_i2c.o(i.HAL_I2C_Mem_Write_DMA) refers to system_stm32f4xx.o(.data) for SystemCoreClock
    stm32f4xx_hal_i2c.o(i.HAL_I2C_Mem_Write_DMA) refers to stm32f4xx_hal_i2c.o(i._ZN41_INTERNAL_19_stm32f4xx_hal_i2c_c_0eb271f415I2C_DMAXferCpltEP19__DMA_HandleTypeDef) for [local to stm32f4xx_hal_i2c_c]::I2C_DMAXferCplt(__DMA_HandleTypeDef*)
    stm32f4xx_hal_i2c.o(i.HAL_I2C_Mem_Write_DMA) refers to stm32f4xx_hal_i2c.o(i._ZN41_INTERNAL_19_stm32f4xx_hal_i2c_c_0eb271f412I2C_DMAErrorEP19__DMA_HandleTypeDef) for [local to stm32f4xx_hal_i2c_c]::I2C_DMAError(__DMA_HandleTypeDef*)
    stm32f4xx_hal_i2c.o(i.HAL_I2C_Mem_Write_IT) refers to system_stm32f4xx.o(.data) for SystemCoreClock
    stm32f4xx_hal_i2c.o(i.HAL_I2C_Slave_Receive) refers to stm32f4xx_hal.o(i.HAL_GetTick) for HAL_GetTick
    stm32f4xx_hal_i2c.o(i.HAL_I2C_Slave_Receive) refers to stm32f4xx_hal_i2c.o(i._ZN41_INTERNAL_19_stm32f4xx_hal_i2c_c_0eb271f426I2C_WaitOnFlagUntilTimeoutEP19__I2C_HandleTypeDefj10FlagStatusjj) for [local to stm32f4xx_hal_i2c_c]::I2C_WaitOnFlagUntilTimeout(__I2C_HandleTypeDef*, unsigned, FlagStatus, unsigned, unsigned)
    stm32f4xx_hal_i2c.o(i.HAL_I2C_Slave_Receive) refers to stm32f4xx_hal_i2c.o(i._ZN41_INTERNAL_19_stm32f4xx_hal_i2c_c_0eb271f430I2C_WaitOnRXNEFlagUntilTimeoutEP19__I2C_HandleTypeDefjj) for [local to stm32f4xx_hal_i2c_c]::I2C_WaitOnRXNEFlagUntilTimeout(__I2C_HandleTypeDef*, unsigned, unsigned)
    stm32f4xx_hal_i2c.o(i.HAL_I2C_Slave_Receive) refers to stm32f4xx_hal_i2c.o(i._ZN41_INTERNAL_19_stm32f4xx_hal_i2c_c_0eb271f423I2C_IsAcknowledgeFailedEP19__I2C_HandleTypeDef) for [local to stm32f4xx_hal_i2c_c]::I2C_IsAcknowledgeFailed(__I2C_HandleTypeDef*)
    stm32f4xx_hal_i2c.o(i.HAL_I2C_Slave_Receive_DMA) refers to stm32f4xx_hal_dma.o(i.HAL_DMA_Start_IT) for HAL_DMA_Start_IT
    stm32f4xx_hal_i2c.o(i.HAL_I2C_Slave_Receive_DMA) refers to stm32f4xx_hal_i2c.o(i._ZN41_INTERNAL_19_stm32f4xx_hal_i2c_c_0eb271f415I2C_DMAXferCpltEP19__DMA_HandleTypeDef) for [local to stm32f4xx_hal_i2c_c]::I2C_DMAXferCplt(__DMA_HandleTypeDef*)
    stm32f4xx_hal_i2c.o(i.HAL_I2C_Slave_Receive_DMA) refers to stm32f4xx_hal_i2c.o(i._ZN41_INTERNAL_19_stm32f4xx_hal_i2c_c_0eb271f412I2C_DMAErrorEP19__DMA_HandleTypeDef) for [local to stm32f4xx_hal_i2c_c]::I2C_DMAError(__DMA_HandleTypeDef*)
    stm32f4xx_hal_i2c.o(i.HAL_I2C_Slave_Seq_Receive_DMA) refers to stm32f4xx_hal_dma.o(i.HAL_DMA_Abort_IT) for HAL_DMA_Abort_IT
    stm32f4xx_hal_i2c.o(i.HAL_I2C_Slave_Seq_Receive_DMA) refers to stm32f4xx_hal_dma.o(i.HAL_DMA_Start_IT) for HAL_DMA_Start_IT
    stm32f4xx_hal_i2c.o(i.HAL_I2C_Slave_Seq_Receive_DMA) refers to stm32f4xx_hal_i2c.o(i._ZN41_INTERNAL_19_stm32f4xx_hal_i2c_c_0eb271f412I2C_DMAAbortEP19__DMA_HandleTypeDef) for [local to stm32f4xx_hal_i2c_c]::I2C_DMAAbort(__DMA_HandleTypeDef*)
    stm32f4xx_hal_i2c.o(i.HAL_I2C_Slave_Seq_Receive_DMA) refers to stm32f4xx_hal_i2c.o(i._ZN41_INTERNAL_19_stm32f4xx_hal_i2c_c_0eb271f415I2C_DMAXferCpltEP19__DMA_HandleTypeDef) for [local to stm32f4xx_hal_i2c_c]::I2C_DMAXferCplt(__DMA_HandleTypeDef*)
    stm32f4xx_hal_i2c.o(i.HAL_I2C_Slave_Seq_Receive_DMA) refers to stm32f4xx_hal_i2c.o(i._ZN41_INTERNAL_19_stm32f4xx_hal_i2c_c_0eb271f412I2C_DMAErrorEP19__DMA_HandleTypeDef) for [local to stm32f4xx_hal_i2c_c]::I2C_DMAError(__DMA_HandleTypeDef*)
    stm32f4xx_hal_i2c.o(i.HAL_I2C_Slave_Seq_Transmit_DMA) refers to stm32f4xx_hal_dma.o(i.HAL_DMA_Abort_IT) for HAL_DMA_Abort_IT
    stm32f4xx_hal_i2c.o(i.HAL_I2C_Slave_Seq_Transmit_DMA) refers to stm32f4xx_hal_dma.o(i.HAL_DMA_Start_IT) for HAL_DMA_Start_IT
    stm32f4xx_hal_i2c.o(i.HAL_I2C_Slave_Seq_Transmit_DMA) refers to stm32f4xx_hal_i2c.o(i._ZN41_INTERNAL_19_stm32f4xx_hal_i2c_c_0eb271f412I2C_DMAAbortEP19__DMA_HandleTypeDef) for [local to stm32f4xx_hal_i2c_c]::I2C_DMAAbort(__DMA_HandleTypeDef*)
    stm32f4xx_hal_i2c.o(i.HAL_I2C_Slave_Seq_Transmit_DMA) refers to stm32f4xx_hal_i2c.o(i._ZN41_INTERNAL_19_stm32f4xx_hal_i2c_c_0eb271f415I2C_DMAXferCpltEP19__DMA_HandleTypeDef) for [local to stm32f4xx_hal_i2c_c]::I2C_DMAXferCplt(__DMA_HandleTypeDef*)
    stm32f4xx_hal_i2c.o(i.HAL_I2C_Slave_Seq_Transmit_DMA) refers to stm32f4xx_hal_i2c.o(i._ZN41_INTERNAL_19_stm32f4xx_hal_i2c_c_0eb271f412I2C_DMAErrorEP19__DMA_HandleTypeDef) for [local to stm32f4xx_hal_i2c_c]::I2C_DMAError(__DMA_HandleTypeDef*)
    stm32f4xx_hal_i2c.o(i.HAL_I2C_Slave_Transmit) refers to stm32f4xx_hal.o(i.HAL_GetTick) for HAL_GetTick
    stm32f4xx_hal_i2c.o(i.HAL_I2C_Slave_Transmit) refers to stm32f4xx_hal_i2c.o(i._ZN41_INTERNAL_19_stm32f4xx_hal_i2c_c_0eb271f426I2C_WaitOnFlagUntilTimeoutEP19__I2C_HandleTypeDefj10FlagStatusjj) for [local to stm32f4xx_hal_i2c_c]::I2C_WaitOnFlagUntilTimeout(__I2C_HandleTypeDef*, unsigned, FlagStatus, unsigned, unsigned)
    stm32f4xx_hal_i2c.o(i.HAL_I2C_Slave_Transmit) refers to stm32f4xx_hal_i2c.o(i._ZN41_INTERNAL_19_stm32f4xx_hal_i2c_c_0eb271f429I2C_WaitOnTXEFlagUntilTimeoutEP19__I2C_HandleTypeDefjj) for [local to stm32f4xx_hal_i2c_c]::I2C_WaitOnTXEFlagUntilTimeout(__I2C_HandleTypeDef*, unsigned, unsigned)
    stm32f4xx_hal_i2c.o(i.HAL_I2C_Slave_Transmit_DMA) refers to stm32f4xx_hal_dma.o(i.HAL_DMA_Start_IT) for HAL_DMA_Start_IT
    stm32f4xx_hal_i2c.o(i.HAL_I2C_Slave_Transmit_DMA) refers to stm32f4xx_hal_i2c.o(i._ZN41_INTERNAL_19_stm32f4xx_hal_i2c_c_0eb271f415I2C_DMAXferCpltEP19__DMA_HandleTypeDef) for [local to stm32f4xx_hal_i2c_c]::I2C_DMAXferCplt(__DMA_HandleTypeDef*)
    stm32f4xx_hal_i2c.o(i.HAL_I2C_Slave_Transmit_DMA) refers to stm32f4xx_hal_i2c.o(i._ZN41_INTERNAL_19_stm32f4xx_hal_i2c_c_0eb271f412I2C_DMAErrorEP19__DMA_HandleTypeDef) for [local to stm32f4xx_hal_i2c_c]::I2C_DMAError(__DMA_HandleTypeDef*)
    stm32f4xx_hal_i2c.o(i._ZN41_INTERNAL_19_stm32f4xx_hal_i2c_c_0eb271f411I2C_ITErrorEP19__I2C_HandleTypeDef) refers to stm32f4xx_hal_dma.o(i.HAL_DMA_Abort_IT) for HAL_DMA_Abort_IT
    stm32f4xx_hal_i2c.o(i._ZN41_INTERNAL_19_stm32f4xx_hal_i2c_c_0eb271f411I2C_ITErrorEP19__I2C_HandleTypeDef) refers to stm32f4xx_hal_i2c.o(i.HAL_I2C_ErrorCallback) for HAL_I2C_ErrorCallback
    stm32f4xx_hal_i2c.o(i._ZN41_INTERNAL_19_stm32f4xx_hal_i2c_c_0eb271f411I2C_ITErrorEP19__I2C_HandleTypeDef) refers to stm32f4xx_hal_i2c.o(i.HAL_I2C_AbortCpltCallback) for HAL_I2C_AbortCpltCallback
    stm32f4xx_hal_i2c.o(i._ZN41_INTERNAL_19_stm32f4xx_hal_i2c_c_0eb271f411I2C_ITErrorEP19__I2C_HandleTypeDef) refers to stm32f4xx_hal_i2c.o(i.HAL_I2C_ListenCpltCallback) for HAL_I2C_ListenCpltCallback
    stm32f4xx_hal_i2c.o(i._ZN41_INTERNAL_19_stm32f4xx_hal_i2c_c_0eb271f411I2C_ITErrorEP19__I2C_HandleTypeDef) refers to stm32f4xx_hal_i2c.o(i._ZN41_INTERNAL_19_stm32f4xx_hal_i2c_c_0eb271f412I2C_DMAAbortEP19__DMA_HandleTypeDef) for [local to stm32f4xx_hal_i2c_c]::I2C_DMAAbort(__DMA_HandleTypeDef*)
    stm32f4xx_hal_i2c.o(i._ZN41_INTERNAL_19_stm32f4xx_hal_i2c_c_0eb271f412I2C_DMAAbortEP19__DMA_HandleTypeDef) refers to stm32f4xx_hal_i2c.o(i.HAL_I2C_ErrorCallback) for HAL_I2C_ErrorCallback
    stm32f4xx_hal_i2c.o(i._ZN41_INTERNAL_19_stm32f4xx_hal_i2c_c_0eb271f412I2C_DMAAbortEP19__DMA_HandleTypeDef) refers to stm32f4xx_hal_i2c.o(i.HAL_I2C_AbortCpltCallback) for HAL_I2C_AbortCpltCallback
    stm32f4xx_hal_i2c.o(i._ZN41_INTERNAL_19_stm32f4xx_hal_i2c_c_0eb271f412I2C_DMAErrorEP19__DMA_HandleTypeDef) refers to stm32f4xx_hal_dma.o(i.HAL_DMA_GetError) for HAL_DMA_GetError
    stm32f4xx_hal_i2c.o(i._ZN41_INTERNAL_19_stm32f4xx_hal_i2c_c_0eb271f412I2C_DMAErrorEP19__DMA_HandleTypeDef) refers to stm32f4xx_hal_i2c.o(i.HAL_I2C_ErrorCallback) for HAL_I2C_ErrorCallback
    stm32f4xx_hal_i2c.o(i._ZN41_INTERNAL_19_stm32f4xx_hal_i2c_c_0eb271f412I2C_Slave_AFEP19__I2C_HandleTypeDef) refers to stm32f4xx_hal_i2c.o(i.HAL_I2C_ListenCpltCallback) for HAL_I2C_ListenCpltCallback
    stm32f4xx_hal_i2c.o(i._ZN41_INTERNAL_19_stm32f4xx_hal_i2c_c_0eb271f412I2C_Slave_AFEP19__I2C_HandleTypeDef) refers to stm32f4xx_hal_i2c.o(i.HAL_I2C_SlaveTxCpltCallback) for HAL_I2C_SlaveTxCpltCallback
    stm32f4xx_hal_i2c.o(i._ZN41_INTERNAL_19_stm32f4xx_hal_i2c_c_0eb271f415I2C_DMAXferCpltEP19__DMA_HandleTypeDef) refers to stm32f4xx_hal_i2c.o(i.HAL_I2C_SlaveTxCpltCallback) for HAL_I2C_SlaveTxCpltCallback
    stm32f4xx_hal_i2c.o(i._ZN41_INTERNAL_19_stm32f4xx_hal_i2c_c_0eb271f415I2C_DMAXferCpltEP19__DMA_HandleTypeDef) refers to stm32f4xx_hal_i2c.o(i.HAL_I2C_SlaveRxCpltCallback) for HAL_I2C_SlaveRxCpltCallback
    stm32f4xx_hal_i2c.o(i._ZN41_INTERNAL_19_stm32f4xx_hal_i2c_c_0eb271f415I2C_DMAXferCpltEP19__DMA_HandleTypeDef) refers to stm32f4xx_hal_i2c.o(i.HAL_I2C_ErrorCallback) for HAL_I2C_ErrorCallback
    stm32f4xx_hal_i2c.o(i._ZN41_INTERNAL_19_stm32f4xx_hal_i2c_c_0eb271f415I2C_DMAXferCpltEP19__DMA_HandleTypeDef) refers to stm32f4xx_hal_i2c.o(i.HAL_I2C_MasterRxCpltCallback) for HAL_I2C_MasterRxCpltCallback
    stm32f4xx_hal_i2c.o(i._ZN41_INTERNAL_19_stm32f4xx_hal_i2c_c_0eb271f415I2C_DMAXferCpltEP19__DMA_HandleTypeDef) refers to stm32f4xx_hal_i2c.o(i.HAL_I2C_MemRxCpltCallback) for HAL_I2C_MemRxCpltCallback
    stm32f4xx_hal_i2c.o(i._ZN41_INTERNAL_19_stm32f4xx_hal_i2c_c_0eb271f415I2C_Slave_STOPFEP19__I2C_HandleTypeDef) refers to stm32f4xx_hal_dma.o(i.HAL_DMA_GetState) for HAL_DMA_GetState
    stm32f4xx_hal_i2c.o(i._ZN41_INTERNAL_19_stm32f4xx_hal_i2c_c_0eb271f415I2C_Slave_STOPFEP19__I2C_HandleTypeDef) refers to stm32f4xx_hal_dma.o(i.HAL_DMA_Abort_IT) for HAL_DMA_Abort_IT
    stm32f4xx_hal_i2c.o(i._ZN41_INTERNAL_19_stm32f4xx_hal_i2c_c_0eb271f415I2C_Slave_STOPFEP19__I2C_HandleTypeDef) refers to stm32f4xx_hal_i2c.o(i._ZN41_INTERNAL_19_stm32f4xx_hal_i2c_c_0eb271f411I2C_ITErrorEP19__I2C_HandleTypeDef) for [local to stm32f4xx_hal_i2c_c]::I2C_ITError(__I2C_HandleTypeDef*)
    stm32f4xx_hal_i2c.o(i._ZN41_INTERNAL_19_stm32f4xx_hal_i2c_c_0eb271f415I2C_Slave_STOPFEP19__I2C_HandleTypeDef) refers to stm32f4xx_hal_i2c.o(i.HAL_I2C_SlaveRxCpltCallback) for HAL_I2C_SlaveRxCpltCallback
    stm32f4xx_hal_i2c.o(i._ZN41_INTERNAL_19_stm32f4xx_hal_i2c_c_0eb271f415I2C_Slave_STOPFEP19__I2C_HandleTypeDef) refers to stm32f4xx_hal_i2c.o(i.HAL_I2C_ListenCpltCallback) for HAL_I2C_ListenCpltCallback
    stm32f4xx_hal_i2c.o(i._ZN41_INTERNAL_19_stm32f4xx_hal_i2c_c_0eb271f415I2C_Slave_STOPFEP19__I2C_HandleTypeDef) refers to stm32f4xx_hal_i2c.o(i._ZN41_INTERNAL_19_stm32f4xx_hal_i2c_c_0eb271f412I2C_DMAAbortEP19__DMA_HandleTypeDef) for [local to stm32f4xx_hal_i2c_c]::I2C_DMAAbort(__DMA_HandleTypeDef*)
    stm32f4xx_hal_i2c.o(i._ZN41_INTERNAL_19_stm32f4xx_hal_i2c_c_0eb271f421I2C_MasterReceive_BTFEP19__I2C_HandleTypeDef) refers to stm32f4xx_hal_i2c.o(i.HAL_I2C_MasterRxCpltCallback) for HAL_I2C_MasterRxCpltCallback
    stm32f4xx_hal_i2c.o(i._ZN41_INTERNAL_19_stm32f4xx_hal_i2c_c_0eb271f421I2C_MasterReceive_BTFEP19__I2C_HandleTypeDef) refers to stm32f4xx_hal_i2c.o(i.HAL_I2C_MemRxCpltCallback) for HAL_I2C_MemRxCpltCallback
    stm32f4xx_hal_i2c.o(i._ZN41_INTERNAL_19_stm32f4xx_hal_i2c_c_0eb271f421I2C_MasterRequestReadEP19__I2C_HandleTypeDeftjj) refers to stm32f4xx_hal_i2c.o(i._ZN41_INTERNAL_19_stm32f4xx_hal_i2c_c_0eb271f426I2C_WaitOnFlagUntilTimeoutEP19__I2C_HandleTypeDefj10FlagStatusjj) for [local to stm32f4xx_hal_i2c_c]::I2C_WaitOnFlagUntilTimeout(__I2C_HandleTypeDef*, unsigned, FlagStatus, unsigned, unsigned)
    stm32f4xx_hal_i2c.o(i._ZN41_INTERNAL_19_stm32f4xx_hal_i2c_c_0eb271f421I2C_MasterRequestReadEP19__I2C_HandleTypeDeftjj) refers to stm32f4xx_hal_i2c.o(i._ZN41_INTERNAL_19_stm32f4xx_hal_i2c_c_0eb271f439I2C_WaitOnMasterAddressFlagUntilTimeoutEP19__I2C_HandleTypeDefjjj) for [local to stm32f4xx_hal_i2c_c]::I2C_WaitOnMasterAddressFlagUntilTimeout(__I2C_HandleTypeDef*, unsigned, unsigned, unsigned)
    stm32f4xx_hal_i2c.o(i._ZN41_INTERNAL_19_stm32f4xx_hal_i2c_c_0eb271f421I2C_RequestMemoryReadEP19__I2C_HandleTypeDeftttjj) refers to stm32f4xx_hal_i2c.o(i._ZN41_INTERNAL_19_stm32f4xx_hal_i2c_c_0eb271f426I2C_WaitOnFlagUntilTimeoutEP19__I2C_HandleTypeDefj10FlagStatusjj) for [local to stm32f4xx_hal_i2c_c]::I2C_WaitOnFlagUntilTimeout(__I2C_HandleTypeDef*, unsigned, FlagStatus, unsigned, unsigned)
    stm32f4xx_hal_i2c.o(i._ZN41_INTERNAL_19_stm32f4xx_hal_i2c_c_0eb271f421I2C_RequestMemoryReadEP19__I2C_HandleTypeDeftttjj) refers to stm32f4xx_hal_i2c.o(i._ZN41_INTERNAL_19_stm32f4xx_hal_i2c_c_0eb271f439I2C_WaitOnMasterAddressFlagUntilTimeoutEP19__I2C_HandleTypeDefjjj) for [local to stm32f4xx_hal_i2c_c]::I2C_WaitOnMasterAddressFlagUntilTimeout(__I2C_HandleTypeDef*, unsigned, unsigned, unsigned)
    stm32f4xx_hal_i2c.o(i._ZN41_INTERNAL_19_stm32f4xx_hal_i2c_c_0eb271f421I2C_RequestMemoryReadEP19__I2C_HandleTypeDeftttjj) refers to stm32f4xx_hal_i2c.o(i._ZN41_INTERNAL_19_stm32f4xx_hal_i2c_c_0eb271f429I2C_WaitOnTXEFlagUntilTimeoutEP19__I2C_HandleTypeDefjj) for [local to stm32f4xx_hal_i2c_c]::I2C_WaitOnTXEFlagUntilTimeout(__I2C_HandleTypeDef*, unsigned, unsigned)
    stm32f4xx_hal_i2c.o(i._ZN41_INTERNAL_19_stm32f4xx_hal_i2c_c_0eb271f422I2C_MasterReceive_RXNEEP19__I2C_HandleTypeDef) refers to stm32f4xx_hal_i2c.o(i.HAL_I2C_MasterRxCpltCallback) for HAL_I2C_MasterRxCpltCallback
    stm32f4xx_hal_i2c.o(i._ZN41_INTERNAL_19_stm32f4xx_hal_i2c_c_0eb271f422I2C_MasterReceive_RXNEEP19__I2C_HandleTypeDef) refers to stm32f4xx_hal_i2c.o(i.HAL_I2C_MemRxCpltCallback) for HAL_I2C_MemRxCpltCallback
    stm32f4xx_hal_i2c.o(i._ZN41_INTERNAL_19_stm32f4xx_hal_i2c_c_0eb271f422I2C_MasterRequestWriteEP19__I2C_HandleTypeDeftjj) refers to stm32f4xx_hal_i2c.o(i._ZN41_INTERNAL_19_stm32f4xx_hal_i2c_c_0eb271f426I2C_WaitOnFlagUntilTimeoutEP19__I2C_HandleTypeDefj10FlagStatusjj) for [local to stm32f4xx_hal_i2c_c]::I2C_WaitOnFlagUntilTimeout(__I2C_HandleTypeDef*, unsigned, FlagStatus, unsigned, unsigned)
    stm32f4xx_hal_i2c.o(i._ZN41_INTERNAL_19_stm32f4xx_hal_i2c_c_0eb271f422I2C_MasterRequestWriteEP19__I2C_HandleTypeDeftjj) refers to stm32f4xx_hal_i2c.o(i._ZN41_INTERNAL_19_stm32f4xx_hal_i2c_c_0eb271f439I2C_WaitOnMasterAddressFlagUntilTimeoutEP19__I2C_HandleTypeDefjjj) for [local to stm32f4xx_hal_i2c_c]::I2C_WaitOnMasterAddressFlagUntilTimeout(__I2C_HandleTypeDef*, unsigned, unsigned, unsigned)
    stm32f4xx_hal_i2c.o(i._ZN41_INTERNAL_19_stm32f4xx_hal_i2c_c_0eb271f422I2C_MasterTransmit_BTFEP19__I2C_HandleTypeDef) refers to stm32f4xx_hal_i2c.o(i._ZN41_INTERNAL_19_stm32f4xx_hal_i2c_c_0eb271f426I2C_MemoryTransmit_TXE_BTFEP19__I2C_HandleTypeDef) for [local to stm32f4xx_hal_i2c_c]::I2C_MemoryTransmit_TXE_BTF(__I2C_HandleTypeDef*)
    stm32f4xx_hal_i2c.o(i._ZN41_INTERNAL_19_stm32f4xx_hal_i2c_c_0eb271f422I2C_MasterTransmit_BTFEP19__I2C_HandleTypeDef) refers to stm32f4xx_hal_i2c.o(i.HAL_I2C_MasterTxCpltCallback) for HAL_I2C_MasterTxCpltCallback
    stm32f4xx_hal_i2c.o(i._ZN41_INTERNAL_19_stm32f4xx_hal_i2c_c_0eb271f422I2C_MasterTransmit_BTFEP19__I2C_HandleTypeDef) refers to stm32f4xx_hal_i2c.o(i.HAL_I2C_MemTxCpltCallback) for HAL_I2C_MemTxCpltCallback
    stm32f4xx_hal_i2c.o(i._ZN41_INTERNAL_19_stm32f4xx_hal_i2c_c_0eb271f422I2C_MasterTransmit_TXEEP19__I2C_HandleTypeDef) refers to stm32f4xx_hal_i2c.o(i.HAL_I2C_MasterTxCpltCallback) for HAL_I2C_MasterTxCpltCallback
    stm32f4xx_hal_i2c.o(i._ZN41_INTERNAL_19_stm32f4xx_hal_i2c_c_0eb271f422I2C_MasterTransmit_TXEEP19__I2C_HandleTypeDef) refers to stm32f4xx_hal_i2c.o(i.HAL_I2C_MemTxCpltCallback) for HAL_I2C_MemTxCpltCallback
    stm32f4xx_hal_i2c.o(i._ZN41_INTERNAL_19_stm32f4xx_hal_i2c_c_0eb271f422I2C_MasterTransmit_TXEEP19__I2C_HandleTypeDef) refers to stm32f4xx_hal_i2c.o(i._ZN41_INTERNAL_19_stm32f4xx_hal_i2c_c_0eb271f426I2C_MemoryTransmit_TXE_BTFEP19__I2C_HandleTypeDef) for [local to stm32f4xx_hal_i2c_c]::I2C_MemoryTransmit_TXE_BTF(__I2C_HandleTypeDef*)
    stm32f4xx_hal_i2c.o(i._ZN41_INTERNAL_19_stm32f4xx_hal_i2c_c_0eb271f422I2C_RequestMemoryWriteEP19__I2C_HandleTypeDeftttjj) refers to stm32f4xx_hal_i2c.o(i._ZN41_INTERNAL_19_stm32f4xx_hal_i2c_c_0eb271f426I2C_WaitOnFlagUntilTimeoutEP19__I2C_HandleTypeDefj10FlagStatusjj) for [local to stm32f4xx_hal_i2c_c]::I2C_WaitOnFlagUntilTimeout(__I2C_HandleTypeDef*, unsigned, FlagStatus, unsigned, unsigned)
    stm32f4xx_hal_i2c.o(i._ZN41_INTERNAL_19_stm32f4xx_hal_i2c_c_0eb271f422I2C_RequestMemoryWriteEP19__I2C_HandleTypeDeftttjj) refers to stm32f4xx_hal_i2c.o(i._ZN41_INTERNAL_19_stm32f4xx_hal_i2c_c_0eb271f439I2C_WaitOnMasterAddressFlagUntilTimeoutEP19__I2C_HandleTypeDefjjj) for [local to stm32f4xx_hal_i2c_c]::I2C_WaitOnMasterAddressFlagUntilTimeout(__I2C_HandleTypeDef*, unsigned, unsigned, unsigned)
    stm32f4xx_hal_i2c.o(i._ZN41_INTERNAL_19_stm32f4xx_hal_i2c_c_0eb271f422I2C_RequestMemoryWriteEP19__I2C_HandleTypeDeftttjj) refers to stm32f4xx_hal_i2c.o(i._ZN41_INTERNAL_19_stm32f4xx_hal_i2c_c_0eb271f429I2C_WaitOnTXEFlagUntilTimeoutEP19__I2C_HandleTypeDefjj) for [local to stm32f4xx_hal_i2c_c]::I2C_WaitOnTXEFlagUntilTimeout(__I2C_HandleTypeDef*, unsigned, unsigned)
    stm32f4xx_hal_i2c.o(i._ZN41_INTERNAL_19_stm32f4xx_hal_i2c_c_0eb271f426I2C_WaitOnFlagUntilTimeoutEP19__I2C_HandleTypeDefj10FlagStatusjj) refers to stm32f4xx_hal.o(i.HAL_GetTick) for HAL_GetTick
    stm32f4xx_hal_i2c.o(i._ZN41_INTERNAL_19_stm32f4xx_hal_i2c_c_0eb271f429I2C_WaitOnBTFFlagUntilTimeoutEP19__I2C_HandleTypeDefjj) refers to stm32f4xx_hal_i2c.o(i._ZN41_INTERNAL_19_stm32f4xx_hal_i2c_c_0eb271f423I2C_IsAcknowledgeFailedEP19__I2C_HandleTypeDef) for [local to stm32f4xx_hal_i2c_c]::I2C_IsAcknowledgeFailed(__I2C_HandleTypeDef*)
    stm32f4xx_hal_i2c.o(i._ZN41_INTERNAL_19_stm32f4xx_hal_i2c_c_0eb271f429I2C_WaitOnBTFFlagUntilTimeoutEP19__I2C_HandleTypeDefjj) refers to stm32f4xx_hal.o(i.HAL_GetTick) for HAL_GetTick
    stm32f4xx_hal_i2c.o(i._ZN41_INTERNAL_19_stm32f4xx_hal_i2c_c_0eb271f429I2C_WaitOnTXEFlagUntilTimeoutEP19__I2C_HandleTypeDefjj) refers to stm32f4xx_hal_i2c.o(i._ZN41_INTERNAL_19_stm32f4xx_hal_i2c_c_0eb271f423I2C_IsAcknowledgeFailedEP19__I2C_HandleTypeDef) for [local to stm32f4xx_hal_i2c_c]::I2C_IsAcknowledgeFailed(__I2C_HandleTypeDef*)
    stm32f4xx_hal_i2c.o(i._ZN41_INTERNAL_19_stm32f4xx_hal_i2c_c_0eb271f429I2C_WaitOnTXEFlagUntilTimeoutEP19__I2C_HandleTypeDefjj) refers to stm32f4xx_hal.o(i.HAL_GetTick) for HAL_GetTick
    stm32f4xx_hal_i2c.o(i._ZN41_INTERNAL_19_stm32f4xx_hal_i2c_c_0eb271f430I2C_WaitOnRXNEFlagUntilTimeoutEP19__I2C_HandleTypeDefjj) refers to stm32f4xx_hal.o(i.HAL_GetTick) for HAL_GetTick
    stm32f4xx_hal_i2c.o(i._ZN41_INTERNAL_19_stm32f4xx_hal_i2c_c_0eb271f439I2C_WaitOnMasterAddressFlagUntilTimeoutEP19__I2C_HandleTypeDefjjj) refers to stm32f4xx_hal.o(i.HAL_GetTick) for HAL_GetTick
    stm32f4xx_hal_i2c.o(.ARM.exidx) refers to stm32f4xx_hal_i2c.o(i.HAL_I2C_MspInit) for i.HAL_I2C_MspInit
    stm32f4xx_hal_i2c.o(.ARM.exidx) refers to stm32f4xx_hal_i2c.o(i.HAL_I2C_Init) for i.HAL_I2C_Init
    stm32f4xx_hal_i2c.o(.ARM.exidx) refers to unwind_pr0.o(.text) for __aeabi_unwind_cpp_pr0
    stm32f4xx_hal_i2c.o(.ARM.exidx) refers to stm32f4xx_hal_i2c.o(i.HAL_I2C_MspDeInit) for i.HAL_I2C_MspDeInit
    stm32f4xx_hal_i2c.o(.ARM.exidx) refers to stm32f4xx_hal_i2c.o(i.HAL_I2C_DeInit) for i.HAL_I2C_DeInit
    stm32f4xx_hal_i2c.o(.ARM.exidx) refers to unwind_pr0.o(.text) for __aeabi_unwind_cpp_pr0
    stm32f4xx_hal_i2c.o(.ARM.exidx) refers to stm32f4xx_hal_i2c.o(i._ZN41_INTERNAL_19_stm32f4xx_hal_i2c_c_0eb271f423I2C_IsAcknowledgeFailedEP19__I2C_HandleTypeDef) for i._ZN41_INTERNAL_19_stm32f4xx_hal_i2c_c_0eb271f423I2C_IsAcknowledgeFailedEP19__I2C_HandleTypeDef
    stm32f4xx_hal_i2c.o(.ARM.exidx) refers to stm32f4xx_hal_i2c.o(i._ZN41_INTERNAL_19_stm32f4xx_hal_i2c_c_0eb271f429I2C_WaitOnBTFFlagUntilTimeoutEP19__I2C_HandleTypeDefjj) for i._ZN41_INTERNAL_19_stm32f4xx_hal_i2c_c_0eb271f429I2C_WaitOnBTFFlagUntilTimeoutEP19__I2C_HandleTypeDefjj
    stm32f4xx_hal_i2c.o(.ARM.exidx) refers to unwind_pr0.o(.text) for __aeabi_unwind_cpp_pr0
    stm32f4xx_hal_i2c.o(.ARM.exidx) refers to stm32f4xx_hal_i2c.o(i._ZN41_INTERNAL_19_stm32f4xx_hal_i2c_c_0eb271f429I2C_WaitOnTXEFlagUntilTimeoutEP19__I2C_HandleTypeDefjj) for i._ZN41_INTERNAL_19_stm32f4xx_hal_i2c_c_0eb271f429I2C_WaitOnTXEFlagUntilTimeoutEP19__I2C_HandleTypeDefjj
    stm32f4xx_hal_i2c.o(.ARM.exidx) refers to unwind_pr0.o(.text) for __aeabi_unwind_cpp_pr0
    stm32f4xx_hal_i2c.o(.ARM.exidx) refers to stm32f4xx_hal_i2c.o(i._ZN41_INTERNAL_19_stm32f4xx_hal_i2c_c_0eb271f439I2C_WaitOnMasterAddressFlagUntilTimeoutEP19__I2C_HandleTypeDefjjj) for i._ZN41_INTERNAL_19_stm32f4xx_hal_i2c_c_0eb271f439I2C_WaitOnMasterAddressFlagUntilTimeoutEP19__I2C_HandleTypeDefjjj
    stm32f4xx_hal_i2c.o(.ARM.exidx) refers to unwind_pr0.o(.text) for __aeabi_unwind_cpp_pr0
    stm32f4xx_hal_i2c.o(.ARM.exidx) refers to stm32f4xx_hal_i2c.o(i._ZN41_INTERNAL_19_stm32f4xx_hal_i2c_c_0eb271f426I2C_WaitOnFlagUntilTimeoutEP19__I2C_HandleTypeDefj10FlagStatusjj) for i._ZN41_INTERNAL_19_stm32f4xx_hal_i2c_c_0eb271f426I2C_WaitOnFlagUntilTimeoutEP19__I2C_HandleTypeDefj10FlagStatusjj
    stm32f4xx_hal_i2c.o(.ARM.exidx) refers to unwind_pr0.o(.text) for __aeabi_unwind_cpp_pr0
    stm32f4xx_hal_i2c.o(.ARM.exidx) refers to stm32f4xx_hal_i2c.o(i.HAL_I2C_Master_Transmit) for i.HAL_I2C_Master_Transmit
    stm32f4xx_hal_i2c.o(.ARM.exidx) refers to unwind_pr0.o(.text) for __aeabi_unwind_cpp_pr0
    stm32f4xx_hal_i2c.o(.ARM.exidx) refers to stm32f4xx_hal_i2c.o(i._ZN41_INTERNAL_19_stm32f4xx_hal_i2c_c_0eb271f430I2C_WaitOnRXNEFlagUntilTimeoutEP19__I2C_HandleTypeDefjj) for i._ZN41_INTERNAL_19_stm32f4xx_hal_i2c_c_0eb271f430I2C_WaitOnRXNEFlagUntilTimeoutEP19__I2C_HandleTypeDefjj
    stm32f4xx_hal_i2c.o(.ARM.exidx) refers to unwind_pr0.o(.text) for __aeabi_unwind_cpp_pr0
    stm32f4xx_hal_i2c.o(.ARM.exidx) refers to stm32f4xx_hal_i2c.o(i._ZN41_INTERNAL_19_stm32f4xx_hal_i2c_c_0eb271f421I2C_MasterRequestReadEP19__I2C_HandleTypeDeftjj) for i._ZN41_INTERNAL_19_stm32f4xx_hal_i2c_c_0eb271f421I2C_MasterRequestReadEP19__I2C_HandleTypeDeftjj
    stm32f4xx_hal_i2c.o(.ARM.exidx) refers to unwind_pr0.o(.text) for __aeabi_unwind_cpp_pr0
    stm32f4xx_hal_i2c.o(.ARM.exidx) refers to stm32f4xx_hal_i2c.o(i.HAL_I2C_Master_Receive) for i.HAL_I2C_Master_Receive
    stm32f4xx_hal_i2c.o(.ARM.exidx) refers to unwind_pr0.o(.text) for __aeabi_unwind_cpp_pr0
    stm32f4xx_hal_i2c.o(.ARM.exidx) refers to stm32f4xx_hal_i2c.o(i.HAL_I2C_Slave_Transmit) for i.HAL_I2C_Slave_Transmit
    stm32f4xx_hal_i2c.o(.ARM.exidx) refers to unwind_pr0.o(.text) for __aeabi_unwind_cpp_pr0
    stm32f4xx_hal_i2c.o(.ARM.exidx) refers to stm32f4xx_hal_i2c.o(i.HAL_I2C_Slave_Receive) for i.HAL_I2C_Slave_Receive
    stm32f4xx_hal_i2c.o(.ARM.exidx) refers to unwind_pr0.o(.text) for __aeabi_unwind_cpp_pr0
    stm32f4xx_hal_i2c.o(.ARM.exidx) refers to stm32f4xx_hal_i2c.o(i.HAL_I2C_Master_Transmit_IT) for i.HAL_I2C_Master_Transmit_IT
    stm32f4xx_hal_i2c.o(.ARM.exidx) refers to stm32f4xx_hal_i2c.o(i.HAL_I2C_Master_Receive_IT) for i.HAL_I2C_Master_Receive_IT
    stm32f4xx_hal_i2c.o(.ARM.exidx) refers to stm32f4xx_hal_i2c.o(i.HAL_I2C_Slave_Transmit_IT) for i.HAL_I2C_Slave_Transmit_IT
    stm32f4xx_hal_i2c.o(.ARM.exidx) refers to stm32f4xx_hal_i2c.o(i.HAL_I2C_Slave_Receive_IT) for i.HAL_I2C_Slave_Receive_IT
    stm32f4xx_hal_i2c.o(.ARM.exidx) refers to stm32f4xx_hal_i2c.o(i.HAL_I2C_ErrorCallback) for i.HAL_I2C_ErrorCallback
    stm32f4xx_hal_i2c.o(.ARM.exidx) refers to stm32f4xx_hal_i2c.o(i._ZN41_INTERNAL_19_stm32f4xx_hal_i2c_c_0eb271f412I2C_DMAErrorEP19__DMA_HandleTypeDef) for i._ZN41_INTERNAL_19_stm32f4xx_hal_i2c_c_0eb271f412I2C_DMAErrorEP19__DMA_HandleTypeDef
    stm32f4xx_hal_i2c.o(.ARM.exidx) refers to unwind_pr0.o(.text) for __aeabi_unwind_cpp_pr0
    stm32f4xx_hal_i2c.o(.ARM.exidx) refers to stm32f4xx_hal_i2c.o(i.HAL_I2C_MasterRxCpltCallback) for i.HAL_I2C_MasterRxCpltCallback
    stm32f4xx_hal_i2c.o(.ARM.exidx) refers to stm32f4xx_hal_i2c.o(i.HAL_I2C_MemRxCpltCallback) for i.HAL_I2C_MemRxCpltCallback
    stm32f4xx_hal_i2c.o(.ARM.exidx) refers to stm32f4xx_hal_i2c.o(i.HAL_I2C_SlaveRxCpltCallback) for i.HAL_I2C_SlaveRxCpltCallback
    stm32f4xx_hal_i2c.o(.ARM.exidx) refers to stm32f4xx_hal_i2c.o(i.HAL_I2C_SlaveTxCpltCallback) for i.HAL_I2C_SlaveTxCpltCallback
    stm32f4xx_hal_i2c.o(.ARM.exidx) refers to stm32f4xx_hal_i2c.o(i._ZN41_INTERNAL_19_stm32f4xx_hal_i2c_c_0eb271f415I2C_DMAXferCpltEP19__DMA_HandleTypeDef) for i._ZN41_INTERNAL_19_stm32f4xx_hal_i2c_c_0eb271f415I2C_DMAXferCpltEP19__DMA_HandleTypeDef
    stm32f4xx_hal_i2c.o(.ARM.exidx) refers to unwind_pr0.o(.text) for __aeabi_unwind_cpp_pr0
    stm32f4xx_hal_i2c.o(.ARM.exidx) refers to stm32f4xx_hal_i2c.o(i.HAL_I2C_Master_Transmit_DMA) for i.HAL_I2C_Master_Transmit_DMA
    stm32f4xx_hal_i2c.o(.ARM.exidx) refers to unwind_pr0.o(.text) for __aeabi_unwind_cpp_pr0
    stm32f4xx_hal_i2c.o(.ARM.exidx) refers to stm32f4xx_hal_i2c.o(i.HAL_I2C_Master_Receive_DMA) for i.HAL_I2C_Master_Receive_DMA
    stm32f4xx_hal_i2c.o(.ARM.exidx) refers to unwind_pr0.o(.text) for __aeabi_unwind_cpp_pr0
    stm32f4xx_hal_i2c.o(.ARM.exidx) refers to stm32f4xx_hal_i2c.o(i.HAL_I2C_Slave_Transmit_DMA) for i.HAL_I2C_Slave_Transmit_DMA
    stm32f4xx_hal_i2c.o(.ARM.exidx) refers to unwind_pr0.o(.text) for __aeabi_unwind_cpp_pr0
    stm32f4xx_hal_i2c.o(.ARM.exidx) refers to stm32f4xx_hal_i2c.o(i.HAL_I2C_Slave_Receive_DMA) for i.HAL_I2C_Slave_Receive_DMA
    stm32f4xx_hal_i2c.o(.ARM.exidx) refers to unwind_pr0.o(.text) for __aeabi_unwind_cpp_pr0
    stm32f4xx_hal_i2c.o(.ARM.exidx) refers to stm32f4xx_hal_i2c.o(i._ZN41_INTERNAL_19_stm32f4xx_hal_i2c_c_0eb271f422I2C_RequestMemoryWriteEP19__I2C_HandleTypeDeftttjj) for i._ZN41_INTERNAL_19_stm32f4xx_hal_i2c_c_0eb271f422I2C_RequestMemoryWriteEP19__I2C_HandleTypeDeftttjj
    stm32f4xx_hal_i2c.o(.ARM.exidx) refers to unwind_pr0.o(.text) for __aeabi_unwind_cpp_pr0
    stm32f4xx_hal_i2c.o(.ARM.exidx) refers to stm32f4xx_hal_i2c.o(i.HAL_I2C_Mem_Write) for i.HAL_I2C_Mem_Write
    stm32f4xx_hal_i2c.o(.ARM.exidx) refers to unwind_pr0.o(.text) for __aeabi_unwind_cpp_pr0
    stm32f4xx_hal_i2c.o(.ARM.exidx) refers to stm32f4xx_hal_i2c.o(i._ZN41_INTERNAL_19_stm32f4xx_hal_i2c_c_0eb271f421I2C_RequestMemoryReadEP19__I2C_HandleTypeDeftttjj) for i._ZN41_INTERNAL_19_stm32f4xx_hal_i2c_c_0eb271f421I2C_RequestMemoryReadEP19__I2C_HandleTypeDeftttjj
    stm32f4xx_hal_i2c.o(.ARM.exidx) refers to unwind_pr0.o(.text) for __aeabi_unwind_cpp_pr0
    stm32f4xx_hal_i2c.o(.ARM.exidx) refers to stm32f4xx_hal_i2c.o(i.HAL_I2C_Mem_Read) for i.HAL_I2C_Mem_Read
    stm32f4xx_hal_i2c.o(.ARM.exidx) refers to unwind_pr0.o(.text) for __aeabi_unwind_cpp_pr0
    stm32f4xx_hal_i2c.o(.ARM.exidx) refers to stm32f4xx_hal_i2c.o(i.HAL_I2C_Mem_Write_IT) for i.HAL_I2C_Mem_Write_IT
    stm32f4xx_hal_i2c.o(.ARM.exidx) refers to stm32f4xx_hal_i2c.o(i.HAL_I2C_Mem_Read_IT) for i.HAL_I2C_Mem_Read_IT
    stm32f4xx_hal_i2c.o(.ARM.exidx) refers to stm32f4xx_hal_i2c.o(i.HAL_I2C_Mem_Write_DMA) for i.HAL_I2C_Mem_Write_DMA
    stm32f4xx_hal_i2c.o(.ARM.exidx) refers to unwind_pr0.o(.text) for __aeabi_unwind_cpp_pr0
    stm32f4xx_hal_i2c.o(.ARM.exidx) refers to stm32f4xx_hal_i2c.o(i.HAL_I2C_Mem_Read_DMA) for i.HAL_I2C_Mem_Read_DMA
    stm32f4xx_hal_i2c.o(.ARM.exidx) refers to unwind_pr0.o(.text) for __aeabi_unwind_cpp_pr0
    stm32f4xx_hal_i2c.o(.ARM.exidx) refers to stm32f4xx_hal_i2c.o(i.HAL_I2C_IsDeviceReady) for i.HAL_I2C_IsDeviceReady
    stm32f4xx_hal_i2c.o(.ARM.exidx) refers to unwind_pr0.o(.text) for __aeabi_unwind_cpp_pr0
    stm32f4xx_hal_i2c.o(.ARM.exidx) refers to stm32f4xx_hal_i2c.o(i.HAL_I2C_Master_Seq_Transmit_IT) for i.HAL_I2C_Master_Seq_Transmit_IT
    stm32f4xx_hal_i2c.o(.ARM.exidx) refers to stm32f4xx_hal_i2c.o(i.HAL_I2C_Master_Seq_Transmit_DMA) for i.HAL_I2C_Master_Seq_Transmit_DMA
    stm32f4xx_hal_i2c.o(.ARM.exidx) refers to unwind_pr0.o(.text) for __aeabi_unwind_cpp_pr0
    stm32f4xx_hal_i2c.o(.ARM.exidx) refers to stm32f4xx_hal_i2c.o(i.HAL_I2C_Master_Seq_Receive_IT) for i.HAL_I2C_Master_Seq_Receive_IT
    stm32f4xx_hal_i2c.o(.ARM.exidx) refers to stm32f4xx_hal_i2c.o(i.HAL_I2C_Master_Seq_Receive_DMA) for i.HAL_I2C_Master_Seq_Receive_DMA
    stm32f4xx_hal_i2c.o(.ARM.exidx) refers to unwind_pr0.o(.text) for __aeabi_unwind_cpp_pr0
    stm32f4xx_hal_i2c.o(.ARM.exidx) refers to stm32f4xx_hal_i2c.o(i.HAL_I2C_Slave_Seq_Transmit_IT) for i.HAL_I2C_Slave_Seq_Transmit_IT
    stm32f4xx_hal_i2c.o(.ARM.exidx) refers to stm32f4xx_hal_i2c.o(i.HAL_I2C_AbortCpltCallback) for i.HAL_I2C_AbortCpltCallback
    stm32f4xx_hal_i2c.o(.ARM.exidx) refers to stm32f4xx_hal_i2c.o(i._ZN41_INTERNAL_19_stm32f4xx_hal_i2c_c_0eb271f412I2C_DMAAbortEP19__DMA_HandleTypeDef) for i._ZN41_INTERNAL_19_stm32f4xx_hal_i2c_c_0eb271f412I2C_DMAAbortEP19__DMA_HandleTypeDef
    stm32f4xx_hal_i2c.o(.ARM.exidx) refers to unwind_pr0.o(.text) for __aeabi_unwind_cpp_pr0
    stm32f4xx_hal_i2c.o(.ARM.exidx) refers to stm32f4xx_hal_i2c.o(i.HAL_I2C_Slave_Seq_Transmit_DMA) for i.HAL_I2C_Slave_Seq_Transmit_DMA
    stm32f4xx_hal_i2c.o(.ARM.exidx) refers to unwind_pr0.o(.text) for __aeabi_unwind_cpp_pr0
    stm32f4xx_hal_i2c.o(.ARM.exidx) refers to stm32f4xx_hal_i2c.o(i.HAL_I2C_Slave_Seq_Receive_IT) for i.HAL_I2C_Slave_Seq_Receive_IT
    stm32f4xx_hal_i2c.o(.ARM.exidx) refers to stm32f4xx_hal_i2c.o(i.HAL_I2C_Slave_Seq_Receive_DMA) for i.HAL_I2C_Slave_Seq_Receive_DMA
    stm32f4xx_hal_i2c.o(.ARM.exidx) refers to unwind_pr0.o(.text) for __aeabi_unwind_cpp_pr0
    stm32f4xx_hal_i2c.o(.ARM.exidx) refers to stm32f4xx_hal_i2c.o(i.HAL_I2C_EnableListen_IT) for i.HAL_I2C_EnableListen_IT
    stm32f4xx_hal_i2c.o(.ARM.exidx) refers to stm32f4xx_hal_i2c.o(i.HAL_I2C_DisableListen_IT) for i.HAL_I2C_DisableListen_IT
    stm32f4xx_hal_i2c.o(.ARM.exidx) refers to stm32f4xx_hal_i2c.o(i.HAL_I2C_ListenCpltCallback) for i.HAL_I2C_ListenCpltCallback
    stm32f4xx_hal_i2c.o(.ARM.exidx) refers to stm32f4xx_hal_i2c.o(i._ZN41_INTERNAL_19_stm32f4xx_hal_i2c_c_0eb271f411I2C_ITErrorEP19__I2C_HandleTypeDef) for i._ZN41_INTERNAL_19_stm32f4xx_hal_i2c_c_0eb271f411I2C_ITErrorEP19__I2C_HandleTypeDef
    stm32f4xx_hal_i2c.o(.ARM.exidx) refers to unwind_pr0.o(.text) for __aeabi_unwind_cpp_pr0
    stm32f4xx_hal_i2c.o(.ARM.exidx) refers to stm32f4xx_hal_i2c.o(i.HAL_I2C_Master_Abort_IT) for i.HAL_I2C_Master_Abort_IT
    stm32f4xx_hal_i2c.o(.ARM.exidx) refers to unwind_pr0.o(.text) for __aeabi_unwind_cpp_pr0
    stm32f4xx_hal_i2c.o(.ARM.exidx) refers to stm32f4xx_hal_i2c.o(i._ZN41_INTERNAL_19_stm32f4xx_hal_i2c_c_0eb271f415I2C_Slave_STOPFEP19__I2C_HandleTypeDef) for i._ZN41_INTERNAL_19_stm32f4xx_hal_i2c_c_0eb271f415I2C_Slave_STOPFEP19__I2C_HandleTypeDef
    stm32f4xx_hal_i2c.o(.ARM.exidx) refers to unwind_pr0.o(.text) for __aeabi_unwind_cpp_pr0
    stm32f4xx_hal_i2c.o(.ARM.exidx) refers to stm32f4xx_hal_i2c.o(i.HAL_I2C_AddrCallback) for i.HAL_I2C_AddrCallback
    stm32f4xx_hal_i2c.o(.ARM.exidx) refers to stm32f4xx_hal_i2c.o(i._ZN41_INTERNAL_19_stm32f4xx_hal_i2c_c_0eb271f421I2C_MasterReceive_BTFEP19__I2C_HandleTypeDef) for i._ZN41_INTERNAL_19_stm32f4xx_hal_i2c_c_0eb271f421I2C_MasterReceive_BTFEP19__I2C_HandleTypeDef
    stm32f4xx_hal_i2c.o(.ARM.exidx) refers to unwind_pr0.o(.text) for __aeabi_unwind_cpp_pr0
    stm32f4xx_hal_i2c.o(.ARM.exidx) refers to stm32f4xx_hal_i2c.o(i._ZN41_INTERNAL_19_stm32f4xx_hal_i2c_c_0eb271f426I2C_MemoryTransmit_TXE_BTFEP19__I2C_HandleTypeDef) for i._ZN41_INTERNAL_19_stm32f4xx_hal_i2c_c_0eb271f426I2C_MemoryTransmit_TXE_BTFEP19__I2C_HandleTypeDef
    stm32f4xx_hal_i2c.o(.ARM.exidx) refers to stm32f4xx_hal_i2c.o(i.HAL_I2C_MasterTxCpltCallback) for i.HAL_I2C_MasterTxCpltCallback
    stm32f4xx_hal_i2c.o(.ARM.exidx) refers to stm32f4xx_hal_i2c.o(i.HAL_I2C_MemTxCpltCallback) for i.HAL_I2C_MemTxCpltCallback
    stm32f4xx_hal_i2c.o(.ARM.exidx) refers to stm32f4xx_hal_i2c.o(i._ZN41_INTERNAL_19_stm32f4xx_hal_i2c_c_0eb271f415I2C_Master_ADDREP19__I2C_HandleTypeDef) for i._ZN41_INTERNAL_19_stm32f4xx_hal_i2c_c_0eb271f415I2C_Master_ADDREP19__I2C_HandleTypeDef
    stm32f4xx_hal_i2c.o(.ARM.exidx) refers to stm32f4xx_hal_i2c.o(i.HAL_I2C_EV_IRQHandler) for i.HAL_I2C_EV_IRQHandler
    stm32f4xx_hal_i2c.o(.ARM.exidx) refers to unwind_pr0.o(.text) for __aeabi_unwind_cpp_pr0
    stm32f4xx_hal_i2c.o(.ARM.exidx) refers to stm32f4xx_hal_i2c.o(i.HAL_I2C_ER_IRQHandler) for i.HAL_I2C_ER_IRQHandler
    stm32f4xx_hal_i2c.o(.ARM.exidx) refers to unwind_pr0.o(.text) for __aeabi_unwind_cpp_pr0
    stm32f4xx_hal_i2c.o(.ARM.exidx) refers to stm32f4xx_hal_i2c.o(i.HAL_I2C_GetState) for i.HAL_I2C_GetState
    stm32f4xx_hal_i2c.o(.ARM.exidx) refers to stm32f4xx_hal_i2c.o(i.HAL_I2C_GetMode) for i.HAL_I2C_GetMode
    stm32f4xx_hal_i2c.o(.ARM.exidx) refers to stm32f4xx_hal_i2c.o(i.HAL_I2C_GetError) for i.HAL_I2C_GetError
    stm32f4xx_hal_i2c.o(.ARM.exidx) refers to stm32f4xx_hal_i2c.o(i._ZN41_INTERNAL_19_stm32f4xx_hal_i2c_c_0eb271f422I2C_MasterRequestWriteEP19__I2C_HandleTypeDeftjj) for i._ZN41_INTERNAL_19_stm32f4xx_hal_i2c_c_0eb271f422I2C_MasterRequestWriteEP19__I2C_HandleTypeDeftjj
    stm32f4xx_hal_i2c.o(.ARM.exidx) refers to unwind_pr0.o(.text) for __aeabi_unwind_cpp_pr0
    stm32f4xx_hal_i2c.o(.ARM.exidx) refers to stm32f4xx_hal_i2c.o(i._ZN41_INTERNAL_19_stm32f4xx_hal_i2c_c_0eb271f422I2C_MasterReceive_RXNEEP19__I2C_HandleTypeDef) for i._ZN41_INTERNAL_19_stm32f4xx_hal_i2c_c_0eb271f422I2C_MasterReceive_RXNEEP19__I2C_HandleTypeDef
    stm32f4xx_hal_i2c.o(.ARM.exidx) refers to unwind_pr0.o(.text) for __aeabi_unwind_cpp_pr0
    stm32f4xx_hal_i2c.o(.ARM.exidx) refers to stm32f4xx_hal_i2c.o(i._ZN41_INTERNAL_19_stm32f4xx_hal_i2c_c_0eb271f422I2C_MasterTransmit_BTFEP19__I2C_HandleTypeDef) for i._ZN41_INTERNAL_19_stm32f4xx_hal_i2c_c_0eb271f422I2C_MasterTransmit_BTFEP19__I2C_HandleTypeDef
    stm32f4xx_hal_i2c.o(.ARM.exidx) refers to unwind_pr0.o(.text) for __aeabi_unwind_cpp_pr0
    stm32f4xx_hal_i2c.o(.ARM.exidx) refers to stm32f4xx_hal_i2c.o(i._ZN41_INTERNAL_19_stm32f4xx_hal_i2c_c_0eb271f422I2C_MasterTransmit_TXEEP19__I2C_HandleTypeDef) for i._ZN41_INTERNAL_19_stm32f4xx_hal_i2c_c_0eb271f422I2C_MasterTransmit_TXEEP19__I2C_HandleTypeDef
    stm32f4xx_hal_i2c.o(.ARM.exidx) refers to unwind_pr0.o(.text) for __aeabi_unwind_cpp_pr0
    stm32f4xx_hal_i2c.o(.ARM.exidx) refers to stm32f4xx_hal_i2c.o(i._ZN41_INTERNAL_19_stm32f4xx_hal_i2c_c_0eb271f413I2C_Master_SBEP19__I2C_HandleTypeDef) for i._ZN41_INTERNAL_19_stm32f4xx_hal_i2c_c_0eb271f413I2C_Master_SBEP19__I2C_HandleTypeDef
    stm32f4xx_hal_i2c.o(.ARM.exidx) refers to stm32f4xx_hal_i2c.o(i._ZN41_INTERNAL_19_stm32f4xx_hal_i2c_c_0eb271f412I2C_Slave_AFEP19__I2C_HandleTypeDef) for i._ZN41_INTERNAL_19_stm32f4xx_hal_i2c_c_0eb271f412I2C_Slave_AFEP19__I2C_HandleTypeDef
    stm32f4xx_hal_i2c.o(.ARM.exidx) refers to unwind_pr0.o(.text) for __aeabi_unwind_cpp_pr0
    stm32f4xx_hal_i2c_ex.o(.ARM.exidx) refers to stm32f4xx_hal_i2c_ex.o(.rev16_text) for __asm___22_stm32f4xx_hal_i2c_ex_c___ZN35_INTERNAL_22_stm32f4xx_hal_i2c_ex_c7__REV16Ej
    stm32f4xx_hal_i2c_ex.o(.ARM.exidx) refers to stm32f4xx_hal_i2c_ex.o(.revsh_text) for __asm___22_stm32f4xx_hal_i2c_ex_c___ZN35_INTERNAL_22_stm32f4xx_hal_i2c_ex_c7__REVSHEs
    stm32f4xx_hal_i2c_ex.o(.ARM.exidx) refers to stm32f4xx_hal_i2c_ex.o(.rrx_text) for __asm___22_stm32f4xx_hal_i2c_ex_c___ZN35_INTERNAL_22_stm32f4xx_hal_i2c_ex_c5__RRXEj
    stm32f4xx_hal_rcc.o(.ARM.exidx) refers to stm32f4xx_hal_rcc.o(.rev16_text) for __asm___19_stm32f4xx_hal_rcc_c_b7071a4b___ZN41_INTERNAL_19_stm32f4xx_hal_rcc_c_b7071a4b7__REV16Ej
    stm32f4xx_hal_rcc.o(.ARM.exidx) refers to stm32f4xx_hal_rcc.o(.revsh_text) for __asm___19_stm32f4xx_hal_rcc_c_b7071a4b___ZN41_INTERNAL_19_stm32f4xx_hal_rcc_c_b7071a4b7__REVSHEs
    stm32f4xx_hal_rcc.o(.ARM.exidx) refers to stm32f4xx_hal_rcc.o(.rrx_text) for __asm___19_stm32f4xx_hal_rcc_c_b7071a4b___ZN41_INTERNAL_19_stm32f4xx_hal_rcc_c_b7071a4b5__RRXEj
    stm32f4xx_hal_rcc.o(i.HAL_RCC_ClockConfig) refers to stm32f4xx_hal.o(i.HAL_GetTick) for HAL_GetTick
    stm32f4xx_hal_rcc.o(i.HAL_RCC_ClockConfig) refers to stm32f4xx_hal_rcc.o(i.HAL_RCC_GetSysClockFreq) for HAL_RCC_GetSysClockFreq
    stm32f4xx_hal_rcc.o(i.HAL_RCC_ClockConfig) refers to stm32f4xx_hal.o(i.HAL_InitTick) for HAL_InitTick
    stm32f4xx_hal_rcc.o(i.HAL_RCC_ClockConfig) refers to system_stm32f4xx.o(.constdata) for AHBPrescTable
    stm32f4xx_hal_rcc.o(i.HAL_RCC_ClockConfig) refers to system_stm32f4xx.o(.data) for SystemCoreClock
    stm32f4xx_hal_rcc.o(i.HAL_RCC_ClockConfig) refers to stm32f4xx_hal.o(.data) for uwTickPrio
    stm32f4xx_hal_rcc.o(i.HAL_RCC_GetHCLKFreq) refers to system_stm32f4xx.o(.data) for SystemCoreClock
    stm32f4xx_hal_rcc.o(i.HAL_RCC_GetPCLK1Freq) refers to system_stm32f4xx.o(.data) for SystemCoreClock
    stm32f4xx_hal_rcc.o(i.HAL_RCC_GetPCLK1Freq) refers to system_stm32f4xx.o(.constdata) for APBPrescTable
    stm32f4xx_hal_rcc.o(i.HAL_RCC_GetPCLK2Freq) refers to system_stm32f4xx.o(.data) for SystemCoreClock
    stm32f4xx_hal_rcc.o(i.HAL_RCC_GetPCLK2Freq) refers to system_stm32f4xx.o(.constdata) for APBPrescTable
    stm32f4xx_hal_rcc.o(i.HAL_RCC_GetSysClockFreq) refers to lludivv7m.o(.text) for __aeabi_uldivmod
    stm32f4xx_hal_rcc.o(i.HAL_RCC_MCOConfig) refers to stm32f4xx_hal_gpio.o(i.HAL_GPIO_Init) for HAL_GPIO_Init
    stm32f4xx_hal_rcc.o(i.HAL_RCC_NMI_IRQHandler) refers to stm32f4xx_hal_rcc.o(i.HAL_RCC_CSSCallback) for HAL_RCC_CSSCallback
    stm32f4xx_hal_rcc.o(i.HAL_RCC_OscConfig) refers to stm32f4xx_hal.o(i.HAL_GetTick) for HAL_GetTick
    stm32f4xx_hal_rcc.o(.ARM.exidx) refers to stm32f4xx_hal_rcc.o(i.HAL_RCC_DeInit) for i.HAL_RCC_DeInit
    stm32f4xx_hal_rcc.o(.ARM.exidx) refers to stm32f4xx_hal_rcc.o(i.HAL_RCC_OscConfig) for i.HAL_RCC_OscConfig
    stm32f4xx_hal_rcc.o(.ARM.exidx) refers to unwind_pr0.o(.text) for __aeabi_unwind_cpp_pr0
    stm32f4xx_hal_rcc.o(.ARM.exidx) refers to stm32f4xx_hal_rcc.o(i.HAL_RCC_GetSysClockFreq) for i.HAL_RCC_GetSysClockFreq
    stm32f4xx_hal_rcc.o(.ARM.exidx) refers to stm32f4xx_hal_rcc.o(i.HAL_RCC_ClockConfig) for i.HAL_RCC_ClockConfig
    stm32f4xx_hal_rcc.o(.ARM.exidx) refers to unwind_pr0.o(.text) for __aeabi_unwind_cpp_pr0
    stm32f4xx_hal_rcc.o(.ARM.exidx) refers to stm32f4xx_hal_rcc.o(i.HAL_RCC_MCOConfig) for i.HAL_RCC_MCOConfig
    stm32f4xx_hal_rcc.o(.ARM.exidx) refers to unwind_pr0.o(.text) for __aeabi_unwind_cpp_pr0
    stm32f4xx_hal_rcc.o(.ARM.exidx) refers to stm32f4xx_hal_rcc.o(i.HAL_RCC_EnableCSS) for i.HAL_RCC_EnableCSS
    stm32f4xx_hal_rcc.o(.ARM.exidx) refers to stm32f4xx_hal_rcc.o(i.HAL_RCC_DisableCSS) for i.HAL_RCC_DisableCSS
    stm32f4xx_hal_rcc.o(.ARM.exidx) refers to stm32f4xx_hal_rcc.o(i.HAL_RCC_GetHCLKFreq) for i.HAL_RCC_GetHCLKFreq
    stm32f4xx_hal_rcc.o(.ARM.exidx) refers to stm32f4xx_hal_rcc.o(i.HAL_RCC_GetPCLK1Freq) for i.HAL_RCC_GetPCLK1Freq
    stm32f4xx_hal_rcc.o(.ARM.exidx) refers to stm32f4xx_hal_rcc.o(i.HAL_RCC_GetPCLK2Freq) for i.HAL_RCC_GetPCLK2Freq
    stm32f4xx_hal_rcc.o(.ARM.exidx) refers to stm32f4xx_hal_rcc.o(i.HAL_RCC_GetOscConfig) for i.HAL_RCC_GetOscConfig
    stm32f4xx_hal_rcc.o(.ARM.exidx) refers to stm32f4xx_hal_rcc.o(i.HAL_RCC_GetClockConfig) for i.HAL_RCC_GetClockConfig
    stm32f4xx_hal_rcc.o(.ARM.exidx) refers to stm32f4xx_hal_rcc.o(i.HAL_RCC_CSSCallback) for i.HAL_RCC_CSSCallback
    stm32f4xx_hal_rcc.o(.ARM.exidx) refers to stm32f4xx_hal_rcc.o(i.HAL_RCC_NMI_IRQHandler) for i.HAL_RCC_NMI_IRQHandler
    stm32f4xx_hal_rcc.o(.ARM.exidx) refers to unwind_pr0.o(.text) for __aeabi_unwind_cpp_pr0
    stm32f4xx_hal_rcc_ex.o(.ARM.exidx) refers to stm32f4xx_hal_rcc_ex.o(.rev16_text) for __asm___22_stm32f4xx_hal_rcc_ex_c_bed13b44___ZN44_INTERNAL_22_stm32f4xx_hal_rcc_ex_c_bed13b447__REV16Ej
    stm32f4xx_hal_rcc_ex.o(.ARM.exidx) refers to stm32f4xx_hal_rcc_ex.o(.revsh_text) for __asm___22_stm32f4xx_hal_rcc_ex_c_bed13b44___ZN44_INTERNAL_22_stm32f4xx_hal_rcc_ex_c_bed13b447__REVSHEs
    stm32f4xx_hal_rcc_ex.o(.ARM.exidx) refers to stm32f4xx_hal_rcc_ex.o(.rrx_text) for __asm___22_stm32f4xx_hal_rcc_ex_c_bed13b44___ZN44_INTERNAL_22_stm32f4xx_hal_rcc_ex_c_bed13b445__RRXEj
    stm32f4xx_hal_rcc_ex.o(i.HAL_RCCEx_DisablePLLI2S) refers to stm32f4xx_hal.o(i.HAL_GetTick) for HAL_GetTick
    stm32f4xx_hal_rcc_ex.o(i.HAL_RCCEx_EnablePLLI2S) refers to stm32f4xx_hal.o(i.HAL_GetTick) for HAL_GetTick
    stm32f4xx_hal_rcc_ex.o(i.HAL_RCCEx_PeriphCLKConfig) refers to stm32f4xx_hal.o(i.HAL_GetTick) for HAL_GetTick
    stm32f4xx_hal_rcc_ex.o(i.HAL_RCC_DeInit) refers to stm32f4xx_hal.o(i.HAL_GetTick) for HAL_GetTick
    stm32f4xx_hal_rcc_ex.o(i.HAL_RCC_DeInit) refers to stm32f4xx_hal.o(i.HAL_InitTick) for HAL_InitTick
    stm32f4xx_hal_rcc_ex.o(i.HAL_RCC_DeInit) refers to system_stm32f4xx.o(.data) for SystemCoreClock
    stm32f4xx_hal_rcc_ex.o(i.HAL_RCC_DeInit) refers to stm32f4xx_hal.o(.data) for uwTickPrio
    stm32f4xx_hal_rcc_ex.o(.ARM.exidx) refers to stm32f4xx_hal_rcc_ex.o(i.HAL_RCCEx_PeriphCLKConfig) for i.HAL_RCCEx_PeriphCLKConfig
    stm32f4xx_hal_rcc_ex.o(.ARM.exidx) refers to unwind_pr0.o(.text) for __aeabi_unwind_cpp_pr0
    stm32f4xx_hal_rcc_ex.o(.ARM.exidx) refers to stm32f4xx_hal_rcc_ex.o(i.HAL_RCCEx_GetPeriphCLKConfig) for i.HAL_RCCEx_GetPeriphCLKConfig
    stm32f4xx_hal_rcc_ex.o(.ARM.exidx) refers to stm32f4xx_hal_rcc_ex.o(i.HAL_RCCEx_GetPeriphCLKFreq) for i.HAL_RCCEx_GetPeriphCLKFreq
    stm32f4xx_hal_rcc_ex.o(.ARM.exidx) refers to stm32f4xx_hal_rcc_ex.o(i.HAL_RCCEx_EnablePLLI2S) for i.HAL_RCCEx_EnablePLLI2S
    stm32f4xx_hal_rcc_ex.o(.ARM.exidx) refers to unwind_pr0.o(.text) for __aeabi_unwind_cpp_pr0
    stm32f4xx_hal_rcc_ex.o(.ARM.exidx) refers to stm32f4xx_hal_rcc_ex.o(i.HAL_RCCEx_DisablePLLI2S) for i.HAL_RCCEx_DisablePLLI2S
    stm32f4xx_hal_rcc_ex.o(.ARM.exidx) refers to unwind_pr0.o(.text) for __aeabi_unwind_cpp_pr0
    stm32f4xx_hal_rcc_ex.o(.ARM.exidx) refers to stm32f4xx_hal_rcc_ex.o(i.HAL_RCC_DeInit) for i.HAL_RCC_DeInit
    stm32f4xx_hal_rcc_ex.o(.ARM.exidx) refers to unwind_pr0.o(.text) for __aeabi_unwind_cpp_pr0
    stm32f4xx_hal_flash.o(.ARM.exidx) refers to stm32f4xx_hal_flash.o(.rev16_text) for __asm___21_stm32f4xx_hal_flash_c_48aa8f3e___ZN43_INTERNAL_21_stm32f4xx_hal_flash_c_48aa8f3e7__REV16Ej
    stm32f4xx_hal_flash.o(.ARM.exidx) refers to stm32f4xx_hal_flash.o(.revsh_text) for __asm___21_stm32f4xx_hal_flash_c_48aa8f3e___ZN43_INTERNAL_21_stm32f4xx_hal_flash_c_48aa8f3e7__REVSHEs
    stm32f4xx_hal_flash.o(.ARM.exidx) refers to stm32f4xx_hal_flash.o(.rrx_text) for __asm___21_stm32f4xx_hal_flash_c_48aa8f3e___ZN43_INTERNAL_21_stm32f4xx_hal_flash_c_48aa8f3e5__RRXEj
    stm32f4xx_hal_flash.o(i.FLASH_WaitForLastOperation) refers to stm32f4xx_hal.o(i.HAL_GetTick) for HAL_GetTick
    stm32f4xx_hal_flash.o(i.FLASH_WaitForLastOperation) refers to stm32f4xx_hal_flash.o(i._ZN43_INTERNAL_21_stm32f4xx_hal_flash_c_48aa8f3e18FLASH_SetErrorCodeEv) for [local to stm32f4xx_hal_flash_c]::FLASH_SetErrorCode()
    stm32f4xx_hal_flash.o(i.FLASH_WaitForLastOperation) refers to stm32f4xx_hal_flash.o(.bss) for .bss
    stm32f4xx_hal_flash.o(i.HAL_FLASH_GetError) refers to stm32f4xx_hal_flash.o(.bss) for .bss
    stm32f4xx_hal_flash.o(i.HAL_FLASH_IRQHandler) refers to stm32f4xx_hal_flash.o(i._ZN43_INTERNAL_21_stm32f4xx_hal_flash_c_48aa8f3e18FLASH_SetErrorCodeEv) for [local to stm32f4xx_hal_flash_c]::FLASH_SetErrorCode()
    stm32f4xx_hal_flash.o(i.HAL_FLASH_IRQHandler) refers to stm32f4xx_hal_flash.o(i.HAL_FLASH_OperationErrorCallback) for HAL_FLASH_OperationErrorCallback
    stm32f4xx_hal_flash.o(i.HAL_FLASH_IRQHandler) refers to stm32f4xx_hal_flash.o(i.HAL_FLASH_EndOfOperationCallback) for HAL_FLASH_EndOfOperationCallback
    stm32f4xx_hal_flash.o(i.HAL_FLASH_IRQHandler) refers to stm32f4xx_hal_flash_ex.o(i.FLASH_Erase_Sector) for FLASH_Erase_Sector
    stm32f4xx_hal_flash.o(i.HAL_FLASH_IRQHandler) refers to stm32f4xx_hal_flash_ex.o(i.FLASH_FlushCaches) for FLASH_FlushCaches
    stm32f4xx_hal_flash.o(i.HAL_FLASH_IRQHandler) refers to stm32f4xx_hal_flash.o(.bss) for .bss
    stm32f4xx_hal_flash.o(i.HAL_FLASH_OB_Launch) refers to stm32f4xx_hal_flash.o(i.FLASH_WaitForLastOperation) for FLASH_WaitForLastOperation
    stm32f4xx_hal_flash.o(i.HAL_FLASH_Program) refers to stm32f4xx_hal_flash.o(i.FLASH_WaitForLastOperation) for FLASH_WaitForLastOperation
    stm32f4xx_hal_flash.o(i.HAL_FLASH_Program) refers to stm32f4xx_hal_flash.o(i._ZN43_INTERNAL_21_stm32f4xx_hal_flash_c_48aa8f3e24FLASH_Program_DoubleWordEjy) for [local to stm32f4xx_hal_flash_c]::FLASH_Program_DoubleWord(unsigned, unsigned long long)
    stm32f4xx_hal_flash.o(i.HAL_FLASH_Program) refers to stm32f4xx_hal_flash.o(i._ZN43_INTERNAL_21_stm32f4xx_hal_flash_c_48aa8f3e18FLASH_Program_ByteEjh) for [local to stm32f4xx_hal_flash_c]::FLASH_Program_Byte(unsigned, unsigned char)
    stm32f4xx_hal_flash.o(i.HAL_FLASH_Program) refers to stm32f4xx_hal_flash.o(i._ZN43_INTERNAL_21_stm32f4xx_hal_flash_c_48aa8f3e22FLASH_Program_HalfWordEjt) for [local to stm32f4xx_hal_flash_c]::FLASH_Program_HalfWord(unsigned, unsigned short)
    stm32f4xx_hal_flash.o(i.HAL_FLASH_Program) refers to stm32f4xx_hal_flash.o(i._ZN43_INTERNAL_21_stm32f4xx_hal_flash_c_48aa8f3e18FLASH_Program_WordEjj) for [local to stm32f4xx_hal_flash_c]::FLASH_Program_Word(unsigned, unsigned)
    stm32f4xx_hal_flash.o(i.HAL_FLASH_Program) refers to stm32f4xx_hal_flash.o(.bss) for .bss
    stm32f4xx_hal_flash.o(i.HAL_FLASH_Program_IT) refers to stm32f4xx_hal_flash.o(i._ZN43_INTERNAL_21_stm32f4xx_hal_flash_c_48aa8f3e24FLASH_Program_DoubleWordEjy) for [local to stm32f4xx_hal_flash_c]::FLASH_Program_DoubleWord(unsigned, unsigned long long)
    stm32f4xx_hal_flash.o(i.HAL_FLASH_Program_IT) refers to stm32f4xx_hal_flash.o(i._ZN43_INTERNAL_21_stm32f4xx_hal_flash_c_48aa8f3e18FLASH_Program_ByteEjh) for [local to stm32f4xx_hal_flash_c]::FLASH_Program_Byte(unsigned, unsigned char)
    stm32f4xx_hal_flash.o(i.HAL_FLASH_Program_IT) refers to stm32f4xx_hal_flash.o(i._ZN43_INTERNAL_21_stm32f4xx_hal_flash_c_48aa8f3e22FLASH_Program_HalfWordEjt) for [local to stm32f4xx_hal_flash_c]::FLASH_Program_HalfWord(unsigned, unsigned short)
    stm32f4xx_hal_flash.o(i.HAL_FLASH_Program_IT) refers to stm32f4xx_hal_flash.o(i._ZN43_INTERNAL_21_stm32f4xx_hal_flash_c_48aa8f3e18FLASH_Program_WordEjj) for [local to stm32f4xx_hal_flash_c]::FLASH_Program_Word(unsigned, unsigned)
    stm32f4xx_hal_flash.o(i.HAL_FLASH_Program_IT) refers to stm32f4xx_hal_flash.o(.bss) for .bss
    stm32f4xx_hal_flash.o(i._ZN43_INTERNAL_21_stm32f4xx_hal_flash_c_48aa8f3e18FLASH_SetErrorCodeEv) refers to stm32f4xx_hal_flash.o(.bss) for .bss
    stm32f4xx_hal_flash.o(.ARM.exidx) refers to stm32f4xx_hal_flash.o(i._ZN43_INTERNAL_21_stm32f4xx_hal_flash_c_48aa8f3e18FLASH_SetErrorCodeEv) for i._ZN43_INTERNAL_21_stm32f4xx_hal_flash_c_48aa8f3e18FLASH_SetErrorCodeEv
    stm32f4xx_hal_flash.o(.ARM.exidx) refers to stm32f4xx_hal_flash.o(i.FLASH_WaitForLastOperation) for i.FLASH_WaitForLastOperation
    stm32f4xx_hal_flash.o(.ARM.exidx) refers to unwind_pr0.o(.text) for __aeabi_unwind_cpp_pr0
    stm32f4xx_hal_flash.o(.ARM.exidx) refers to stm32f4xx_hal_flash.o(i._ZN43_INTERNAL_21_stm32f4xx_hal_flash_c_48aa8f3e24FLASH_Program_DoubleWordEjy) for i._ZN43_INTERNAL_21_stm32f4xx_hal_flash_c_48aa8f3e24FLASH_Program_DoubleWordEjy
    stm32f4xx_hal_flash.o(.ARM.exidx) refers to stm32f4xx_hal_flash.o(i.HAL_FLASH_Program) for i.HAL_FLASH_Program
    stm32f4xx_hal_flash.o(.ARM.exidx) refers to unwind_pr0.o(.text) for __aeabi_unwind_cpp_pr0
    stm32f4xx_hal_flash.o(.ARM.exidx) refers to stm32f4xx_hal_flash.o(i.HAL_FLASH_Program_IT) for i.HAL_FLASH_Program_IT
    stm32f4xx_hal_flash.o(.ARM.exidx) refers to unwind_pr0.o(.text) for __aeabi_unwind_cpp_pr0
    stm32f4xx_hal_flash.o(.ARM.exidx) refers to stm32f4xx_hal_flash.o(i.HAL_FLASH_EndOfOperationCallback) for i.HAL_FLASH_EndOfOperationCallback
    stm32f4xx_hal_flash.o(.ARM.exidx) refers to stm32f4xx_hal_flash.o(i.HAL_FLASH_OperationErrorCallback) for i.HAL_FLASH_OperationErrorCallback
    stm32f4xx_hal_flash.o(.ARM.exidx) refers to stm32f4xx_hal_flash.o(i.HAL_FLASH_IRQHandler) for i.HAL_FLASH_IRQHandler
    stm32f4xx_hal_flash.o(.ARM.exidx) refers to unwind_pr0.o(.text) for __aeabi_unwind_cpp_pr0
    stm32f4xx_hal_flash.o(.ARM.exidx) refers to stm32f4xx_hal_flash.o(i.HAL_FLASH_Unlock) for i.HAL_FLASH_Unlock
    stm32f4xx_hal_flash.o(.ARM.exidx) refers to stm32f4xx_hal_flash.o(i.HAL_FLASH_Lock) for i.HAL_FLASH_Lock
    stm32f4xx_hal_flash.o(.ARM.exidx) refers to stm32f4xx_hal_flash.o(i.HAL_FLASH_OB_Unlock) for i.HAL_FLASH_OB_Unlock
    stm32f4xx_hal_flash.o(.ARM.exidx) refers to stm32f4xx_hal_flash.o(i.HAL_FLASH_OB_Lock) for i.HAL_FLASH_OB_Lock
    stm32f4xx_hal_flash.o(.ARM.exidx) refers to stm32f4xx_hal_flash.o(i.HAL_FLASH_OB_Launch) for i.HAL_FLASH_OB_Launch
    stm32f4xx_hal_flash.o(.ARM.exidx) refers to stm32f4xx_hal_flash.o(i.HAL_FLASH_GetError) for i.HAL_FLASH_GetError
    stm32f4xx_hal_flash.o(.ARM.exidx) refers to stm32f4xx_hal_flash.o(i._ZN43_INTERNAL_21_stm32f4xx_hal_flash_c_48aa8f3e18FLASH_Program_WordEjj) for i._ZN43_INTERNAL_21_stm32f4xx_hal_flash_c_48aa8f3e18FLASH_Program_WordEjj
    stm32f4xx_hal_flash.o(.ARM.exidx) refers to stm32f4xx_hal_flash.o(i._ZN43_INTERNAL_21_stm32f4xx_hal_flash_c_48aa8f3e22FLASH_Program_HalfWordEjt) for i._ZN43_INTERNAL_21_stm32f4xx_hal_flash_c_48aa8f3e22FLASH_Program_HalfWordEjt
    stm32f4xx_hal_flash.o(.ARM.exidx) refers to stm32f4xx_hal_flash.o(i._ZN43_INTERNAL_21_stm32f4xx_hal_flash_c_48aa8f3e18FLASH_Program_ByteEjh) for i._ZN43_INTERNAL_21_stm32f4xx_hal_flash_c_48aa8f3e18FLASH_Program_ByteEjh
    stm32f4xx_hal_flash_ex.o(.ARM.exidx) refers to stm32f4xx_hal_flash_ex.o(.rev16_text) for __asm___24_stm32f4xx_hal_flash_ex_c_6648b60e___ZN46_INTERNAL_24_stm32f4xx_hal_flash_ex_c_6648b60e7__REV16Ej
    stm32f4xx_hal_flash_ex.o(.ARM.exidx) refers to stm32f4xx_hal_flash_ex.o(.revsh_text) for __asm___24_stm32f4xx_hal_flash_ex_c_6648b60e___ZN46_INTERNAL_24_stm32f4xx_hal_flash_ex_c_6648b60e7__REVSHEs
    stm32f4xx_hal_flash_ex.o(.ARM.exidx) refers to stm32f4xx_hal_flash_ex.o(.rrx_text) for __asm___24_stm32f4xx_hal_flash_ex_c_6648b60e___ZN46_INTERNAL_24_stm32f4xx_hal_flash_ex_c_6648b60e5__RRXEj
    stm32f4xx_hal_flash_ex.o(i.HAL_FLASHEx_Erase) refers to stm32f4xx_hal_flash.o(i.FLASH_WaitForLastOperation) for FLASH_WaitForLastOperation
    stm32f4xx_hal_flash_ex.o(i.HAL_FLASHEx_Erase) refers to stm32f4xx_hal_flash_ex.o(i._ZN46_INTERNAL_24_stm32f4xx_hal_flash_ex_c_6648b60e15FLASH_MassEraseEhj) for [local to stm32f4xx_hal_flash_ex_c]::FLASH_MassErase(unsigned char, unsigned)
    stm32f4xx_hal_flash_ex.o(i.HAL_FLASHEx_Erase) refers to stm32f4xx_hal_flash_ex.o(i.FLASH_Erase_Sector) for FLASH_Erase_Sector
    stm32f4xx_hal_flash_ex.o(i.HAL_FLASHEx_Erase) refers to stm32f4xx_hal_flash_ex.o(i.FLASH_FlushCaches) for FLASH_FlushCaches
    stm32f4xx_hal_flash_ex.o(i.HAL_FLASHEx_Erase) refers to stm32f4xx_hal_flash.o(.bss) for pFlash
    stm32f4xx_hal_flash_ex.o(i.HAL_FLASHEx_Erase_IT) refers to stm32f4xx_hal_flash_ex.o(i.FLASH_Erase_Sector) for FLASH_Erase_Sector
    stm32f4xx_hal_flash_ex.o(i.HAL_FLASHEx_Erase_IT) refers to stm32f4xx_hal_flash_ex.o(i._ZN46_INTERNAL_24_stm32f4xx_hal_flash_ex_c_6648b60e15FLASH_MassEraseEhj) for [local to stm32f4xx_hal_flash_ex_c]::FLASH_MassErase(unsigned char, unsigned)
    stm32f4xx_hal_flash_ex.o(i.HAL_FLASHEx_Erase_IT) refers to stm32f4xx_hal_flash.o(.bss) for pFlash
    stm32f4xx_hal_flash_ex.o(i.HAL_FLASHEx_OBProgram) refers to stm32f4xx_hal_flash.o(i.FLASH_WaitForLastOperation) for FLASH_WaitForLastOperation
    stm32f4xx_hal_flash_ex.o(i.HAL_FLASHEx_OBProgram) refers to stm32f4xx_hal_flash.o(.bss) for pFlash
    stm32f4xx_hal_flash_ex.o(.ARM.exidx) refers to stm32f4xx_hal_flash_ex.o(i.FLASH_FlushCaches) for i.FLASH_FlushCaches
    stm32f4xx_hal_flash_ex.o(.ARM.exidx) refers to stm32f4xx_hal_flash_ex.o(i.FLASH_Erase_Sector) for i.FLASH_Erase_Sector
    stm32f4xx_hal_flash_ex.o(.ARM.exidx) refers to stm32f4xx_hal_flash_ex.o(i.HAL_FLASHEx_Erase) for i.HAL_FLASHEx_Erase
    stm32f4xx_hal_flash_ex.o(.ARM.exidx) refers to unwind_pr0.o(.text) for __aeabi_unwind_cpp_pr0
    stm32f4xx_hal_flash_ex.o(.ARM.exidx) refers to stm32f4xx_hal_flash_ex.o(i.HAL_FLASHEx_Erase_IT) for i.HAL_FLASHEx_Erase_IT
    stm32f4xx_hal_flash_ex.o(.ARM.exidx) refers to unwind_pr0.o(.text) for __aeabi_unwind_cpp_pr0
    stm32f4xx_hal_flash_ex.o(.ARM.exidx) refers to stm32f4xx_hal_flash_ex.o(i.HAL_FLASHEx_OBProgram) for i.HAL_FLASHEx_OBProgram
    stm32f4xx_hal_flash_ex.o(.ARM.exidx) refers to unwind_pr0.o(.text) for __aeabi_unwind_cpp_pr0
    stm32f4xx_hal_flash_ex.o(.ARM.exidx) refers to stm32f4xx_hal_flash_ex.o(i.HAL_FLASHEx_OBGetConfig) for i.HAL_FLASHEx_OBGetConfig
    stm32f4xx_hal_flash_ex.o(.ARM.exidx) refers to stm32f4xx_hal_flash_ex.o(i._ZN46_INTERNAL_24_stm32f4xx_hal_flash_ex_c_6648b60e15FLASH_MassEraseEhj) for i._ZN46_INTERNAL_24_stm32f4xx_hal_flash_ex_c_6648b60e15FLASH_MassEraseEhj
    stm32f4xx_hal_flash_ramfunc.o(.ARM.exidx) refers to stm32f4xx_hal_flash_ramfunc.o(.rev16_text) for __asm___29_stm32f4xx_hal_flash_ramfunc_c___ZN42_INTERNAL_29_stm32f4xx_hal_flash_ramfunc_c7__REV16Ej
    stm32f4xx_hal_flash_ramfunc.o(.ARM.exidx) refers to stm32f4xx_hal_flash_ramfunc.o(.revsh_text) for __asm___29_stm32f4xx_hal_flash_ramfunc_c___ZN42_INTERNAL_29_stm32f4xx_hal_flash_ramfunc_c7__REVSHEs
    stm32f4xx_hal_flash_ramfunc.o(.ARM.exidx) refers to stm32f4xx_hal_flash_ramfunc.o(.rrx_text) for __asm___29_stm32f4xx_hal_flash_ramfunc_c___ZN42_INTERNAL_29_stm32f4xx_hal_flash_ramfunc_c5__RRXEj
    stm32f4xx_hal_gpio.o(.ARM.exidx) refers to stm32f4xx_hal_gpio.o(.rev16_text) for __asm___20_stm32f4xx_hal_gpio_c_ea787061___ZN42_INTERNAL_20_stm32f4xx_hal_gpio_c_ea7870617__REV16Ej
    stm32f4xx_hal_gpio.o(.ARM.exidx) refers to stm32f4xx_hal_gpio.o(.revsh_text) for __asm___20_stm32f4xx_hal_gpio_c_ea787061___ZN42_INTERNAL_20_stm32f4xx_hal_gpio_c_ea7870617__REVSHEs
    stm32f4xx_hal_gpio.o(.ARM.exidx) refers to stm32f4xx_hal_gpio.o(.rrx_text) for __asm___20_stm32f4xx_hal_gpio_c_ea787061___ZN42_INTERNAL_20_stm32f4xx_hal_gpio_c_ea7870615__RRXEj
    stm32f4xx_hal_gpio.o(i.HAL_GPIO_EXTI_IRQHandler) refers to stm32f4xx_hal_gpio.o(i.HAL_GPIO_EXTI_Callback) for HAL_GPIO_EXTI_Callback
    stm32f4xx_hal_gpio.o(.ARM.exidx) refers to stm32f4xx_hal_gpio.o(i.HAL_GPIO_Init) for i.HAL_GPIO_Init
    stm32f4xx_hal_gpio.o(.ARM.exidx) refers to stm32f4xx_hal_gpio.o(i.HAL_GPIO_DeInit) for i.HAL_GPIO_DeInit
    stm32f4xx_hal_gpio.o(.ARM.exidx) refers to stm32f4xx_hal_gpio.o(i.HAL_GPIO_ReadPin) for i.HAL_GPIO_ReadPin
    stm32f4xx_hal_gpio.o(.ARM.exidx) refers to stm32f4xx_hal_gpio.o(i.HAL_GPIO_WritePin) for i.HAL_GPIO_WritePin
    stm32f4xx_hal_gpio.o(.ARM.exidx) refers to stm32f4xx_hal_gpio.o(i.HAL_GPIO_TogglePin) for i.HAL_GPIO_TogglePin
    stm32f4xx_hal_gpio.o(.ARM.exidx) refers to stm32f4xx_hal_gpio.o(i.HAL_GPIO_LockPin) for i.HAL_GPIO_LockPin
    stm32f4xx_hal_gpio.o(.ARM.exidx) refers to stm32f4xx_hal_gpio.o(i.HAL_GPIO_EXTI_Callback) for i.HAL_GPIO_EXTI_Callback
    stm32f4xx_hal_gpio.o(.ARM.exidx) refers to stm32f4xx_hal_gpio.o(i.HAL_GPIO_EXTI_IRQHandler) for i.HAL_GPIO_EXTI_IRQHandler
    stm32f4xx_hal_gpio.o(.ARM.exidx) refers to unwind_pr0.o(.text) for __aeabi_unwind_cpp_pr0
    stm32f4xx_hal_dma_ex.o(.ARM.exidx) refers to stm32f4xx_hal_dma_ex.o(.rev16_text) for __asm___22_stm32f4xx_hal_dma_ex_c_af8eecb0___ZN44_INTERNAL_22_stm32f4xx_hal_dma_ex_c_af8eecb07__REV16Ej
    stm32f4xx_hal_dma_ex.o(.ARM.exidx) refers to stm32f4xx_hal_dma_ex.o(.revsh_text) for __asm___22_stm32f4xx_hal_dma_ex_c_af8eecb0___ZN44_INTERNAL_22_stm32f4xx_hal_dma_ex_c_af8eecb07__REVSHEs
    stm32f4xx_hal_dma_ex.o(.ARM.exidx) refers to stm32f4xx_hal_dma_ex.o(.rrx_text) for __asm___22_stm32f4xx_hal_dma_ex_c_af8eecb0___ZN44_INTERNAL_22_stm32f4xx_hal_dma_ex_c_af8eecb05__RRXEj
    stm32f4xx_hal_dma_ex.o(i.HAL_DMAEx_MultiBufferStart) refers to stm32f4xx_hal_dma_ex.o(i._ZN44_INTERNAL_22_stm32f4xx_hal_dma_ex_c_af8eecb024DMA_MultiBufferSetConfigEP19__DMA_HandleTypeDefjjj) for [local to stm32f4xx_hal_dma_ex_c]::DMA_MultiBufferSetConfig(__DMA_HandleTypeDef*, unsigned, unsigned, unsigned)
    stm32f4xx_hal_dma_ex.o(i.HAL_DMAEx_MultiBufferStart_IT) refers to stm32f4xx_hal_dma_ex.o(i._ZN44_INTERNAL_22_stm32f4xx_hal_dma_ex_c_af8eecb024DMA_MultiBufferSetConfigEP19__DMA_HandleTypeDefjjj) for [local to stm32f4xx_hal_dma_ex_c]::DMA_MultiBufferSetConfig(__DMA_HandleTypeDef*, unsigned, unsigned, unsigned)
    stm32f4xx_hal_dma_ex.o(.ARM.exidx) refers to stm32f4xx_hal_dma_ex.o(i.HAL_DMAEx_MultiBufferStart) for i.HAL_DMAEx_MultiBufferStart
    stm32f4xx_hal_dma_ex.o(.ARM.exidx) refers to unwind_pr0.o(.text) for __aeabi_unwind_cpp_pr0
    stm32f4xx_hal_dma_ex.o(.ARM.exidx) refers to stm32f4xx_hal_dma_ex.o(i.HAL_DMAEx_MultiBufferStart_IT) for i.HAL_DMAEx_MultiBufferStart_IT
    stm32f4xx_hal_dma_ex.o(.ARM.exidx) refers to unwind_pr0.o(.text) for __aeabi_unwind_cpp_pr0
    stm32f4xx_hal_dma_ex.o(.ARM.exidx) refers to stm32f4xx_hal_dma_ex.o(i.HAL_DMAEx_ChangeMemory) for i.HAL_DMAEx_ChangeMemory
    stm32f4xx_hal_dma_ex.o(.ARM.exidx) refers to stm32f4xx_hal_dma_ex.o(i._ZN44_INTERNAL_22_stm32f4xx_hal_dma_ex_c_af8eecb024DMA_MultiBufferSetConfigEP19__DMA_HandleTypeDefjjj) for i._ZN44_INTERNAL_22_stm32f4xx_hal_dma_ex_c_af8eecb024DMA_MultiBufferSetConfigEP19__DMA_HandleTypeDefjjj
    stm32f4xx_hal_dma.o(.ARM.exidx) refers to stm32f4xx_hal_dma.o(.rev16_text) for __asm___19_stm32f4xx_hal_dma_c_c25f65ec___ZN41_INTERNAL_19_stm32f4xx_hal_dma_c_c25f65ec7__REV16Ej
    stm32f4xx_hal_dma.o(.ARM.exidx) refers to stm32f4xx_hal_dma.o(.revsh_text) for __asm___19_stm32f4xx_hal_dma_c_c25f65ec___ZN41_INTERNAL_19_stm32f4xx_hal_dma_c_c25f65ec7__REVSHEs
    stm32f4xx_hal_dma.o(.ARM.exidx) refers to stm32f4xx_hal_dma.o(.rrx_text) for __asm___19_stm32f4xx_hal_dma_c_c25f65ec___ZN41_INTERNAL_19_stm32f4xx_hal_dma_c_c25f65ec5__RRXEj
    stm32f4xx_hal_dma.o(i.HAL_DMA_Abort) refers to stm32f4xx_hal.o(i.HAL_GetTick) for HAL_GetTick
    stm32f4xx_hal_dma.o(i.HAL_DMA_DeInit) refers to stm32f4xx_hal_dma.o(i._ZN41_INTERNAL_19_stm32f4xx_hal_dma_c_c25f65ec23DMA_CalcBaseAndBitshiftEP19__DMA_HandleTypeDef) for [local to stm32f4xx_hal_dma_c]::DMA_CalcBaseAndBitshift(__DMA_HandleTypeDef*)
    stm32f4xx_hal_dma.o(i.HAL_DMA_IRQHandler) refers to system_stm32f4xx.o(.data) for SystemCoreClock
    stm32f4xx_hal_dma.o(i.HAL_DMA_Init) refers to stm32f4xx_hal.o(i.HAL_GetTick) for HAL_GetTick
    stm32f4xx_hal_dma.o(i.HAL_DMA_Init) refers to stm32f4xx_hal_dma.o(i._ZN41_INTERNAL_19_stm32f4xx_hal_dma_c_c25f65ec18DMA_CheckFifoParamEP19__DMA_HandleTypeDef) for [local to stm32f4xx_hal_dma_c]::DMA_CheckFifoParam(__DMA_HandleTypeDef*)
    stm32f4xx_hal_dma.o(i.HAL_DMA_Init) refers to stm32f4xx_hal_dma.o(i._ZN41_INTERNAL_19_stm32f4xx_hal_dma_c_c25f65ec23DMA_CalcBaseAndBitshiftEP19__DMA_HandleTypeDef) for [local to stm32f4xx_hal_dma_c]::DMA_CalcBaseAndBitshift(__DMA_HandleTypeDef*)
    stm32f4xx_hal_dma.o(i.HAL_DMA_PollForTransfer) refers to stm32f4xx_hal.o(i.HAL_GetTick) for HAL_GetTick
    stm32f4xx_hal_dma.o(i.HAL_DMA_PollForTransfer) refers to stm32f4xx_hal_dma.o(i.HAL_DMA_Abort) for HAL_DMA_Abort
    stm32f4xx_hal_dma.o(i.HAL_DMA_Start) refers to stm32f4xx_hal_dma.o(i._ZN41_INTERNAL_19_stm32f4xx_hal_dma_c_c25f65ec13DMA_SetConfigEP19__DMA_HandleTypeDefjjj) for [local to stm32f4xx_hal_dma_c]::DMA_SetConfig(__DMA_HandleTypeDef*, unsigned, unsigned, unsigned)
    stm32f4xx_hal_dma.o(i.HAL_DMA_Start_IT) refers to stm32f4xx_hal_dma.o(i._ZN41_INTERNAL_19_stm32f4xx_hal_dma_c_c25f65ec13DMA_SetConfigEP19__DMA_HandleTypeDefjjj) for [local to stm32f4xx_hal_dma_c]::DMA_SetConfig(__DMA_HandleTypeDef*, unsigned, unsigned, unsigned)
    stm32f4xx_hal_dma.o(i._ZN41_INTERNAL_19_stm32f4xx_hal_dma_c_c25f65ec23DMA_CalcBaseAndBitshiftEP19__DMA_HandleTypeDef) refers to stm32f4xx_hal_dma.o(.constdata) for .constdata
    stm32f4xx_hal_dma.o(.ARM.exidx) refers to stm32f4xx_hal_dma.o(i._ZN41_INTERNAL_19_stm32f4xx_hal_dma_c_c25f65ec23DMA_CalcBaseAndBitshiftEP19__DMA_HandleTypeDef) for i._ZN41_INTERNAL_19_stm32f4xx_hal_dma_c_c25f65ec23DMA_CalcBaseAndBitshiftEP19__DMA_HandleTypeDef
    stm32f4xx_hal_dma.o(.ARM.exidx) refers to stm32f4xx_hal_dma.o(i.HAL_DMA_Init) for i.HAL_DMA_Init
    stm32f4xx_hal_dma.o(.ARM.exidx) refers to unwind_pr0.o(.text) for __aeabi_unwind_cpp_pr0
    stm32f4xx_hal_dma.o(.ARM.exidx) refers to stm32f4xx_hal_dma.o(i.HAL_DMA_DeInit) for i.HAL_DMA_DeInit
    stm32f4xx_hal_dma.o(.ARM.exidx) refers to stm32f4xx_hal_dma.o(i._ZN41_INTERNAL_19_stm32f4xx_hal_dma_c_c25f65ec13DMA_SetConfigEP19__DMA_HandleTypeDefjjj) for i._ZN41_INTERNAL_19_stm32f4xx_hal_dma_c_c25f65ec13DMA_SetConfigEP19__DMA_HandleTypeDefjjj
    stm32f4xx_hal_dma.o(.ARM.exidx) refers to stm32f4xx_hal_dma.o(i.HAL_DMA_Start) for i.HAL_DMA_Start
    stm32f4xx_hal_dma.o(.ARM.exidx) refers to stm32f4xx_hal_dma.o(i.HAL_DMA_Start_IT) for i.HAL_DMA_Start_IT
    stm32f4xx_hal_dma.o(.ARM.exidx) refers to stm32f4xx_hal_dma.o(i.HAL_DMA_Abort) for i.HAL_DMA_Abort
    stm32f4xx_hal_dma.o(.ARM.exidx) refers to unwind_pr0.o(.text) for __aeabi_unwind_cpp_pr0
    stm32f4xx_hal_dma.o(.ARM.exidx) refers to stm32f4xx_hal_dma.o(i.HAL_DMA_Abort_IT) for i.HAL_DMA_Abort_IT
    stm32f4xx_hal_dma.o(.ARM.exidx) refers to stm32f4xx_hal_dma.o(i.HAL_DMA_PollForTransfer) for i.HAL_DMA_PollForTransfer
    stm32f4xx_hal_dma.o(.ARM.exidx) refers to unwind_pr0.o(.text) for __aeabi_unwind_cpp_pr0
    stm32f4xx_hal_dma.o(.ARM.exidx) refers to stm32f4xx_hal_dma.o(i.HAL_DMA_IRQHandler) for i.HAL_DMA_IRQHandler
    stm32f4xx_hal_dma.o(.ARM.exidx) refers to unwind_pr0.o(.text) for __aeabi_unwind_cpp_pr0
    stm32f4xx_hal_dma.o(.ARM.exidx) refers to stm32f4xx_hal_dma.o(i._Z24HAL_DMA_RegisterCallbackP19__DMA_HandleTypeDef25HAL_DMA_CallbackIDTypeDefPFvS0_E) for i._Z24HAL_DMA_RegisterCallbackP19__DMA_HandleTypeDef25HAL_DMA_CallbackIDTypeDefPFvS0_E
    stm32f4xx_hal_dma.o(.ARM.exidx) refers to stm32f4xx_hal_dma.o(i.HAL_DMA_UnRegisterCallback) for i.HAL_DMA_UnRegisterCallback
    stm32f4xx_hal_dma.o(.ARM.exidx) refers to stm32f4xx_hal_dma.o(i.HAL_DMA_GetState) for i.HAL_DMA_GetState
    stm32f4xx_hal_dma.o(.ARM.exidx) refers to stm32f4xx_hal_dma.o(i.HAL_DMA_GetError) for i.HAL_DMA_GetError
    stm32f4xx_hal_dma.o(.ARM.exidx) refers to stm32f4xx_hal_dma.o(i._ZN41_INTERNAL_19_stm32f4xx_hal_dma_c_c25f65ec18DMA_CheckFifoParamEP19__DMA_HandleTypeDef) for i._ZN41_INTERNAL_19_stm32f4xx_hal_dma_c_c25f65ec18DMA_CheckFifoParamEP19__DMA_HandleTypeDef
    stm32f4xx_hal_pwr.o(.ARM.exidx) refers to stm32f4xx_hal_pwr.o(.rev16_text) for __asm___19_stm32f4xx_hal_pwr_c_f2cfe8be___ZN41_INTERNAL_19_stm32f4xx_hal_pwr_c_f2cfe8be7__REV16Ej
    stm32f4xx_hal_pwr.o(.ARM.exidx) refers to stm32f4xx_hal_pwr.o(.revsh_text) for __asm___19_stm32f4xx_hal_pwr_c_f2cfe8be___ZN41_INTERNAL_19_stm32f4xx_hal_pwr_c_f2cfe8be7__REVSHEs
    stm32f4xx_hal_pwr.o(.ARM.exidx) refers to stm32f4xx_hal_pwr.o(.rrx_text) for __asm___19_stm32f4xx_hal_pwr_c_f2cfe8be___ZN41_INTERNAL_19_stm32f4xx_hal_pwr_c_f2cfe8be5__RRXEj
    stm32f4xx_hal_pwr.o(i.HAL_PWR_PVD_IRQHandler) refers to stm32f4xx_hal_pwr.o(i.HAL_PWR_PVDCallback) for HAL_PWR_PVDCallback
    stm32f4xx_hal_pwr.o(.ARM.exidx) refers to stm32f4xx_hal_pwr.o(i.HAL_PWR_DeInit) for i.HAL_PWR_DeInit
    stm32f4xx_hal_pwr.o(.ARM.exidx) refers to stm32f4xx_hal_pwr.o(i.HAL_PWR_EnableBkUpAccess) for i.HAL_PWR_EnableBkUpAccess
    stm32f4xx_hal_pwr.o(.ARM.exidx) refers to stm32f4xx_hal_pwr.o(i.HAL_PWR_DisableBkUpAccess) for i.HAL_PWR_DisableBkUpAccess
    stm32f4xx_hal_pwr.o(.ARM.exidx) refers to stm32f4xx_hal_pwr.o(i.HAL_PWR_ConfigPVD) for i.HAL_PWR_ConfigPVD
    stm32f4xx_hal_pwr.o(.ARM.exidx) refers to stm32f4xx_hal_pwr.o(i.HAL_PWR_EnablePVD) for i.HAL_PWR_EnablePVD
    stm32f4xx_hal_pwr.o(.ARM.exidx) refers to stm32f4xx_hal_pwr.o(i.HAL_PWR_DisablePVD) for i.HAL_PWR_DisablePVD
    stm32f4xx_hal_pwr.o(.ARM.exidx) refers to stm32f4xx_hal_pwr.o(i.HAL_PWR_EnableWakeUpPin) for i.HAL_PWR_EnableWakeUpPin
    stm32f4xx_hal_pwr.o(.ARM.exidx) refers to stm32f4xx_hal_pwr.o(i.HAL_PWR_DisableWakeUpPin) for i.HAL_PWR_DisableWakeUpPin
    stm32f4xx_hal_pwr.o(.ARM.exidx) refers to stm32f4xx_hal_pwr.o(i.HAL_PWR_EnterSLEEPMode) for i.HAL_PWR_EnterSLEEPMode
    stm32f4xx_hal_pwr.o(.ARM.exidx) refers to stm32f4xx_hal_pwr.o(i.HAL_PWR_EnterSTOPMode) for i.HAL_PWR_EnterSTOPMode
    stm32f4xx_hal_pwr.o(.ARM.exidx) refers to stm32f4xx_hal_pwr.o(i.HAL_PWR_EnterSTANDBYMode) for i.HAL_PWR_EnterSTANDBYMode
    stm32f4xx_hal_pwr.o(.ARM.exidx) refers to stm32f4xx_hal_pwr.o(i.HAL_PWR_PVDCallback) for i.HAL_PWR_PVDCallback
    stm32f4xx_hal_pwr.o(.ARM.exidx) refers to stm32f4xx_hal_pwr.o(i.HAL_PWR_PVD_IRQHandler) for i.HAL_PWR_PVD_IRQHandler
    stm32f4xx_hal_pwr.o(.ARM.exidx) refers to unwind_pr0.o(.text) for __aeabi_unwind_cpp_pr0
    stm32f4xx_hal_pwr.o(.ARM.exidx) refers to stm32f4xx_hal_pwr.o(i.HAL_PWR_EnableSleepOnExit) for i.HAL_PWR_EnableSleepOnExit
    stm32f4xx_hal_pwr.o(.ARM.exidx) refers to stm32f4xx_hal_pwr.o(i.HAL_PWR_DisableSleepOnExit) for i.HAL_PWR_DisableSleepOnExit
    stm32f4xx_hal_pwr.o(.ARM.exidx) refers to stm32f4xx_hal_pwr.o(i.HAL_PWR_EnableSEVOnPend) for i.HAL_PWR_EnableSEVOnPend
    stm32f4xx_hal_pwr.o(.ARM.exidx) refers to stm32f4xx_hal_pwr.o(i.HAL_PWR_DisableSEVOnPend) for i.HAL_PWR_DisableSEVOnPend
    stm32f4xx_hal_pwr_ex.o(.ARM.exidx) refers to stm32f4xx_hal_pwr_ex.o(.rev16_text) for __asm___22_stm32f4xx_hal_pwr_ex_c_1028ebfa___ZN44_INTERNAL_22_stm32f4xx_hal_pwr_ex_c_1028ebfa7__REV16Ej
    stm32f4xx_hal_pwr_ex.o(.ARM.exidx) refers to stm32f4xx_hal_pwr_ex.o(.revsh_text) for __asm___22_stm32f4xx_hal_pwr_ex_c_1028ebfa___ZN44_INTERNAL_22_stm32f4xx_hal_pwr_ex_c_1028ebfa7__REVSHEs
    stm32f4xx_hal_pwr_ex.o(.ARM.exidx) refers to stm32f4xx_hal_pwr_ex.o(.rrx_text) for __asm___22_stm32f4xx_hal_pwr_ex_c_1028ebfa___ZN44_INTERNAL_22_stm32f4xx_hal_pwr_ex_c_1028ebfa5__RRXEj
    stm32f4xx_hal_pwr_ex.o(i.HAL_PWREx_ControlVoltageScaling) refers to stm32f4xx_hal.o(i.HAL_GetTick) for HAL_GetTick
    stm32f4xx_hal_pwr_ex.o(i.HAL_PWREx_DisableBkUpReg) refers to stm32f4xx_hal.o(i.HAL_GetTick) for HAL_GetTick
    stm32f4xx_hal_pwr_ex.o(i.HAL_PWREx_EnableBkUpReg) refers to stm32f4xx_hal.o(i.HAL_GetTick) for HAL_GetTick
    stm32f4xx_hal_pwr_ex.o(.ARM.exidx) refers to stm32f4xx_hal_pwr_ex.o(i.HAL_PWREx_EnableBkUpReg) for i.HAL_PWREx_EnableBkUpReg
    stm32f4xx_hal_pwr_ex.o(.ARM.exidx) refers to unwind_pr0.o(.text) for __aeabi_unwind_cpp_pr0
    stm32f4xx_hal_pwr_ex.o(.ARM.exidx) refers to stm32f4xx_hal_pwr_ex.o(i.HAL_PWREx_DisableBkUpReg) for i.HAL_PWREx_DisableBkUpReg
    stm32f4xx_hal_pwr_ex.o(.ARM.exidx) refers to unwind_pr0.o(.text) for __aeabi_unwind_cpp_pr0
    stm32f4xx_hal_pwr_ex.o(.ARM.exidx) refers to stm32f4xx_hal_pwr_ex.o(i.HAL_PWREx_EnableFlashPowerDown) for i.HAL_PWREx_EnableFlashPowerDown
    stm32f4xx_hal_pwr_ex.o(.ARM.exidx) refers to stm32f4xx_hal_pwr_ex.o(i.HAL_PWREx_DisableFlashPowerDown) for i.HAL_PWREx_DisableFlashPowerDown
    stm32f4xx_hal_pwr_ex.o(.ARM.exidx) refers to stm32f4xx_hal_pwr_ex.o(i.HAL_PWREx_GetVoltageRange) for i.HAL_PWREx_GetVoltageRange
    stm32f4xx_hal_pwr_ex.o(.ARM.exidx) refers to stm32f4xx_hal_pwr_ex.o(i.HAL_PWREx_ControlVoltageScaling) for i.HAL_PWREx_ControlVoltageScaling
    stm32f4xx_hal_pwr_ex.o(.ARM.exidx) refers to unwind_pr0.o(.text) for __aeabi_unwind_cpp_pr0
    stm32f4xx_hal_cortex.o(.ARM.exidx) refers to stm32f4xx_hal_cortex.o(.rev16_text) for __asm___22_stm32f4xx_hal_cortex_c_2992dbc0___ZN44_INTERNAL_22_stm32f4xx_hal_cortex_c_2992dbc07__REV16Ej
    stm32f4xx_hal_cortex.o(.ARM.exidx) refers to stm32f4xx_hal_cortex.o(.revsh_text) for __asm___22_stm32f4xx_hal_cortex_c_2992dbc0___ZN44_INTERNAL_22_stm32f4xx_hal_cortex_c_2992dbc07__REVSHEs
    stm32f4xx_hal_cortex.o(.ARM.exidx) refers to stm32f4xx_hal_cortex.o(.rrx_text) for __asm___22_stm32f4xx_hal_cortex_c_2992dbc0___ZN44_INTERNAL_22_stm32f4xx_hal_cortex_c_2992dbc05__RRXEj
    stm32f4xx_hal_cortex.o(i.HAL_NVIC_SetPriority) refers to stm32f4xx_hal_cortex.o(i._ZN44_INTERNAL_22_stm32f4xx_hal_cortex_c_2992dbc018__NVIC_SetPriorityE9IRQn_Typej) for [local to stm32f4xx_hal_cortex_c]::__NVIC_SetPriority(IRQn_Type, unsigned)
    stm32f4xx_hal_cortex.o(i.HAL_SYSTICK_Config) refers to stm32f4xx_hal_cortex.o(i._ZN44_INTERNAL_22_stm32f4xx_hal_cortex_c_2992dbc018__NVIC_SetPriorityE9IRQn_Typej) for [local to stm32f4xx_hal_cortex_c]::__NVIC_SetPriority(IRQn_Type, unsigned)
    stm32f4xx_hal_cortex.o(i.HAL_SYSTICK_IRQHandler) refers to stm32f4xx_hal_cortex.o(i.HAL_SYSTICK_Callback) for HAL_SYSTICK_Callback
    stm32f4xx_hal_cortex.o(.ARM.exidx) refers to stm32f4xx_hal_cortex.o(i.HAL_NVIC_SetPriorityGrouping) for i.HAL_NVIC_SetPriorityGrouping
    stm32f4xx_hal_cortex.o(.ARM.exidx) refers to stm32f4xx_hal_cortex.o(i.HAL_NVIC_SetPriority) for i.HAL_NVIC_SetPriority
    stm32f4xx_hal_cortex.o(.ARM.exidx) refers to stm32f4xx_hal_cortex.o(i.HAL_NVIC_EnableIRQ) for i.HAL_NVIC_EnableIRQ
    stm32f4xx_hal_cortex.o(.ARM.exidx) refers to stm32f4xx_hal_cortex.o(i.HAL_NVIC_DisableIRQ) for i.HAL_NVIC_DisableIRQ
    stm32f4xx_hal_cortex.o(.ARM.exidx) refers to stm32f4xx_hal_cortex.o(i.HAL_NVIC_SystemReset) for i.HAL_NVIC_SystemReset
    stm32f4xx_hal_cortex.o(.ARM.exidx) refers to stm32f4xx_hal_cortex.o(i.HAL_SYSTICK_Config) for i.HAL_SYSTICK_Config
    stm32f4xx_hal_cortex.o(.ARM.exidx) refers to unwind_pr0.o(.text) for __aeabi_unwind_cpp_pr0
    stm32f4xx_hal_cortex.o(.ARM.exidx) refers to stm32f4xx_hal_cortex.o(i.HAL_MPU_Disable) for i.HAL_MPU_Disable
    stm32f4xx_hal_cortex.o(.ARM.exidx) refers to stm32f4xx_hal_cortex.o(i.HAL_MPU_Enable) for i.HAL_MPU_Enable
    stm32f4xx_hal_cortex.o(.ARM.exidx) refers to stm32f4xx_hal_cortex.o(i.HAL_MPU_ConfigRegion) for i.HAL_MPU_ConfigRegion
    stm32f4xx_hal_cortex.o(.ARM.exidx) refers to stm32f4xx_hal_cortex.o(i.HAL_NVIC_GetPriorityGrouping) for i.HAL_NVIC_GetPriorityGrouping
    stm32f4xx_hal_cortex.o(.ARM.exidx) refers to stm32f4xx_hal_cortex.o(i.HAL_NVIC_GetPriority) for i.HAL_NVIC_GetPriority
    stm32f4xx_hal_cortex.o(.ARM.exidx) refers to stm32f4xx_hal_cortex.o(i.HAL_NVIC_SetPendingIRQ) for i.HAL_NVIC_SetPendingIRQ
    stm32f4xx_hal_cortex.o(.ARM.exidx) refers to stm32f4xx_hal_cortex.o(i.HAL_NVIC_GetPendingIRQ) for i.HAL_NVIC_GetPendingIRQ
    stm32f4xx_hal_cortex.o(.ARM.exidx) refers to stm32f4xx_hal_cortex.o(i.HAL_NVIC_ClearPendingIRQ) for i.HAL_NVIC_ClearPendingIRQ
    stm32f4xx_hal_cortex.o(.ARM.exidx) refers to stm32f4xx_hal_cortex.o(i.HAL_NVIC_GetActive) for i.HAL_NVIC_GetActive
    stm32f4xx_hal_cortex.o(.ARM.exidx) refers to stm32f4xx_hal_cortex.o(i.HAL_SYSTICK_CLKSourceConfig) for i.HAL_SYSTICK_CLKSourceConfig
    stm32f4xx_hal_cortex.o(.ARM.exidx) refers to stm32f4xx_hal_cortex.o(i.HAL_SYSTICK_Callback) for i.HAL_SYSTICK_Callback
    stm32f4xx_hal_cortex.o(.ARM.exidx) refers to stm32f4xx_hal_cortex.o(i.HAL_SYSTICK_IRQHandler) for i.HAL_SYSTICK_IRQHandler
    stm32f4xx_hal_cortex.o(.ARM.exidx) refers to unwind_pr0.o(.text) for __aeabi_unwind_cpp_pr0
    stm32f4xx_hal_cortex.o(.ARM.exidx) refers to stm32f4xx_hal_cortex.o(i._ZN44_INTERNAL_22_stm32f4xx_hal_cortex_c_2992dbc018__NVIC_SetPriorityE9IRQn_Typej) for i._ZN44_INTERNAL_22_stm32f4xx_hal_cortex_c_2992dbc018__NVIC_SetPriorityE9IRQn_Typej
    stm32f4xx_hal.o(.ARM.exidx) refers to stm32f4xx_hal.o(.rev16_text) for __asm___15_stm32f4xx_hal_c_3da258af___ZN37_INTERNAL_15_stm32f4xx_hal_c_3da258af7__REV16Ej
    stm32f4xx_hal.o(.ARM.exidx) refers to stm32f4xx_hal.o(.revsh_text) for __asm___15_stm32f4xx_hal_c_3da258af___ZN37_INTERNAL_15_stm32f4xx_hal_c_3da258af7__REVSHEs
    stm32f4xx_hal.o(.ARM.exidx) refers to stm32f4xx_hal.o(.rrx_text) for __asm___15_stm32f4xx_hal_c_3da258af___ZN37_INTERNAL_15_stm32f4xx_hal_c_3da258af5__RRXEj
    stm32f4xx_hal.o(i.HAL_DeInit) refers to stm32f4xx_hal.o(i.HAL_MspDeInit) for HAL_MspDeInit
    stm32f4xx_hal.o(i.HAL_Delay) refers to stm32f4xx_hal.o(i.HAL_GetTick) for HAL_GetTick
    stm32f4xx_hal.o(i.HAL_Delay) refers to stm32f4xx_hal.o(.data) for .data
    stm32f4xx_hal.o(i.HAL_GetTick) refers to stm32f4xx_hal.o(.data) for .data
    stm32f4xx_hal.o(i.HAL_GetTickFreq) refers to stm32f4xx_hal.o(.data) for .data
    stm32f4xx_hal.o(i.HAL_GetTickPrio) refers to stm32f4xx_hal.o(.data) for .data
    stm32f4xx_hal.o(i.HAL_IncTick) refers to stm32f4xx_hal.o(.data) for .data
    stm32f4xx_hal.o(i.HAL_Init) refers to stm32f4xx_hal_cortex.o(i.HAL_NVIC_SetPriorityGrouping) for HAL_NVIC_SetPriorityGrouping
    stm32f4xx_hal.o(i.HAL_Init) refers to stm32f4xx_hal.o(i.HAL_InitTick) for HAL_InitTick
    stm32f4xx_hal.o(i.HAL_Init) refers to stm32f4xx_hal_msp.o(i.HAL_MspInit) for HAL_MspInit
    stm32f4xx_hal.o(i.HAL_InitTick) refers to stm32f4xx_hal_cortex.o(i.HAL_SYSTICK_Config) for HAL_SYSTICK_Config
    stm32f4xx_hal.o(i.HAL_InitTick) refers to stm32f4xx_hal_cortex.o(i.HAL_NVIC_SetPriority) for HAL_NVIC_SetPriority
    stm32f4xx_hal.o(i.HAL_InitTick) refers to stm32f4xx_hal.o(.data) for .data
    stm32f4xx_hal.o(i.HAL_InitTick) refers to system_stm32f4xx.o(.data) for SystemCoreClock
    stm32f4xx_hal.o(i.HAL_SetTickFreq) refers to stm32f4xx_hal.o(i.HAL_InitTick) for HAL_InitTick
    stm32f4xx_hal.o(i.HAL_SetTickFreq) refers to stm32f4xx_hal.o(.data) for .data
    stm32f4xx_hal.o(.ARM.exidx) refers to stm32f4xx_hal.o(i.HAL_MspInit) for i.HAL_MspInit
    stm32f4xx_hal.o(.ARM.exidx) refers to stm32f4xx_hal.o(i.HAL_InitTick) for i.HAL_InitTick
    stm32f4xx_hal.o(.ARM.exidx) refers to unwind_pr0.o(.text) for __aeabi_unwind_cpp_pr0
    stm32f4xx_hal.o(.ARM.exidx) refers to stm32f4xx_hal.o(i.HAL_Init) for i.HAL_Init
    stm32f4xx_hal.o(.ARM.exidx) refers to unwind_pr0.o(.text) for __aeabi_unwind_cpp_pr0
    stm32f4xx_hal.o(.ARM.exidx) refers to stm32f4xx_hal.o(i.HAL_MspDeInit) for i.HAL_MspDeInit
    stm32f4xx_hal.o(.ARM.exidx) refers to stm32f4xx_hal.o(i.HAL_DeInit) for i.HAL_DeInit
    stm32f4xx_hal.o(.ARM.exidx) refers to unwind_pr0.o(.text) for __aeabi_unwind_cpp_pr0
    stm32f4xx_hal.o(.ARM.exidx) refers to stm32f4xx_hal.o(i.HAL_IncTick) for i.HAL_IncTick
    stm32f4xx_hal.o(.ARM.exidx) refers to stm32f4xx_hal.o(i.HAL_GetTick) for i.HAL_GetTick
    stm32f4xx_hal.o(.ARM.exidx) refers to stm32f4xx_hal.o(i.HAL_GetTickPrio) for i.HAL_GetTickPrio
    stm32f4xx_hal.o(.ARM.exidx) refers to stm32f4xx_hal.o(i.HAL_SetTickFreq) for i.HAL_SetTickFreq
    stm32f4xx_hal.o(.ARM.exidx) refers to unwind_pr0.o(.text) for __aeabi_unwind_cpp_pr0
    stm32f4xx_hal.o(.ARM.exidx) refers to stm32f4xx_hal.o(i.HAL_GetTickFreq) for i.HAL_GetTickFreq
    stm32f4xx_hal.o(.ARM.exidx) refers to stm32f4xx_hal.o(i.HAL_Delay) for i.HAL_Delay
    stm32f4xx_hal.o(.ARM.exidx) refers to unwind_pr0.o(.text) for __aeabi_unwind_cpp_pr0
    stm32f4xx_hal.o(.ARM.exidx) refers to stm32f4xx_hal.o(i.HAL_SuspendTick) for i.HAL_SuspendTick
    stm32f4xx_hal.o(.ARM.exidx) refers to stm32f4xx_hal.o(i.HAL_ResumeTick) for i.HAL_ResumeTick
    stm32f4xx_hal.o(.ARM.exidx) refers to stm32f4xx_hal.o(i.HAL_GetHalVersion) for i.HAL_GetHalVersion
    stm32f4xx_hal.o(.ARM.exidx) refers to stm32f4xx_hal.o(i.HAL_GetREVID) for i.HAL_GetREVID
    stm32f4xx_hal.o(.ARM.exidx) refers to stm32f4xx_hal.o(i.HAL_GetDEVID) for i.HAL_GetDEVID
    stm32f4xx_hal.o(.ARM.exidx) refers to stm32f4xx_hal.o(i.HAL_DBGMCU_EnableDBGSleepMode) for i.HAL_DBGMCU_EnableDBGSleepMode
    stm32f4xx_hal.o(.ARM.exidx) refers to stm32f4xx_hal.o(i.HAL_DBGMCU_DisableDBGSleepMode) for i.HAL_DBGMCU_DisableDBGSleepMode
    stm32f4xx_hal.o(.ARM.exidx) refers to stm32f4xx_hal.o(i.HAL_DBGMCU_EnableDBGStopMode) for i.HAL_DBGMCU_EnableDBGStopMode
    stm32f4xx_hal.o(.ARM.exidx) refers to stm32f4xx_hal.o(i.HAL_DBGMCU_DisableDBGStopMode) for i.HAL_DBGMCU_DisableDBGStopMode
    stm32f4xx_hal.o(.ARM.exidx) refers to stm32f4xx_hal.o(i.HAL_DBGMCU_EnableDBGStandbyMode) for i.HAL_DBGMCU_EnableDBGStandbyMode
    stm32f4xx_hal.o(.ARM.exidx) refers to stm32f4xx_hal.o(i.HAL_DBGMCU_DisableDBGStandbyMode) for i.HAL_DBGMCU_DisableDBGStandbyMode
    stm32f4xx_hal.o(.ARM.exidx) refers to stm32f4xx_hal.o(i.HAL_EnableCompensationCell) for i.HAL_EnableCompensationCell
    stm32f4xx_hal.o(.ARM.exidx) refers to stm32f4xx_hal.o(i.HAL_DisableCompensationCell) for i.HAL_DisableCompensationCell
    stm32f4xx_hal.o(.ARM.exidx) refers to stm32f4xx_hal.o(i.HAL_GetUIDw0) for i.HAL_GetUIDw0
    stm32f4xx_hal.o(.ARM.exidx) refers to stm32f4xx_hal.o(i.HAL_GetUIDw1) for i.HAL_GetUIDw1
    stm32f4xx_hal.o(.ARM.exidx) refers to stm32f4xx_hal.o(i.HAL_GetUIDw2) for i.HAL_GetUIDw2
    stm32f4xx_hal_exti.o(.ARM.exidx) refers to stm32f4xx_hal_exti.o(.rev16_text) for __asm___20_stm32f4xx_hal_exti_c_ad9bfa1e___ZN42_INTERNAL_20_stm32f4xx_hal_exti_c_ad9bfa1e7__REV16Ej
    stm32f4xx_hal_exti.o(.ARM.exidx) refers to stm32f4xx_hal_exti.o(.revsh_text) for __asm___20_stm32f4xx_hal_exti_c_ad9bfa1e___ZN42_INTERNAL_20_stm32f4xx_hal_exti_c_ad9bfa1e7__REVSHEs
    stm32f4xx_hal_exti.o(.ARM.exidx) refers to stm32f4xx_hal_exti.o(.rrx_text) for __asm___20_stm32f4xx_hal_exti_c_ad9bfa1e___ZN42_INTERNAL_20_stm32f4xx_hal_exti_c_ad9bfa1e5__RRXEj
    stm32f4xx_hal_exti.o(.ARM.exidx) refers to stm32f4xx_hal_exti.o(i.HAL_EXTI_SetConfigLine) for i.HAL_EXTI_SetConfigLine
    stm32f4xx_hal_exti.o(.ARM.exidx) refers to stm32f4xx_hal_exti.o(i.HAL_EXTI_GetConfigLine) for i.HAL_EXTI_GetConfigLine
    stm32f4xx_hal_exti.o(.ARM.exidx) refers to stm32f4xx_hal_exti.o(i.HAL_EXTI_ClearConfigLine) for i.HAL_EXTI_ClearConfigLine
    stm32f4xx_hal_exti.o(.ARM.exidx) refers to stm32f4xx_hal_exti.o(i._Z25HAL_EXTI_RegisterCallbackP18EXTI_HandleTypeDef22EXTI_CallbackIDTypeDefPFvvE) for i._Z25HAL_EXTI_RegisterCallbackP18EXTI_HandleTypeDef22EXTI_CallbackIDTypeDefPFvvE
    stm32f4xx_hal_exti.o(.ARM.exidx) refers to stm32f4xx_hal_exti.o(i.HAL_EXTI_GetHandle) for i.HAL_EXTI_GetHandle
    stm32f4xx_hal_exti.o(.ARM.exidx) refers to stm32f4xx_hal_exti.o(i.HAL_EXTI_IRQHandler) for i.HAL_EXTI_IRQHandler
    stm32f4xx_hal_exti.o(.ARM.exidx) refers to stm32f4xx_hal_exti.o(i.HAL_EXTI_GetPending) for i.HAL_EXTI_GetPending
    stm32f4xx_hal_exti.o(.ARM.exidx) refers to stm32f4xx_hal_exti.o(i.HAL_EXTI_ClearPending) for i.HAL_EXTI_ClearPending
    stm32f4xx_hal_exti.o(.ARM.exidx) refers to stm32f4xx_hal_exti.o(i.HAL_EXTI_GenerateSWI) for i.HAL_EXTI_GenerateSWI
    stm32f4xx_hal_tim.o(.ARM.exidx) refers to stm32f4xx_hal_tim.o(.rev16_text) for __asm___19_stm32f4xx_hal_tim_c___ZN32_INTERNAL_19_stm32f4xx_hal_tim_c7__REV16Ej
    stm32f4xx_hal_tim.o(.ARM.exidx) refers to stm32f4xx_hal_tim.o(.revsh_text) for __asm___19_stm32f4xx_hal_tim_c___ZN32_INTERNAL_19_stm32f4xx_hal_tim_c7__REVSHEs
    stm32f4xx_hal_tim.o(.ARM.exidx) refers to stm32f4xx_hal_tim.o(.rrx_text) for __asm___19_stm32f4xx_hal_tim_c___ZN32_INTERNAL_19_stm32f4xx_hal_tim_c5__RRXEj
    stm32f4xx_hal_tim_ex.o(.ARM.exidx) refers to stm32f4xx_hal_tim_ex.o(.rev16_text) for __asm___22_stm32f4xx_hal_tim_ex_c___ZN35_INTERNAL_22_stm32f4xx_hal_tim_ex_c7__REV16Ej
    stm32f4xx_hal_tim_ex.o(.ARM.exidx) refers to stm32f4xx_hal_tim_ex.o(.revsh_text) for __asm___22_stm32f4xx_hal_tim_ex_c___ZN35_INTERNAL_22_stm32f4xx_hal_tim_ex_c7__REVSHEs
    stm32f4xx_hal_tim_ex.o(.ARM.exidx) refers to stm32f4xx_hal_tim_ex.o(.rrx_text) for __asm___22_stm32f4xx_hal_tim_ex_c___ZN35_INTERNAL_22_stm32f4xx_hal_tim_ex_c5__RRXEj
    system_stm32f4xx.o(.ARM.exidx) refers to system_stm32f4xx.o(.rev16_text) for __asm___18_system_stm32f4xx_c_5d646a67___ZN40_INTERNAL_18_system_stm32f4xx_c_5d646a677__REV16Ej
    system_stm32f4xx.o(.ARM.exidx) refers to system_stm32f4xx.o(.revsh_text) for __asm___18_system_stm32f4xx_c_5d646a67___ZN40_INTERNAL_18_system_stm32f4xx_c_5d646a677__REVSHEs
    system_stm32f4xx.o(.ARM.exidx) refers to system_stm32f4xx.o(.rrx_text) for __asm___18_system_stm32f4xx_c_5d646a67___ZN40_INTERNAL_18_system_stm32f4xx_c_5d646a675__RRXEj
    system_stm32f4xx.o(i.SystemCoreClockUpdate) refers to system_stm32f4xx.o(.data) for .data
    system_stm32f4xx.o(i.SystemCoreClockUpdate) refers to system_stm32f4xx.o(.constdata) for .constdata
    system_stm32f4xx.o(.ARM.exidx) refers to system_stm32f4xx.o(i.SystemInit) for i.SystemInit
    system_stm32f4xx.o(.ARM.exidx) refers to system_stm32f4xx.o(i.SystemCoreClockUpdate) for i.SystemCoreClockUpdate
    __main.o(!!!main) refers to __rtentry.o(.ARM.Collect$$rtentry$$00000000) for __rt_entry
    init_aeabi.o(.emb_text) refers (Special) to libinit2.o(.ARM.Collect$$libinit$$00000031) for __rt_lib_init_cpp_2
    init_aeabi.o(.init_array) refers (Special) to libinit2.o(.ARM.Collect$$libinit$$00000031) for __rt_lib_init_cpp_2
    init_aeabi.o(.init_array) refers to init_aeabi.o(.text) for __cpp_initialize__aeabi_
    init_aeabi.o(.dummy_text) refers (Special) to libinit2.o(.ARM.Collect$$libinit$$00000031) for __rt_lib_init_cpp_2
    init_aeabi.o(.text) refers (Special) to libinit2.o(.ARM.Collect$$libinit$$00000031) for __rt_lib_init_cpp_2
    init_aeabi.o(.ARM.exidx) refers (Special) to libinit2.o(.ARM.Collect$$libinit$$00000031) for __rt_lib_init_cpp_2
    init_aeabi.o(.ARM.exidx) refers to init_aeabi.o(.text) for .text
    array_del.o(i._ZdaPv) refers to delete.o(i._ZdlPv) for operator delete (void*)
    array_del.o(.ARM.exidx) refers to array_del.o(i._ZdaPv) for i._ZdaPv
    array_new.o(i._Znaj) refers to new.o(i._Znwj) for operator new(unsigned)
    array_new.o(.ARM.exidx) refers to array_new.o(i._Znaj) for i._Znaj
    array_new.o(.ARM.exidx) refers to unwind_pr0.o(.text) for __aeabi_unwind_cpp_pr0
    array_new.o(.ARM.exidx) refers to array_new.o(.ARM.extab) for .extab._Znaj
    array_new.o(.ARM.extab) refers to arm_exceptions_callunex.o(.text) for __cxa_call_unexpected
    array_new.o(.ARM.extab) refers to bad_alloc_dtor.o(.constdata__ZTISt9bad_alloc) for typeinfo for std::bad_alloc
    pure_virt.o(i.__cxa_pure_virtual) refers to defsig_pvfn_outer.o(.text) for __rt_SIGPVFN
    pure_virt.o(.ARM.exidx) refers to pure_virt.o(i.__cxa_pure_virtual) for i.__cxa_pure_virtual
    cxa_throw_bad_array_new_length.o(.ARM.exidx) refers to cxa_throw_bad_array_new_length.o(i.__cxa_throw_bad_array_new_length) for i.__cxa_throw_bad_array_new_length
    lib_rtti_impl.o(i._ZN10__cxxabiv116__enum_type_infoD0Ev) refers to lib_rtti_impl.o(i._ZN10__cxxabiv116__enum_type_infoD1Ev) for __cxxabiv1::__enum_type_info::~__enum_type_info()
    lib_rtti_impl.o(i._ZN10__cxxabiv117__array_type_infoD0Ev) refers to lib_rtti_impl.o(i._ZN10__cxxabiv117__array_type_infoD1Ev) for __cxxabiv1::__array_type_info::~__array_type_info()
    lib_rtti_impl.o(i._ZN10__cxxabiv117__class_type_infoD0Ev) refers to lib_rtti_impl.o(i._ZN10__cxxabiv117__class_type_infoD1Ev) for __cxxabiv1::__class_type_info::~__class_type_info()
    lib_rtti_impl.o(i._ZN10__cxxabiv117__pbase_type_infoD0Ev) refers to lib_rtti_impl.o(i._ZN10__cxxabiv117__pbase_type_infoD1Ev) for __cxxabiv1::__pbase_type_info::~__pbase_type_info()
    lib_rtti_impl.o(i._ZN10__cxxabiv119__pointer_type_infoD0Ev) refers to lib_rtti_impl.o(i._ZN10__cxxabiv119__pointer_type_infoD1Ev) for __cxxabiv1::__pointer_type_info::~__pointer_type_info()
    lib_rtti_impl.o(i._ZN10__cxxabiv119__pointer_type_infoD1Ev) refers to lib_rtti_impl.o(i._ZN10__cxxabiv117__pbase_type_infoD1Ev) for __cxxabiv1::__pbase_type_info::~__pbase_type_info()
    lib_rtti_impl.o(i._ZN10__cxxabiv120__function_type_infoD0Ev) refers to lib_rtti_impl.o(i._ZN10__cxxabiv120__function_type_infoD1Ev) for __cxxabiv1::__function_type_info::~__function_type_info()
    lib_rtti_impl.o(i._ZN10__cxxabiv120__si_class_type_infoD0Ev) refers to lib_rtti_impl.o(i._ZN10__cxxabiv120__si_class_type_infoD1Ev) for __cxxabiv1::__si_class_type_info::~__si_class_type_info()
    lib_rtti_impl.o(i._ZN10__cxxabiv120__si_class_type_infoD1Ev) refers to lib_rtti_impl.o(i._ZN10__cxxabiv117__class_type_infoD1Ev) for __cxxabiv1::__class_type_info::~__class_type_info()
    lib_rtti_impl.o(i._ZN10__cxxabiv121__vmi_class_type_infoD0Ev) refers to lib_rtti_impl.o(i._ZN10__cxxabiv121__vmi_class_type_infoD1Ev) for __cxxabiv1::__vmi_class_type_info::~__vmi_class_type_info()
    lib_rtti_impl.o(i._ZN10__cxxabiv121__vmi_class_type_infoD1Ev) refers to lib_rtti_impl.o(i._ZN10__cxxabiv117__class_type_infoD1Ev) for __cxxabiv1::__class_type_info::~__class_type_info()
    lib_rtti_impl.o(i._ZN10__cxxabiv123__fundamental_type_infoD0Ev) refers to lib_rtti_impl.o(i._ZN10__cxxabiv123__fundamental_type_infoD1Ev) for __cxxabiv1::__fundamental_type_info::~__fundamental_type_info()
    lib_rtti_impl.o(i._ZN10__cxxabiv129__pointer_to_member_type_infoD0Ev) refers to lib_rtti_impl.o(i._ZN10__cxxabiv129__pointer_to_member_type_infoD1Ev) for __cxxabiv1::__pointer_to_member_type_info::~__pointer_to_member_type_info()
    lib_rtti_impl.o(i._ZN10__cxxabiv129__pointer_to_member_type_infoD1Ev) refers to lib_rtti_impl.o(i._ZN10__cxxabiv117__pbase_type_infoD1Ev) for __cxxabiv1::__pbase_type_info::~__pbase_type_info()
    lib_rtti_impl.o(.ARM.exidx) refers to lib_rtti_impl.o(i._ZN10__cxxabiv123__fundamental_type_infoD1Ev) for i._ZN10__cxxabiv123__fundamental_type_infoD1Ev
    lib_rtti_impl.o(.ARM.exidx) refers to lib_rtti_impl.o(i._ZN10__cxxabiv123__fundamental_type_infoD0Ev) for i._ZN10__cxxabiv123__fundamental_type_infoD0Ev
    lib_rtti_impl.o(.ARM.exidx) refers to lib_rtti_impl.o(i._ZN10__cxxabiv117__array_type_infoD1Ev) for i._ZN10__cxxabiv117__array_type_infoD1Ev
    lib_rtti_impl.o(.ARM.exidx) refers to lib_rtti_impl.o(i._ZN10__cxxabiv117__array_type_infoD0Ev) for i._ZN10__cxxabiv117__array_type_infoD0Ev
    lib_rtti_impl.o(.ARM.exidx) refers to lib_rtti_impl.o(i._ZN10__cxxabiv120__function_type_infoD1Ev) for i._ZN10__cxxabiv120__function_type_infoD1Ev
    lib_rtti_impl.o(.ARM.exidx) refers to lib_rtti_impl.o(i._ZN10__cxxabiv120__function_type_infoD0Ev) for i._ZN10__cxxabiv120__function_type_infoD0Ev
    lib_rtti_impl.o(.ARM.exidx) refers to lib_rtti_impl.o(i._ZN10__cxxabiv116__enum_type_infoD1Ev) for i._ZN10__cxxabiv116__enum_type_infoD1Ev
    lib_rtti_impl.o(.ARM.exidx) refers to lib_rtti_impl.o(i._ZN10__cxxabiv116__enum_type_infoD0Ev) for i._ZN10__cxxabiv116__enum_type_infoD0Ev
    lib_rtti_impl.o(.ARM.exidx) refers to lib_rtti_impl.o(i._ZN10__cxxabiv117__class_type_infoD1Ev) for i._ZN10__cxxabiv117__class_type_infoD1Ev
    lib_rtti_impl.o(.ARM.exidx) refers to lib_rtti_impl.o(i._ZN10__cxxabiv117__class_type_infoD0Ev) for i._ZN10__cxxabiv117__class_type_infoD0Ev
    lib_rtti_impl.o(.ARM.exidx) refers to lib_rtti_impl.o(i._ZN10__cxxabiv120__si_class_type_infoD1Ev) for i._ZN10__cxxabiv120__si_class_type_infoD1Ev
    lib_rtti_impl.o(.ARM.exidx) refers to lib_rtti_impl.o(i._ZN10__cxxabiv120__si_class_type_infoD0Ev) for i._ZN10__cxxabiv120__si_class_type_infoD0Ev
    lib_rtti_impl.o(.ARM.exidx) refers to lib_rtti_impl.o(i._ZN10__cxxabiv121__vmi_class_type_infoD1Ev) for i._ZN10__cxxabiv121__vmi_class_type_infoD1Ev
    lib_rtti_impl.o(.ARM.exidx) refers to lib_rtti_impl.o(i._ZN10__cxxabiv121__vmi_class_type_infoD0Ev) for i._ZN10__cxxabiv121__vmi_class_type_infoD0Ev
    lib_rtti_impl.o(.ARM.exidx) refers to lib_rtti_impl.o(i._ZN10__cxxabiv117__pbase_type_infoD1Ev) for i._ZN10__cxxabiv117__pbase_type_infoD1Ev
    lib_rtti_impl.o(.ARM.exidx) refers to lib_rtti_impl.o(i._ZN10__cxxabiv117__pbase_type_infoD0Ev) for i._ZN10__cxxabiv117__pbase_type_infoD0Ev
    lib_rtti_impl.o(.ARM.exidx) refers to lib_rtti_impl.o(i._ZN10__cxxabiv119__pointer_type_infoD1Ev) for i._ZN10__cxxabiv119__pointer_type_infoD1Ev
    lib_rtti_impl.o(.ARM.exidx) refers to lib_rtti_impl.o(i._ZN10__cxxabiv119__pointer_type_infoD0Ev) for i._ZN10__cxxabiv119__pointer_type_infoD0Ev
    lib_rtti_impl.o(.ARM.exidx) refers to lib_rtti_impl.o(i._ZN10__cxxabiv129__pointer_to_member_type_infoD1Ev) for i._ZN10__cxxabiv129__pointer_to_member_type_infoD1Ev
    lib_rtti_impl.o(.ARM.exidx) refers to lib_rtti_impl.o(i._ZN10__cxxabiv129__pointer_to_member_type_infoD0Ev) for i._ZN10__cxxabiv129__pointer_to_member_type_infoD0Ev
    aeabi_vec_new_cookie.o(i.__aeabi_vec_new_cookie) refers to cxa_vec_new.o(i.__cxa_vec_new) for __cxa_vec_new
    aeabi_vec_new_cookie.o(.ARM.exidx) refers to aeabi_vec_new_cookie.o(i.__aeabi_vec_new_cookie) for i.__aeabi_vec_new_cookie
    aeabi_vec_new_cookie.o(.ARM.exidx) refers to unwind_pr0.o(.text) for __aeabi_unwind_cpp_pr0
    aeabi_vec_delete.o(i.__aeabi_vec_delete) refers to aeabi_vec_dtor_cookie.o(i.__aeabi_vec_dtor_cookie) for __aeabi_vec_dtor_cookie
    aeabi_vec_delete.o(i.__aeabi_vec_delete) refers to array_del.o(i._ZdaPv) for operator delete[] (void*)
    aeabi_vec_delete.o(i.__aeabi_vec_delete) refers to arm_exceptions_begincatch.o(.text) for __cxa_begin_catch
    aeabi_vec_delete.o(i.__aeabi_vec_delete) refers to arm_exceptions_rethrow.o(.text) for __cxa_rethrow
    aeabi_vec_delete.o(i.__aeabi_vec_delete.clean) refers to arm_exceptions_endcatch.o(.text) for __cxa_end_catch
    aeabi_vec_delete.o(i.__aeabi_vec_delete.clean) refers to arm_exceptions_cleanup.o(.emb_text) for __cxa_end_cleanup
    aeabi_vec_delete.o(.ARM.exidx) refers to aeabi_vec_delete.o(i.__aeabi_vec_delete) for i.__aeabi_vec_delete
    aeabi_vec_delete.o(.ARM.exidx) refers to unwind_pr0.o(.text) for __aeabi_unwind_cpp_pr0
    aeabi_vec_delete.o(.ARM.exidx) refers to aeabi_vec_delete.o(.ARM.extab) for .extab.__aeabi_vec_delete
    aeabi_vec_delete.o(.ARM.exidx) refers to aeabi_vec_delete.o(i.__aeabi_vec_delete.clean) for i.__aeabi_vec_delete.clean
    aeabi_vec_delete.o(.ARM.extab) refers to aeabi_vec_delete.o(i.__aeabi_vec_delete) for i.__aeabi_vec_delete
    aeabi_vec_delete.o(.ARM.extab) refers to aeabi_vec_delete.o(i.__aeabi_vec_delete.clean) for i.__aeabi_vec_delete.clean
    arm_exceptions_alloc.o(.text) refers to arm_exceptions_globs.o(.text) for __cxa_get_globals
    arm_exceptions_alloc.o(.text) refers to h1_alloc.o(.text) for malloc
    arm_exceptions_alloc.o(.text) refers to arm_exceptions_mem.o(.text) for __ARM_exceptions_buffer_allocate
    arm_exceptions_alloc.o(.text) refers to arm_exceptions_callterm.o(.text) for __ARM::call_terminate_handler(_Unwind_Control_Block*)
    arm_exceptions_alloc.o(.ARM.exidx) refers to arm_exceptions_alloc.o(.text) for .text
    arm_exceptions_callunex.o(.text) refers to arm_exceptions_globs.o(.text) for __cxa_get_globals
    arm_exceptions_callunex.o(.text) refers to arm_exceptions_begincatch.o(.text) for __cxa_begin_catch
    arm_exceptions_callunex.o(.text) refers to arm_exceptions_support.o(.text) for __ARM::is_foreign_exception(_Unwind_Control_Block*)
    arm_exceptions_callunex.o(.text) refers to arm_exceptions_unexpected.o(.text) for std::unexpected()
    arm_exceptions_callunex.o(.text) refers to arm_exceptions_endcatch.o(.text) for __cxa_end_catch
    arm_exceptions_callunex.o(.text) refers to arm_exceptions_terminate.o(.text) for std::terminate()
    arm_exceptions_callunex.o(.text) refers to arm_exceptions_throw.o(.text) for __cxa_type_match
    arm_exceptions_callunex.o(.text) refers to arm_exceptions_rethrow.o(.text) for __cxa_rethrow
    arm_exceptions_callunex.o(.text) refers to type_info_eq.o(i._ZNKSt9type_infoeqERKS_) for std::type_info::operator ==(const std::type_info&) const
    arm_exceptions_callunex.o(.text) refers to bad_exception_ctor.o(i._ZNSt13bad_exceptionC1Ev) for std::bad_exception::bad_exception()
    arm_exceptions_callunex.o(.text) refers to arm_exceptions_alloc.o(.text) for __cxa_allocate_exception
    arm_exceptions_callunex.o(.text) refers to bad_exception_cctor.o(i._ZNSt13bad_exceptionC1ERKS_) for std::bad_exception::bad_exception(const std::bad_exception&)
    arm_exceptions_callunex.o(.text) refers to bad_exception_dtor.o(i._ZNSt13bad_exceptionD1Ev) for std::bad_exception::~bad_exception()
    arm_exceptions_callunex.o(.text) refers to arm_exceptions_callterm.o(.text) for __ARM::call_terminate_handler(_Unwind_Control_Block*)
    arm_exceptions_callunex.o(.text) refers to bad_exception_dtor.o(.constdata__ZTISt13bad_exception) for typeinfo for std::bad_exception
    arm_exceptions_callunex.o(.text.clean) refers to arm_exceptions_endcatch.o(.text) for __cxa_end_catch
    arm_exceptions_callunex.o(.text.clean) refers to arm_exceptions_cleanup.o(.emb_text) for __cxa_end_cleanup
    arm_exceptions_callunex.o(.ARM.exidx) refers to arm_exceptions_callunex.o(.text) for .text
    arm_exceptions_callunex.o(.ARM.exidx) refers to unwind_pr0.o(.text) for __aeabi_unwind_cpp_pr0
    arm_exceptions_callunex.o(.ARM.exidx) refers to arm_exceptions_callunex.o(.ARM.extab) for .extab.__cxa_call_unexpected
    arm_exceptions_callunex.o(.ARM.exidx) refers to arm_exceptions_callunex.o(.text.clean) for .text.clean
    arm_exceptions_callunex.o(.ARM.extab) refers to arm_exceptions_callunex.o(.text) for .text
    arm_exceptions_callunex.o(.ARM.extab) refers to arm_exceptions_callunex.o(.text.clean) for .text.clean
    arm_exceptions_callterm.o(.text) refers to arm_exceptions_globs.o(.text) for __cxa_get_globals
    arm_exceptions_callterm.o(.text) refers to arm_exceptions_support.o(.text) for __ARM::is_foreign_exception(_Unwind_Control_Block*)
    arm_exceptions_callterm.o(.text) refers to arm_exceptions_terminate.o(.text) for std::terminate()
    arm_exceptions_callterm.o(.text) refers to arm_exceptions_begincatch.o(.text) for __cxa_begin_catch
    arm_exceptions_callterm.o(.ARM.exidx) refers to arm_exceptions_callterm.o(.text) for .text
    arm_exceptions_cleanup.o(.emb_text) refers to arm_exceptions_cleanup.o(.text) for __ARM_cxa_end_cleanup
    arm_exceptions_cleanup.o(.emb_text) refers (Weak) to unwinder.o(.emb_text) for _Unwind_Resume
    arm_exceptions_cleanup.o(.ARM.exidx) refers to arm_exceptions_cleanup.o(.emb_text) for __cxa_end_cleanup
    arm_exceptions_cleanup.o(.text) refers to arm_exceptions_globs.o(.text) for __cxa_get_globals
    arm_exceptions_cleanup.o(.text) refers to arm_exceptions_support.o(.text) for __ARM::is_foreign_exception(_Unwind_Control_Block*)
    arm_exceptions_cleanup.o(.text) refers to arm_exceptions_foreign.o(.text) for __ARM::get_foreign_intermediary(__cxa_exception*, _Unwind_Control_Block*)
    arm_exceptions_cleanup.o(.text) refers to arm_exceptions_terminate.o(.text) for std::terminate()
    arm_exceptions_cleanup.o(.text) refers to arm_exceptions_free.o(.text) for __cxa_free_exception
    arm_exceptions_cleanup.o(.ARM.exidx) refers to arm_exceptions_cleanup.o(.text) for .text
    arm_exceptions_throw.o(.text) refers to arm_exceptions_globs.o(.text) for __cxa_get_globals
    arm_exceptions_throw.o(.text) refers to arm_exceptions_free.o(.text) for __cxa_free_exception
    arm_exceptions_throw.o(.text) refers to arm_exceptions_begincatch.o(.text) for __cxa_begin_catch
    arm_exceptions_throw.o(.text) refers to arm_exceptions_rethrow.o(.text) for __cxa_rethrow
    arm_exceptions_throw.o(.text) refers to unwind_activity.o(.emb_text) for _Unwind_Activity
    arm_exceptions_throw.o(.text) refers to unwinder.o(.emb_text) for _Unwind_RaiseException
    arm_exceptions_throw.o(.text) refers to arm_exceptions_callterm.o(.text) for __cxa_call_terminate
    arm_exceptions_throw.o(.text) refers to arm_exceptions_support.o(.text) for __ARM::is_foreign_exception(_Unwind_Control_Block*)
    arm_exceptions_throw.o(.text) refers to type_info_eq.o(i._ZNKSt9type_infoeqERKS_) for std::type_info::operator ==(const std::type_info&) const
    arm_exceptions_throw.o(.text) refers to arm_exceptions_throw.o(i.__ARM_common_get_typeid) for __ARM_common_get_typeid
    arm_exceptions_throw.o(.text) refers to type_info_ne.o(i._ZNKSt9type_infoneERKS_) for std::type_info::operator !=(const std::type_info&) const
    arm_exceptions_throw.o(.text) refers to rtti.o(i.__derived_to_base_conversion) for __derived_to_base_conversion
    arm_exceptions_throw.o(.text) refers to lib_rtti_impl.o(.constdata__ZTIN10__cxxabiv119__pointer_type_infoE) for typeinfo for __cxxabiv1::__pointer_type_info
    arm_exceptions_throw.o(.text) refers to arm_exceptions_throw.o(.constdata__ZTIv) for typeinfo for void
    arm_exceptions_throw.o(.text) refers to lib_rtti_impl.o(.constdata__ZTIN10__cxxabiv120__si_class_type_infoE) for typeinfo for __cxxabiv1::__si_class_type_info
    arm_exceptions_throw.o(.text) refers to lib_rtti_impl.o(.constdata__ZTIN10__cxxabiv121__vmi_class_type_infoE) for typeinfo for __cxxabiv1::__vmi_class_type_info
    arm_exceptions_throw.o(.text.clean) refers to arm_exceptions_endcatch.o(.text) for __cxa_end_catch
    arm_exceptions_throw.o(.text.clean) refers to arm_exceptions_cleanup.o(.emb_text) for __cxa_end_cleanup
    arm_exceptions_throw.o(.ARM.exidx) refers to arm_exceptions_throw.o(.text) for .text
    arm_exceptions_throw.o(.ARM.exidx) refers to unwind_pr0.o(.text) for __aeabi_unwind_cpp_pr0
    arm_exceptions_throw.o(.ARM.exidx) refers to arm_exceptions_throw.o(.ARM.extab) for .extab._ZN38_INTERNAL_16_arm_exceptions_c_8b2d39d624armcpp_exception_cleanupE19_Unwind_Reason_CodeP21_Unwind_Control_Block
    arm_exceptions_throw.o(.ARM.exidx) refers to arm_exceptions_throw.o(.text.clean) for .text.clean
    arm_exceptions_throw.o(.ARM.extab) refers to arm_exceptions_throw.o(.text) for .text
    arm_exceptions_throw.o(.ARM.extab) refers to arm_exceptions_throw.o(.text.clean) for .text.clean
    unwind_pr0.o(.text) refers to unwind_prcommon.o(.text) for __ARM_unwind_cpp_prcommon
    unwind_pr0.o(.ARM.exidx) refers to unwind_pr0.o(.text) for .text
    unwind_pr1.o(.text) refers to unwind_prcommon.o(.text) for __ARM_unwind_cpp_prcommon
    unwind_pr1.o(.ARM.exidx) refers to unwind_pr1.o(.text) for .text
    __rtentry.o(.ARM.Collect$$rtentry$$00000000) refers (Special) to __rtentry2.o(.ARM.Collect$$rtentry$$0000000A) for __rt_entry_li
    __rtentry.o(.ARM.Collect$$rtentry$$00000000) refers (Special) to __rtentry2.o(.ARM.Collect$$rtentry$$0000000D) for __rt_entry_main
    __rtentry.o(.ARM.Collect$$rtentry$$00000000) refers (Special) to __rtentry2.o(.ARM.Collect$$rtentry$$0000000C) for __rt_entry_postli_1
    __rtentry.o(.ARM.Collect$$rtentry$$00000000) refers (Special) to __rtentry2.o(.ARM.Collect$$rtentry$$00000009) for __rt_entry_postsh_1
    __rtentry.o(.ARM.Collect$$rtentry$$00000000) refers (Special) to __rtentry2.o(.ARM.Collect$$rtentry$$00000002) for __rt_entry_presh_1
    __rtentry.o(.ARM.Collect$$rtentry$$00000000) refers (Special) to __rtentry4.o(.ARM.Collect$$rtentry$$00000004) for __rt_entry_sh
    aeabi_ldiv0_sigfpe.o(.text) refers to rt_div0.o(.text) for __rt_div0
    malloc.o(.text) refers (Special) to hguard.o(.text) for __heap$guard
    malloc.o(.text) refers (Special) to init_alloc.o(.text) for _init_alloc
    malloc.o(.text) refers to rt_heap_descriptor_intlibspace.o(.text) for __rt_heap_descriptor
    malloc.o(.text) refers to heapstubs.o(.text) for __Heap_Alloc
    h1_alloc.o(.text) refers (Special) to h1_init.o(.text) for __Heap_Initialize
    h1_alloc.o(.text) refers to rt_heap_descriptor_intlibspace.o(.text) for __rt_heap_descriptor
    h1_alloc.o(.text) refers to init_alloc.o(.text) for __Heap_Full
    h1_alloc_mt.o(.text) refers (Special) to h1_init.o(.text) for __Heap_Initialize
    h1_alloc_mt.o(.text) refers to init_alloc.o(.text) for __Heap_Full
    h1_alloc_mt.o(.text) refers to rt_heap_descriptor_intlibspace.o(.text) for __rt_heap_descriptor
    heap2.o(i._FDIterate) refers to heap2.o(.conststring) for .conststring
    heap2.o(i.___Heap_ProvideMemory$realtime) refers to fdtree.o(i._FDTree_Delete) for _FDTree_Delete
    heap2.o(i.___Heap_ProvideMemory$realtime) refers to fdtree.o(i._FDTree_Insert) for _FDTree_Insert
    heap2.o(i.___Heap_Stats$realtime) refers to heap2.o(i._Heap2_StatsIterate) for _Heap2_StatsIterate
    heap2.o(i.___Heap_Valid$realtime) refers to heap2.o(i._FDIterate) for _FDIterate
    heap2.o(i.___Heap_Valid$realtime) refers to heap2.o(.conststring) for .conststring
    heap2.o(i._free$realtime) refers to rt_heap_descriptor_intlibspace.o(.text) for __rt_heap_descriptor
    heap2.o(i._free$realtime) refers to fdtree.o(i._FDTree_Delete) for _FDTree_Delete
    heap2.o(i._free$realtime) refers to fdtree.o(i._FDTree_Insert) for _FDTree_Insert
    heap2.o(i._malloc$realtime) refers to rt_heap_descriptor_intlibspace.o(.text) for __rt_heap_descriptor
    heap2.o(i._malloc$realtime) refers to fdtree.o(i._FDTree_FindFirst) for _FDTree_FindFirst
    heap2.o(i._malloc$realtime) refers to init_alloc.o(.text) for __Heap_Full
    heap2.o(i._malloc$realtime) refers to fdtree.o(i._FDTree_RemoveNode) for _FDTree_RemoveNode
    heap2.o(i._malloc$realtime) refers to fdtree.o(i._FDTree_Insert) for _FDTree_Insert
    heap2.o(i._posix_memalign$realtime) refers to rt_heap_descriptor_intlibspace.o(.text) for __rt_heap_descriptor
    heap2.o(i._posix_memalign$realtime) refers to fdtree.o(i._FDTree_FindFirst) for _FDTree_FindFirst
    heap2.o(i._posix_memalign$realtime) refers to init_alloc.o(.text) for __Heap_Full
    heap2.o(i._posix_memalign$realtime) refers to fdtree.o(i._FDTree_RemoveNode) for _FDTree_RemoveNode
    heap2.o(i._posix_memalign$realtime) refers to fdtree.o(i._FDTree_Insert) for _FDTree_Insert
    heap2.o(i._realloc$realtime) refers to rt_heap_descriptor_intlibspace.o(.text) for __rt_heap_descriptor
    heap2.o(i._realloc$realtime) refers to fdtree.o(i._FDTree_Insert) for _FDTree_Insert
    heap2.o(i._realloc$realtime) refers to h1_free.o(.text) for free
    heap2.o(i._realloc$realtime) refers to h1_alloc.o(.text) for malloc
    heap2.o(i._realloc$realtime) refers to fdtree.o(i._FDTree_Delete) for _FDTree_Delete
    heap2.o(i._realloc$realtime) refers to rt_memcpy_w.o(.text) for __aeabi_memcpy4
    heap2mt.o(i._FDIterate) refers to heap2mt.o(.conststring) for .conststring
    heap2mt.o(i.___Heap_Initialize$realtime$concurrent) refers to mutex_dummy.o(.text) for _mutex_initialize
    heap2mt.o(i.___Heap_ProvideMemory$realtime$concurrent) refers to fdtree.o(i._FDTree_Delete) for _FDTree_Delete
    heap2mt.o(i.___Heap_ProvideMemory$realtime$concurrent) refers to fdtree.o(i._FDTree_Insert) for _FDTree_Insert
    heap2mt.o(i.___Heap_Stats$realtime$concurrent) refers to heap2mt.o(i._Heap2_StatsIterate) for _Heap2_StatsIterate
    heap2mt.o(i.___Heap_Valid$realtime$concurrent) refers to heap2mt.o(i._FDIterate) for _FDIterate
    heap2mt.o(i.___Heap_Valid$realtime$concurrent) refers to heap2mt.o(.conststring) for .conststring
    heap2mt.o(i._free$realtime$concurrent) refers to rt_heap_descriptor_intlibspace.o(.text) for __rt_heap_descriptor
    heap2mt.o(i._free$realtime$concurrent) refers to fdtree.o(i._FDTree_Delete) for _FDTree_Delete
    heap2mt.o(i._free$realtime$concurrent) refers to fdtree.o(i._FDTree_Insert) for _FDTree_Insert
    heap2mt.o(i._malloc$realtime$concurrent) refers to rt_heap_descriptor_intlibspace.o(.text) for __rt_heap_descriptor
    heap2mt.o(i._malloc$realtime$concurrent) refers to fdtree.o(i._FDTree_FindFirst) for _FDTree_FindFirst
    heap2mt.o(i._malloc$realtime$concurrent) refers to init_alloc.o(.text) for __Heap_Full
    heap2mt.o(i._malloc$realtime$concurrent) refers to fdtree.o(i._FDTree_RemoveNode) for _FDTree_RemoveNode
    heap2mt.o(i._malloc$realtime$concurrent) refers to fdtree.o(i._FDTree_Insert) for _FDTree_Insert
    heap2mt.o(i._posix_memalign$realtime$concurrent) refers to rt_heap_descriptor_intlibspace.o(.text) for __rt_heap_descriptor
    heap2mt.o(i._posix_memalign$realtime$concurrent) refers to fdtree.o(i._FDTree_FindFirst) for _FDTree_FindFirst
    heap2mt.o(i._posix_memalign$realtime$concurrent) refers to init_alloc.o(.text) for __Heap_Full
    heap2mt.o(i._posix_memalign$realtime$concurrent) refers to fdtree.o(i._FDTree_RemoveNode) for _FDTree_RemoveNode
    heap2mt.o(i._posix_memalign$realtime$concurrent) refers to fdtree.o(i._FDTree_Insert) for _FDTree_Insert
    heap2mt.o(i._realloc$realtime$concurrent) refers to rt_heap_descriptor_intlibspace.o(.text) for __rt_heap_descriptor
    heap2mt.o(i._realloc$realtime$concurrent) refers to fdtree.o(i._FDTree_Insert) for _FDTree_Insert
    heap2mt.o(i._realloc$realtime$concurrent) refers to h1_free.o(.text) for free
    heap2mt.o(i._realloc$realtime$concurrent) refers to h1_alloc.o(.text) for malloc
    heap2mt.o(i._realloc$realtime$concurrent) refers to fdtree.o(i._FDTree_Delete) for _FDTree_Delete
    heap2mt.o(i._realloc$realtime$concurrent) refers to rt_memcpy_w.o(.text) for __aeabi_memcpy4
    defsig_pvfn_outer.o(.text) refers to defsig_pvfn_inner.o(.text) for __rt_SIGPVFN_inner
    defsig_pvfn_outer.o(.text) refers to defsig_exit.o(.text) for __sig_exit
    defsig_pvfn_formal.o(.text) refers to rt_raise.o(.text) for __rt_raise
    libinit2.o(.ARM.Collect$$libinit$$00000001) refers to fpinit.o(x$fpl$fpinit) for _fp_init
    libinit2.o(.ARM.Collect$$libinit$$00000005) refers (Weak) to init_alloc.o(.text) for _init_alloc
    libinit2.o(.ARM.Collect$$libinit$$00000010) refers to libinit2.o(.ARM.Collect$$libinit$$0000000F) for .ARM.Collect$$libinit$$0000000F
    libinit2.o(.ARM.Collect$$libinit$$00000012) refers to libinit2.o(.ARM.Collect$$libinit$$0000000F) for .ARM.Collect$$libinit$$0000000F
    libinit2.o(.ARM.Collect$$libinit$$00000014) refers to libinit2.o(.ARM.Collect$$libinit$$0000000F) for .ARM.Collect$$libinit$$0000000F
    libinit2.o(.ARM.Collect$$libinit$$00000016) refers to libinit2.o(.ARM.Collect$$libinit$$0000000F) for .ARM.Collect$$libinit$$0000000F
    libinit2.o(.ARM.Collect$$libinit$$00000018) refers to libinit2.o(.ARM.Collect$$libinit$$0000000F) for .ARM.Collect$$libinit$$0000000F
    libinit2.o(.ARM.Collect$$libinit$$00000026) refers to argv_veneer.o(.emb_text) for __ARM_argv_veneer
    libinit2.o(.ARM.Collect$$libinit$$00000027) refers to argv_veneer.o(.emb_text) for __ARM_argv_veneer
    libinit2.o(.ARM.Collect$$libinit$$00000031) refers (Weak) to init_aeabi.o(.text) for __cpp_initialize__aeabi_
    delete.o(i._ZdlPv) refers to h1_free.o(.text) for free
    delete.o(.ARM.exidx) refers to delete.o(i._ZdlPv) for i._ZdlPv
    new.o(i._Znwj) refers to rt_new_handler_addr_intlibspace.o(.text) for __rt_new_handler_addr
    new.o(i._Znwj) refers to h1_alloc.o(.text) for malloc
    new.o(i._Znwj) refers to newhandler.o(i._Z21__default_new_handlerv) for __default_new_handler()
    new.o(.ARM.exidx) refers to new.o(i._Znwj) for i._Znwj
    new.o(.ARM.exidx) refers to unwind_pr0.o(.text) for __aeabi_unwind_cpp_pr0
    new.o(.ARM.exidx) refers to new.o(.ARM.extab) for .extab._Znwj
    new.o(.ARM.extab) refers to arm_exceptions_callunex.o(.text) for __cxa_call_unexpected
    new.o(.ARM.extab) refers to bad_alloc_dtor.o(.constdata__ZTISt9bad_alloc) for typeinfo for std::bad_alloc
    rtti.o(i._ZN27_INTERNAL_6_rtti_c_066a44b012tbc_downcastEPvPKSt9type_infoP28a_base_class_traversal_blockPN10__cxxabiv122__base_class_type_infoE) refers to type_info_eq.o(i._ZNKSt9type_infoeqERKS_) for std::type_info::operator ==(const std::type_info&) const
    rtti.o(i._ZN27_INTERNAL_6_rtti_c_066a44b017tbc_post_downcastEPvPKSt9type_infoP28a_base_class_traversal_blockPN10__cxxabiv122__base_class_type_infoE) refers to type_info_eq.o(i._ZNKSt9type_infoeqERKS_) for std::type_info::operator ==(const std::type_info&) const
    rtti.o(i._ZN27_INTERNAL_6_rtti_c_066a44b021traverse_base_classesEPvPKSt9type_infoP28a_base_class_traversal_blockPN10__cxxabiv122__base_class_type_infoE) refers to arm_exceptions_throw.o(i.__ARM_common_get_typeid) for __ARM_common_get_typeid
    rtti.o(i._ZN27_INTERNAL_6_rtti_c_066a44b021traverse_base_classesEPvPKSt9type_infoP28a_base_class_traversal_blockPN10__cxxabiv122__base_class_type_infoE) refers to type_info_eq.o(i._ZNKSt9type_infoeqERKS_) for std::type_info::operator ==(const std::type_info&) const
    rtti.o(i._ZN27_INTERNAL_6_rtti_c_066a44b021traverse_base_classesEPvPKSt9type_infoP28a_base_class_traversal_blockPN10__cxxabiv122__base_class_type_infoE) refers to rtti.o(i._ZN27_INTERNAL_6_rtti_c_066a44b024get_virtual_base_pointerEPvPN10__cxxabiv122__base_class_type_infoE) for [local to rtti_c]::get_virtual_base_pointer(void*, __cxxabiv1::__base_class_type_info*)
    rtti.o(i._ZN27_INTERNAL_6_rtti_c_066a44b021traverse_base_classesEPvPKSt9type_infoP28a_base_class_traversal_blockPN10__cxxabiv122__base_class_type_infoE) refers to lib_rtti_impl.o(.constdata__ZTIN10__cxxabiv120__si_class_type_infoE) for typeinfo for __cxxabiv1::__si_class_type_info
    rtti.o(i._ZN27_INTERNAL_6_rtti_c_066a44b021traverse_base_classesEPvPKSt9type_infoP28a_base_class_traversal_blockPN10__cxxabiv122__base_class_type_infoE) refers to lib_rtti_impl.o(.constdata__ZTIN10__cxxabiv121__vmi_class_type_infoE) for typeinfo for __cxxabiv1::__vmi_class_type_info
    rtti.o(i._ZN27_INTERNAL_6_rtti_c_066a44b023find_base_class_at_addrEPvS0_PKSt9type_infoS3_Pi) refers to arm_exceptions_throw.o(i.__ARM_common_get_typeid) for __ARM_common_get_typeid
    rtti.o(i._ZN27_INTERNAL_6_rtti_c_066a44b023find_base_class_at_addrEPvS0_PKSt9type_infoS3_Pi) refers to type_info_eq.o(i._ZNKSt9type_infoeqERKS_) for std::type_info::operator ==(const std::type_info&) const
    rtti.o(i._ZN27_INTERNAL_6_rtti_c_066a44b023find_base_class_at_addrEPvS0_PKSt9type_infoS3_Pi) refers to rtti.o(i._ZN27_INTERNAL_6_rtti_c_066a44b024get_virtual_base_pointerEPvPN10__cxxabiv122__base_class_type_infoE) for [local to rtti_c]::get_virtual_base_pointer(void*, __cxxabiv1::__base_class_type_info*)
    rtti.o(i._ZN27_INTERNAL_6_rtti_c_066a44b023find_base_class_at_addrEPvS0_PKSt9type_infoS3_Pi) refers to lib_rtti_impl.o(.constdata__ZTIN10__cxxabiv120__si_class_type_infoE) for typeinfo for __cxxabiv1::__si_class_type_info
    rtti.o(i._ZN27_INTERNAL_6_rtti_c_066a44b023find_base_class_at_addrEPvS0_PKSt9type_infoS3_Pi) refers to lib_rtti_impl.o(.constdata__ZTIN10__cxxabiv121__vmi_class_type_infoE) for typeinfo for __cxxabiv1::__vmi_class_type_info
    rtti.o(i._ZN27_INTERNAL_6_rtti_c_066a44b028derived_to_base_conversion_rEPvPS0_PKSt9type_infoS4_jPiiPS4_P19a_result_virtualityS5_) refers to arm_exceptions_throw.o(i.__ARM_common_get_typeid) for __ARM_common_get_typeid
    rtti.o(i._ZN27_INTERNAL_6_rtti_c_066a44b028derived_to_base_conversion_rEPvPS0_PKSt9type_infoS4_jPiiPS4_P19a_result_virtualityS5_) refers to type_info_eq.o(i._ZNKSt9type_infoeqERKS_) for std::type_info::operator ==(const std::type_info&) const
    rtti.o(i._ZN27_INTERNAL_6_rtti_c_066a44b028derived_to_base_conversion_rEPvPS0_PKSt9type_infoS4_jPiiPS4_P19a_result_virtualityS5_) refers to rtti.o(i._ZN27_INTERNAL_6_rtti_c_066a44b024get_virtual_base_pointerEPvPN10__cxxabiv122__base_class_type_infoE) for [local to rtti_c]::get_virtual_base_pointer(void*, __cxxabiv1::__base_class_type_info*)
    rtti.o(i._ZN27_INTERNAL_6_rtti_c_066a44b028derived_to_base_conversion_rEPvPS0_PKSt9type_infoS4_jPiiPS4_P19a_result_virtualityS5_) refers to lib_rtti_impl.o(.constdata__ZTIN10__cxxabiv120__si_class_type_infoE) for typeinfo for __cxxabiv1::__si_class_type_info
    rtti.o(i._ZN27_INTERNAL_6_rtti_c_066a44b028derived_to_base_conversion_rEPvPS0_PKSt9type_infoS4_jPiiPS4_P19a_result_virtualityS5_) refers to lib_rtti_impl.o(.constdata__ZTIN10__cxxabiv121__vmi_class_type_infoE) for typeinfo for __cxxabiv1::__vmi_class_type_info
    rtti.o(i.__derived_to_base_conversion) refers to arm_exceptions_throw.o(i.__ARM_common_get_typeid) for __ARM_common_get_typeid
    rtti.o(i.__derived_to_base_conversion) refers to type_info_eq.o(i._ZNKSt9type_infoeqERKS_) for std::type_info::operator ==(const std::type_info&) const
    rtti.o(i.__derived_to_base_conversion) refers to rtti.o(i._ZN27_INTERNAL_6_rtti_c_066a44b028derived_to_base_conversion_rEPvPS0_PKSt9type_infoS4_jPiiPS4_P19a_result_virtualityS5_) for [local to rtti_c]::derived_to_base_conversion_r(void*, void**, const std::type_info*, const std::type_info*, unsigned, int*, int, const std::type_info**, a_result_virtuality*, int*)
    rtti.o(i.__derived_to_base_conversion) refers to lib_rtti_impl.o(.constdata__ZTIN10__cxxabiv121__vmi_class_type_infoE) for typeinfo for __cxxabiv1::__vmi_class_type_info
    rtti.o(i.__dynamic_cast) refers to rtti.o(i._ZN27_INTERNAL_6_rtti_c_066a44b021traverse_base_classesEPvPKSt9type_infoP28a_base_class_traversal_blockPN10__cxxabiv122__base_class_type_infoE) for [local to rtti_c]::traverse_base_classes(void*, const std::type_info*, a_base_class_traversal_block*, __cxxabiv1::__base_class_type_info*)
    rtti.o(i.__dynamic_cast) refers to rtti.o(i._ZN27_INTERNAL_6_rtti_c_066a44b023find_base_class_at_addrEPvS0_PKSt9type_infoS3_Pi) for [local to rtti_c]::find_base_class_at_addr(void*, void*, const std::type_info*, const std::type_info*, int*)
    rtti.o(i.__dynamic_cast) refers to type_info_eq.o(i._ZNKSt9type_infoeqERKS_) for std::type_info::operator ==(const std::type_info&) const
    rtti.o(i.__dynamic_cast) refers to rtti.o(i.__derived_to_base_conversion) for __derived_to_base_conversion
    rtti.o(i.__dynamic_cast) refers to rtti.o(i._ZN27_INTERNAL_6_rtti_c_066a44b012tbc_downcastEPvPKSt9type_infoP28a_base_class_traversal_blockPN10__cxxabiv122__base_class_type_infoE) for [local to rtti_c]::tbc_downcast(void*, const std::type_info*, a_base_class_traversal_block*, __cxxabiv1::__base_class_type_info*)
    rtti.o(i.__dynamic_cast) refers to rtti.o(i._ZN27_INTERNAL_6_rtti_c_066a44b017tbc_post_downcastEPvPKSt9type_infoP28a_base_class_traversal_blockPN10__cxxabiv122__base_class_type_infoE) for [local to rtti_c]::tbc_post_downcast(void*, const std::type_info*, a_base_class_traversal_block*, __cxxabiv1::__base_class_type_info*)
    rtti.o(.ARM.exidx) refers to rtti.o(i._ZN27_INTERNAL_6_rtti_c_066a44b021traverse_base_classesEPvPKSt9type_infoP28a_base_class_traversal_blockPN10__cxxabiv122__base_class_type_infoE) for i._ZN27_INTERNAL_6_rtti_c_066a44b021traverse_base_classesEPvPKSt9type_infoP28a_base_class_traversal_blockPN10__cxxabiv122__base_class_type_infoE
    rtti.o(.ARM.exidx) refers to unwind_pr0.o(.text) for __aeabi_unwind_cpp_pr0
    rtti.o(.ARM.exidx) refers to rtti.o(i._ZN27_INTERNAL_6_rtti_c_066a44b028derived_to_base_conversion_rEPvPS0_PKSt9type_infoS4_jPiiPS4_P19a_result_virtualityS5_) for i._ZN27_INTERNAL_6_rtti_c_066a44b028derived_to_base_conversion_rEPvPS0_PKSt9type_infoS4_jPiiPS4_P19a_result_virtualityS5_
    rtti.o(.ARM.exidx) refers to unwind_pr0.o(.text) for __aeabi_unwind_cpp_pr0
    rtti.o(.ARM.exidx) refers to rtti.o(i.__derived_to_base_conversion) for i.__derived_to_base_conversion
    rtti.o(.ARM.exidx) refers to unwind_pr0.o(.text) for __aeabi_unwind_cpp_pr0
    rtti.o(.ARM.exidx) refers to rtti.o(i._ZN27_INTERNAL_6_rtti_c_066a44b023find_base_class_at_addrEPvS0_PKSt9type_infoS3_Pi) for i._ZN27_INTERNAL_6_rtti_c_066a44b023find_base_class_at_addrEPvS0_PKSt9type_infoS3_Pi
    rtti.o(.ARM.exidx) refers to unwind_pr0.o(.text) for __aeabi_unwind_cpp_pr0
    rtti.o(.ARM.exidx) refers to rtti.o(i._ZN27_INTERNAL_6_rtti_c_066a44b012tbc_downcastEPvPKSt9type_infoP28a_base_class_traversal_blockPN10__cxxabiv122__base_class_type_infoE) for i._ZN27_INTERNAL_6_rtti_c_066a44b012tbc_downcastEPvPKSt9type_infoP28a_base_class_traversal_blockPN10__cxxabiv122__base_class_type_infoE
    rtti.o(.ARM.exidx) refers to unwind_pr0.o(.text) for __aeabi_unwind_cpp_pr0
    rtti.o(.ARM.exidx) refers to rtti.o(i._ZN27_INTERNAL_6_rtti_c_066a44b017tbc_post_downcastEPvPKSt9type_infoP28a_base_class_traversal_blockPN10__cxxabiv122__base_class_type_infoE) for i._ZN27_INTERNAL_6_rtti_c_066a44b017tbc_post_downcastEPvPKSt9type_infoP28a_base_class_traversal_blockPN10__cxxabiv122__base_class_type_infoE
    rtti.o(.ARM.exidx) refers to unwind_pr0.o(.text) for __aeabi_unwind_cpp_pr0
    rtti.o(.ARM.exidx) refers to rtti.o(i.__dynamic_cast) for i.__dynamic_cast
    rtti.o(.ARM.exidx) refers to unwind_pr0.o(.text) for __aeabi_unwind_cpp_pr0
    rtti.o(.ARM.exidx) refers to rtti.o(i._ZN27_INTERNAL_6_rtti_c_066a44b024get_virtual_base_pointerEPvPN10__cxxabiv122__base_class_type_infoE) for i._ZN27_INTERNAL_6_rtti_c_066a44b024get_virtual_base_pointerEPvPN10__cxxabiv122__base_class_type_infoE
    bad_alloc_dtor.o(i._ZNSt9bad_allocD0Ev) refers to bad_alloc_dtor.o(i._ZNSt9bad_allocD1Ev) for std::bad_alloc::~bad_alloc()
    bad_alloc_dtor.o(i._ZNSt9bad_allocD0Ev) refers to delete.o(i._ZdlPv) for operator delete (void*)
    bad_alloc_dtor.o(.ARM.exidx) refers to bad_alloc_dtor.o(i._ZNSt9bad_allocD1Ev) for i._ZNSt9bad_allocD1Ev
    bad_alloc_dtor.o(.ARM.exidx) refers to bad_alloc_dtor.o(i._ZNSt9bad_allocD0Ev) for i._ZNSt9bad_allocD0Ev
    bad_exception_cctor.o(i._ZNSt13bad_exceptionC1ERKS_) refers to exception_cctor.o(i._ZNSt9exceptionC1ERKS_) for std::exception::exception(const std::exception&)
    bad_exception_cctor.o(i._ZNSt13bad_exceptionC1ERKS_) refers to bad_exception_dtor.o(.constdata__ZTVSt13bad_exception) for vtable for std::bad_exception
    bad_exception_cctor.o(.ARM.exidx) refers to bad_exception_cctor.o(i._ZNSt13bad_exceptionC1ERKS_) for i._ZNSt13bad_exceptionC1ERKS_
    bad_exception_ctor.o(i._ZNSt13bad_exceptionC1Ev) refers to exception_ctor.o(i._ZNSt9exceptionC1Ev) for std::exception::exception()
    bad_exception_ctor.o(i._ZNSt13bad_exceptionC1Ev) refers to bad_exception_dtor.o(.constdata__ZTVSt13bad_exception) for vtable for std::bad_exception
    bad_exception_ctor.o(.ARM.exidx) refers to bad_exception_ctor.o(i._ZNSt13bad_exceptionC1Ev) for i._ZNSt13bad_exceptionC1Ev
    bad_exception_dtor.o(i._ZNSt13bad_exceptionD0Ev) refers to bad_exception_dtor.o(i._ZNSt13bad_exceptionD1Ev) for std::bad_exception::~bad_exception()
    bad_exception_dtor.o(i._ZNSt13bad_exceptionD0Ev) refers to delete.o(i._ZdlPv) for operator delete (void*)
    bad_exception_dtor.o(.ARM.exidx) refers to bad_exception_dtor.o(i._ZNSt13bad_exceptionD1Ev) for i._ZNSt13bad_exceptionD1Ev
    bad_exception_dtor.o(.ARM.exidx) refers to bad_exception_dtor.o(i._ZNSt13bad_exceptionD0Ev) for i._ZNSt13bad_exceptionD0Ev
    cxa_vec_new.o(i.__cxa_vec_new) refers to array_new_general.o(i.__ARM_array_new_general) for __ARM_array_new_general
    cxa_vec_new.o(i.__cxa_vec_new) refers to array_del.o(i._ZdaPv) for operator delete[] (void*)
    cxa_vec_new.o(.ARM.exidx) refers to cxa_vec_new.o(i.__cxa_vec_new) for i.__cxa_vec_new
    cxa_vec_new.o(.ARM.exidx) refers to unwind_pr0.o(.text) for __aeabi_unwind_cpp_pr0
    type_info_dtor.o(.ARM.exidx) refers to type_info_dtor.o(i._ZNSt9type_infoD1Ev) for i._ZNSt9type_infoD1Ev
    type_info_dtor.o(.ARM.exidx) refers to type_info_dtor.o(i._ZNSt9type_infoD0Ev) for i._ZNSt9type_infoD0Ev
    type_info_eq.o(.ARM.exidx) refers to type_info_eq.o(i._ZNKSt9type_infoeqERKS_) for i._ZNKSt9type_infoeqERKS_
    type_info_ne.o(.ARM.exidx) refers to type_info_ne.o(i._ZNKSt9type_infoneERKS_) for i._ZNKSt9type_infoneERKS_
    aeabi_vec_dtor_cookie.o(i.__aeabi_vec_dtor_cookie) refers to aeabi_vec_dtor.o(i.__aeabi_vec_dtor) for __aeabi_vec_dtor
    aeabi_vec_dtor_cookie.o(.ARM.exidx) refers to aeabi_vec_dtor_cookie.o(i.__aeabi_vec_dtor_cookie) for i.__aeabi_vec_dtor_cookie
    arm_exceptions_free.o(.text) refers to arm_exceptions_globs.o(.text) for __cxa_get_globals
    arm_exceptions_free.o(.text) refers to arm_exceptions_mem.o(.text) for __ARM_exceptions_buffer_free
    arm_exceptions_free.o(.text) refers to h1_free.o(.text) for free
    arm_exceptions_free.o(.ARM.exidx) refers to arm_exceptions_free.o(.text) for .text
    arm_exceptions_terminate.o(.text) refers to arm_exceptions_globs.o(.text) for __cxa_get_globals
    arm_exceptions_terminate.o(.text) refers to abort.o(.text) for abort
    arm_exceptions_terminate.o(.ARM.exidx) refers to arm_exceptions_terminate.o(.text) for .text
    arm_exceptions_mem.o(.text) refers to h1_alloc.o(.text) for malloc
    arm_exceptions_mem.o(.ARM.exidx) refers to arm_exceptions_mem.o(.text) for .text
    arm_exceptions_support.o(.text) refers to arm_exceptions_support.o(.constdata) for .constdata
    arm_exceptions_support.o(.ARM.exidx) refers to arm_exceptions_support.o(.text) for .text
    arm_exceptions_rethrow.o(.text) refers to arm_exceptions_globs.o(.text) for __cxa_get_globals
    arm_exceptions_rethrow.o(.text) refers to arm_exceptions_callterm.o(.text) for __ARM::call_terminate_handler(_Unwind_Control_Block*)
    arm_exceptions_rethrow.o(.text) refers to arm_exceptions_support.o(.text) for __ARM::is_foreign_exception(_Unwind_Control_Block*)
    arm_exceptions_rethrow.o(.text) refers to unwind_activity.o(.emb_text) for _Unwind_Activity
    arm_exceptions_rethrow.o(.text) refers (Weak) to unwinder.o(.emb_text) for _Unwind_RaiseException
    arm_exceptions_rethrow.o(.ARM.exidx) refers to arm_exceptions_rethrow.o(.text) for .text
    arm_exceptions_rethrow.o(.ARM.exidx) refers to unwind_pr0.o(.text) for __aeabi_unwind_cpp_pr0
    arm_exceptions_endcatch.o(.text) refers to arm_exceptions_globs.o(.text) for __cxa_get_globals
    arm_exceptions_endcatch.o(.text) refers to arm_exceptions_terminate.o(.text) for std::terminate()
    arm_exceptions_endcatch.o(.text) refers to arm_exceptions_support.o(.text) for __ARM::is_foreign_exception(_Unwind_Control_Block*)
    arm_exceptions_endcatch.o(.text) refers to arm_exceptions_free.o(.text) for __cxa_free_exception
    arm_exceptions_endcatch.o(.text) refers to unwind_delete.o(.text) for _Unwind_DeleteException
    arm_exceptions_endcatch.o(.ARM.exidx) refers to arm_exceptions_endcatch.o(.text) for .text
    arm_exceptions_endcatch.o(.ARM.exidx) refers to unwind_pr0.o(.text) for __aeabi_unwind_cpp_pr0
    arm_exceptions_begincatch.o(.text) refers to arm_exceptions_globs.o(.text) for __cxa_get_globals
    arm_exceptions_begincatch.o(.text) refers to arm_exceptions_support.o(.text) for __ARM::is_foreign_exception(_Unwind_Control_Block*)
    arm_exceptions_begincatch.o(.text) refers to arm_exceptions_foreign.o(.text) for __ARM::get_foreign_intermediary(__cxa_exception*, _Unwind_Control_Block*)
    arm_exceptions_begincatch.o(.text) refers (Weak) to unwinder.o(.text) for _Unwind_Complete
    arm_exceptions_begincatch.o(.ARM.exidx) refers to arm_exceptions_begincatch.o(.text) for .text
    arm_exceptions_bad_typeid.o(.text) refers to bad_typeid.o(i._ZNSt10bad_typeidC1Ev) for std::bad_typeid::bad_typeid()
    arm_exceptions_bad_typeid.o(.text) refers to arm_exceptions_alloc.o(.text) for __cxa_allocate_exception
    arm_exceptions_bad_typeid.o(.text) refers to bad_typeid.o(i._ZNSt10bad_typeidC1ERKS_) for std::bad_typeid::bad_typeid(const std::bad_typeid&)
    arm_exceptions_bad_typeid.o(.text) refers to bad_typeid.o(i._ZNSt10bad_typeidD1Ev) for std::bad_typeid::~bad_typeid()
    arm_exceptions_bad_typeid.o(.text) refers to arm_exceptions_throw.o(.text) for __cxa_throw
    arm_exceptions_bad_typeid.o(.text) refers to bad_typeid.o(.constdata__ZTISt10bad_typeid) for typeinfo for std::bad_typeid
    arm_exceptions_bad_typeid.o(.ARM.exidx) refers to arm_exceptions_bad_typeid.o(.text) for .text
    arm_exceptions_bad_typeid.o(.ARM.exidx) refers to unwind_pr0.o(.text) for __aeabi_unwind_cpp_pr0
    arm_exceptions_unexpected.o(.text) refers to arm_exceptions_globs.o(.text) for __cxa_get_globals
    arm_exceptions_unexpected.o(.text) refers to abort.o(.text) for abort
    arm_exceptions_unexpected.o(.text) refers to arm_exceptions_terminate.o(.text) for std::terminate()
    arm_exceptions_unexpected.o(.ARM.exidx) refers to arm_exceptions_unexpected.o(.text) for .text
    arm_exceptions_unexpected.o(.ARM.exidx) refers to unwind_pr0.o(.text) for __aeabi_unwind_cpp_pr0
    arm_exceptions_foreign.o(.text) refers to arm_exceptions_support.o(.text) for __ARM::same_exceptions_class(const void*, const void*)
    arm_exceptions_foreign.o(.text) refers to arm_exceptions_alloc.o(.text) for __cxa_allocate_exception
    arm_exceptions_foreign.o(.ARM.exidx) refers to arm_exceptions_foreign.o(.text) for .text
    arm_exceptions_globs.o(.text) refers to abort.o(.text) for abort
    arm_exceptions_globs.o(.text) refers to rt_eh_globals_addr_intlibspace.o(.text) for __rt_eh_globals_addr
    arm_exceptions_globs.o(.text) refers to h1_alloc.o(.text) for malloc
    arm_exceptions_globs.o(.text) refers to arm_exceptions_mem.o(.text) for __ARM_exceptions_buffer_init
    arm_exceptions_globs.o(.text) refers (Weak) to arm_exceptions_unexpected.o(.text) for __ARM::default_unexpected_handler()
    arm_exceptions_globs.o(.ARM.exidx) refers to arm_exceptions_globs.o(.text) for .text
    unwinder.o(.emb_text) refers to unwinder.o(.text) for __ARM_Unwind_RaiseException
    unwinder.o(.text) refers to bsearch.o(.text) for bsearch
    unwinder.o(.text) refers to unwind_activity.o(.emb_text) for _Unwind_Activity
    unwinder.o(.text) refers to abort.o(.text) for abort
    unwinder.o(.text) refers to unwinder.o(.emb_text) for __ARM_Unwind_VRS_corerestore
    unwinder.o(.text) refers to h1_alloc.o(.text) for malloc
    unwinder.o(.text) refers to rt_memcpy_w.o(.text) for __aeabi_memcpy4
    unwinder.o(.text) refers to h1_free.o(.text) for free
    unwinder.o(.text) refers (Weak) to unwind_pr0.o(.text) for __aeabi_unwind_cpp_pr0
    unwinder.o(.text) refers (Weak) to unwind_pr1.o(.text) for __aeabi_unwind_cpp_pr1
    unwinder.o(.ARM.exidx) refers to unwinder.o(.text) for .text
    unwind_prcommon.o(.text) refers to unwinder.o(.text) for _Unwind_VRS_Get
    unwind_prcommon.o(.text) refers (Weak) to arm_exceptions_cleanup.o(.text) for __cxa_begin_cleanup
    unwind_prcommon.o(.text) refers (Weak) to arm_exceptions_throw.o(.text) for __cxa_type_match
    unwind_prcommon.o(.text) refers to unwind_activity.o(.emb_text) for _Unwind_Activity
    unwind_prcommon.o(.text) refers (Weak) to arm_exceptions_throw.o(.text) for __cxa_type_match
    unwind_prcommon.o(.text) refers (Weak) to arm_exceptions_callunex.o(.text) for __cxa_call_unexpected
    unwind_prcommon.o(.ARM.exidx) refers to unwind_prcommon.o(.text) for .text
    __rtentry2.o(.ARM.Collect$$rtentry$$00000008) refers to boardinit2.o(.text) for _platform_post_stackheap_init
    __rtentry2.o(.ARM.Collect$$rtentry$$0000000A) refers to libinit.o(.ARM.Collect$$libinit$$00000000) for __rt_lib_init
    __rtentry2.o(.ARM.Collect$$rtentry$$0000000B) refers to boardinit3.o(.text) for _platform_post_lib_init
    __rtentry2.o(.ARM.Collect$$rtentry$$0000000D) refers to main.o(i.main) for main
    __rtentry2.o(.ARM.Collect$$rtentry$$0000000D) refers to exit.o(.text) for exit
    __rtentry2.o(.ARM.exidx) refers to __rtentry2.o(.ARM.Collect$$rtentry$$00000001) for .ARM.Collect$$rtentry$$00000001
    __rtentry2.o(.ARM.exidx) refers to __rtentry2.o(.ARM.Collect$$rtentry$$00000008) for .ARM.Collect$$rtentry$$00000008
    __rtentry2.o(.ARM.exidx) refers to __rtentry2.o(.ARM.Collect$$rtentry$$0000000A) for .ARM.Collect$$rtentry$$0000000A
    __rtentry2.o(.ARM.exidx) refers to __rtentry2.o(.ARM.Collect$$rtentry$$0000000B) for .ARM.Collect$$rtentry$$0000000B
    __rtentry2.o(.ARM.exidx) refers to __rtentry2.o(.ARM.Collect$$rtentry$$0000000D) for .ARM.Collect$$rtentry$$0000000D
    __rtentry4.o(.ARM.Collect$$rtentry$$00000004) refers to sys_stackheap_outer.o(.text) for __user_setup_stackheap
    __rtentry4.o(.ARM.exidx) refers to __rtentry4.o(.ARM.Collect$$rtentry$$00000004) for .ARM.Collect$$rtentry$$00000004
    rt_div0.o(.text) refers to defsig_fpe_outer.o(.text) for __rt_SIGFPE
    rt_raise.o(.text) refers to __raise.o(.text) for __raise
    rt_raise.o(.text) refers to sys_exit.o(.text) for _sys_exit
    rt_heap_descriptor.o(.text) refers to rt_heap_descriptor.o(.bss) for __rt_heap_descriptor_data
    rt_heap_descriptor_intlibspace.o(.text) refers to libspace.o(.bss) for __libspace_start
    rt_new_handler_addr.o(.text) refers to rt_new_handler_addr.o(.bss) for __rt_new_handler_addr_data
    rt_new_handler_addr_intlibspace.o(.text) refers to libspace.o(.bss) for __libspace_start
    rt_eh_globals_addr.o(.text) refers to rt_eh_globals_addr.o(.bss) for __rt_eh_globals_addr_data
    rt_eh_globals_addr_intlibspace.o(.text) refers to libspace.o(.bss) for __libspace_start
    init_alloc.o(.text) refers (Special) to hguard.o(.text) for __heap$guard
    init_alloc.o(.text) refers (Special) to libinit2.o(.ARM.Collect$$libinit$$00000005) for __rt_lib_init_heap_2
    init_alloc.o(.text) refers (Special) to maybetermalloc1.o(.emb_text) for _maybe_terminate_alloc
    init_alloc.o(.text) refers to h1_extend.o(.text) for __Heap_ProvideMemory
    init_alloc.o(.text) refers to defsig_rtmem_outer.o(.text) for __rt_SIGRTMEM
    init_alloc.o(.text) refers to rt_heap_descriptor_intlibspace.o(.text) for __rt_heap_descriptor
    init_alloc.o(.text) refers to h1_init.o(.text) for __Heap_Initialize
    free.o(.text) refers (Special) to hguard.o(.text) for __heap$guard
    free.o(.text) refers to rt_heap_descriptor_intlibspace.o(.text) for __rt_heap_descriptor
    free.o(.text) refers to heapstubs.o(.text) for __Heap_Free
    h1_free.o(.text) refers to rt_heap_descriptor_intlibspace.o(.text) for __rt_heap_descriptor
    h1_init_mt.o(.text) refers to mutex_dummy.o(.text) for _mutex_initialize
    h1_free_mt.o(.text) refers to rt_heap_descriptor_intlibspace.o(.text) for __rt_heap_descriptor
    abort.o(.text) refers to defsig_abrt_outer.o(.text) for __rt_SIGABRT
    abort.o(.text) refers (Weak) to libshutdown.o(.ARM.Collect$$libshutdown$$00000000) for __rt_lib_shutdown
    abort.o(.text) refers to sys_exit.o(.text) for _sys_exit
    bsearch.o(.ARM.exidx) refers to bsearch.o(.text) for .text
    bsearch.o(.ARM.exidx) refers to unwind_pr0.o(.text) for __aeabi_unwind_cpp_pr0
    defsig_exit.o(.text) refers to sys_exit.o(.text) for _sys_exit
    defsig_pvfn_inner.o(.text) refers to defsig_general.o(.text) for __default_signal_display
    _get_argv.o(.text) refers (Special) to hrguard.o(.text) for __heap_region$guard
    _get_argv.o(.text) refers to h1_alloc.o(.text) for malloc
    _get_argv.o(.text) refers to defsig_rtmem_outer.o(.text) for __rt_SIGRTMEM
    _get_argv.o(.text) refers to sys_command.o(.text) for _sys_command_string
    argv_veneer.o(.emb_text) refers to no_argv.o(.text) for __ARM_get_argv
    newhandler.o(i._Z21__default_new_handlerv) refers to bad_alloc_ctor.o(i._ZNSt9bad_allocC1Ev) for std::bad_alloc::bad_alloc()
    newhandler.o(i._Z21__default_new_handlerv) refers to arm_exceptions_alloc.o(.text) for __cxa_allocate_exception
    newhandler.o(i._Z21__default_new_handlerv) refers to bad_alloc_cctor.o(i._ZNSt9bad_allocC1ERKS_) for std::bad_alloc::bad_alloc(const std::bad_alloc&)
    newhandler.o(i._Z21__default_new_handlerv) refers to bad_alloc_dtor.o(i._ZNSt9bad_allocD1Ev) for std::bad_alloc::~bad_alloc()
    newhandler.o(i._Z21__default_new_handlerv) refers to arm_exceptions_throw.o(.text) for __cxa_throw
    newhandler.o(i._Z21__default_new_handlerv) refers to bad_alloc_dtor.o(.constdata__ZTISt9bad_alloc) for typeinfo for std::bad_alloc
    newhandler.o(.ARM.exidx) refers to newhandler.o(i._Z21__default_new_handlerv) for i._Z21__default_new_handlerv
    newhandler.o(.ARM.exidx) refers to unwind_pr0.o(.text) for __aeabi_unwind_cpp_pr0
    array_new_general.o(i.__ARM_array_new_general) refers to array_new.o(i._Znaj) for operator new[] (unsigned)
    array_new_general.o(i.__ARM_array_new_general) refers to arm_exceptions_begincatch.o(.text) for __cxa_begin_catch
    array_new_general.o(i.__ARM_array_new_general) refers to ARM_vec_cleanup.o(i.__ARM_vec_cleanup) for __ARM_vec_cleanup
    array_new_general.o(i.__ARM_array_new_general) refers to arm_exceptions_terminate.o(.text) for std::terminate()
    array_new_general.o(i.__ARM_array_new_general) refers to arm_exceptions_endcatch.o(.text) for __cxa_end_catch
    array_new_general.o(i.__ARM_array_new_general) refers to arm_exceptions_rethrow.o(.text) for __cxa_rethrow
    array_new_general.o(i.__ARM_array_new_general.clean) refers to arm_exceptions_endcatch.o(.text) for __cxa_end_catch
    array_new_general.o(i.__ARM_array_new_general.clean) refers to arm_exceptions_cleanup.o(.emb_text) for __cxa_end_cleanup
    array_new_general.o(.ARM.exidx) refers to array_new_general.o(i.__ARM_array_new_general) for i.__ARM_array_new_general
    array_new_general.o(.ARM.exidx) refers to unwind_pr0.o(.text) for __aeabi_unwind_cpp_pr0
    array_new_general.o(.ARM.exidx) refers to array_new_general.o(.ARM.extab) for .extab.__ARM_array_new_general
    array_new_general.o(.ARM.exidx) refers to array_new_general.o(i.__ARM_array_new_general.clean) for i.__ARM_array_new_general.clean
    array_new_general.o(.ARM.extab) refers to array_new_general.o(i.__ARM_array_new_general) for i.__ARM_array_new_general
    array_new_general.o(.ARM.extab) refers to array_new_general.o(i.__ARM_array_new_general.clean) for i.__ARM_array_new_general.clean
    bad_alloc_what.o(.ARM.exidx) refers to bad_alloc_what.o(i._ZNKSt9bad_alloc4whatEv) for i._ZNKSt9bad_alloc4whatEv
    bad_exception_what.o(.ARM.exidx) refers to bad_exception_what.o(i._ZNKSt13bad_exception4whatEv) for i._ZNKSt13bad_exception4whatEv
    bad_typeid.o(i._ZNSt10bad_typeidC1ERKS_) refers to exception_cctor.o(i._ZNSt9exceptionC1ERKS_) for std::exception::exception(const std::exception&)
    bad_typeid.o(i._ZNSt10bad_typeidC1ERKS_) refers to bad_typeid.o(.constdata__ZTVSt10bad_typeid) for vtable for std::bad_typeid
    bad_typeid.o(i._ZNSt10bad_typeidC1Ev) refers to exception_ctor.o(i._ZNSt9exceptionC1Ev) for std::exception::exception()
    bad_typeid.o(i._ZNSt10bad_typeidC1Ev) refers to bad_typeid.o(.constdata__ZTVSt10bad_typeid) for vtable for std::bad_typeid
    bad_typeid.o(i._ZNSt10bad_typeidD0Ev) refers to bad_typeid.o(i._ZNSt10bad_typeidD1Ev) for std::bad_typeid::~bad_typeid()
    bad_typeid.o(i._ZNSt10bad_typeidD0Ev) refers to delete.o(i._ZdlPv) for operator delete (void*)
    bad_typeid.o(.ARM.exidx) refers to bad_typeid.o(i._ZNSt10bad_typeidC1Ev) for i._ZNSt10bad_typeidC1Ev
    bad_typeid.o(.ARM.exidx) refers to bad_typeid.o(i._ZNSt10bad_typeidC1ERKS_) for i._ZNSt10bad_typeidC1ERKS_
    bad_typeid.o(.ARM.exidx) refers to bad_typeid.o(i._ZNSt10bad_typeidaSERKS_) for i._ZNSt10bad_typeidaSERKS_
    bad_typeid.o(.ARM.exidx) refers to bad_typeid.o(i._ZNSt10bad_typeidD1Ev) for i._ZNSt10bad_typeidD1Ev
    bad_typeid.o(.ARM.exidx) refers to bad_typeid.o(i._ZNSt10bad_typeidD0Ev) for i._ZNSt10bad_typeidD0Ev
    bad_typeid.o(.ARM.exidx) refers to bad_typeid.o(i._ZNKSt10bad_typeid4whatEv) for i._ZNKSt10bad_typeid4whatEv
    exception_cctor.o(i._ZNSt9exceptionC1ERKS_) refers to exception_dtor.o(.constdata__ZTVSt9exception) for vtable for std::exception
    exception_cctor.o(.ARM.exidx) refers to exception_cctor.o(i._ZNSt9exceptionC1ERKS_) for i._ZNSt9exceptionC1ERKS_
    exception_ctor.o(i._ZNSt9exceptionC1Ev) refers to exception_dtor.o(.constdata__ZTVSt9exception) for vtable for std::exception
    exception_ctor.o(.ARM.exidx) refers to exception_ctor.o(i._ZNSt9exceptionC1Ev) for i._ZNSt9exceptionC1Ev
    exception_dtor.o(i._ZNSt9exceptionD0Ev) refers to delete.o(i._ZdlPv) for operator delete (void*)
    exception_dtor.o(.ARM.exidx) refers to exception_dtor.o(i._ZNSt9exceptionD1Ev) for i._ZNSt9exceptionD1Ev
    exception_dtor.o(.ARM.exidx) refers to exception_dtor.o(i._ZNSt9exceptionD0Ev) for i._ZNSt9exceptionD0Ev
    type_info_name.o(.ARM.exidx) refers to type_info_name.o(i._ZNKSt9type_info4nameEv) for i._ZNKSt9type_info4nameEv
    aeabi_vec_dtor.o(i.__aeabi_vec_dtor) refers to arm_exceptions_begincatch.o(.text) for __cxa_begin_catch
    aeabi_vec_dtor.o(i.__aeabi_vec_dtor) refers to ARM_vec_cleanup_rethrow.o(i.__ARM_vec_cleanup_rethrow) for __ARM_vec_cleanup_rethrow
    aeabi_vec_dtor.o(i.__aeabi_vec_dtor) refers to arm_exceptions_endcatch.o(.text) for __cxa_end_catch
    aeabi_vec_dtor.o(i.__aeabi_vec_dtor.clean) refers to arm_exceptions_endcatch.o(.text) for __cxa_end_catch
    aeabi_vec_dtor.o(i.__aeabi_vec_dtor.clean) refers to arm_exceptions_cleanup.o(.emb_text) for __cxa_end_cleanup
    aeabi_vec_dtor.o(.ARM.exidx) refers to aeabi_vec_dtor.o(i.__aeabi_vec_dtor) for i.__aeabi_vec_dtor
    aeabi_vec_dtor.o(.ARM.exidx) refers to unwind_pr0.o(.text) for __aeabi_unwind_cpp_pr0
    aeabi_vec_dtor.o(.ARM.exidx) refers to aeabi_vec_dtor.o(.ARM.extab) for .extab.__aeabi_vec_dtor
    aeabi_vec_dtor.o(.ARM.exidx) refers to aeabi_vec_dtor.o(i.__aeabi_vec_dtor.clean) for i.__aeabi_vec_dtor.clean
    aeabi_vec_dtor.o(.ARM.extab) refers to aeabi_vec_dtor.o(i.__aeabi_vec_dtor) for i.__aeabi_vec_dtor
    aeabi_vec_dtor.o(.ARM.extab) refers to aeabi_vec_dtor.o(i.__aeabi_vec_dtor.clean) for i.__aeabi_vec_dtor.clean
    unwind_delete.o(.ARM.exidx) refers to unwind_delete.o(.text) for .text
    sys_command.o(.text) refers (Special) to use_no_semi.o(.text) for __I$use$semihosting
    sys_command.o(.text) refers (Special) to indicate_semi.o(.text) for __semihosting_library_function
    sys_exit.o(.text) refers (Special) to use_no_semi.o(.text) for __I$use$semihosting
    sys_exit.o(.text) refers (Special) to indicate_semi.o(.text) for __semihosting_library_function
    libspace.o(.text) refers to libspace.o(.bss) for __libspace_start
    sys_stackheap_outer.o(.text) refers to libspace.o(.text) for __user_perproc_libspace
    sys_stackheap_outer.o(.text) refers to startup_stm32f407xx.o(.text) for __user_initial_stackheap
    maybetermalloc2.o(.emb_text) refers (Special) to term_alloc.o(.text) for _terminate_alloc
    h1_extend.o(.text) refers to h1_free.o(.text) for free
    h1_extend_mt.o(.text) refers to h1_free_mt.o(.text) for _free_internal
    exit.o(.text) refers to rtexit.o(.ARM.Collect$$rtexit$$00000000) for __rt_exit
    __raise.o(.text) refers to defsig.o(CL$$defsig) for __default_signal_handler
    defsig_general.o(.text) refers to sys_wrch.o(.text) for _ttywrch
    defsig_abrt_outer.o(.text) refers to defsig_abrt_inner.o(.text) for __rt_SIGABRT_inner
    defsig_abrt_outer.o(.text) refers to defsig_exit.o(.text) for __sig_exit
    defsig_abrt_formal.o(.text) refers to rt_raise.o(.text) for __rt_raise
    defsig_fpe_outer.o(.text) refers to defsig_fpe_inner.o(.text) for __rt_SIGFPE_inner
    defsig_fpe_outer.o(.text) refers to defsig_exit.o(.text) for __sig_exit
    defsig_fpe_formal.o(.text) refers to rt_raise.o(.text) for __rt_raise
    defsig_rtmem_outer.o(.text) refers to defsig_rtmem_inner.o(.text) for __rt_SIGRTMEM_inner
    defsig_rtmem_outer.o(.text) refers to defsig_exit.o(.text) for __sig_exit
    defsig_rtmem_formal.o(.text) refers to rt_raise.o(.text) for __rt_raise
    heapauxa.o(.text) refers to heapauxa.o(.data) for .data
    _get_argv_nomalloc.o(.text) refers (Special) to hrguard.o(.text) for __heap_region$guard
    _get_argv_nomalloc.o(.text) refers to defsig_rtmem_outer.o(.text) for __rt_SIGRTMEM
    _get_argv_nomalloc.o(.text) refers to sys_command.o(.text) for _sys_command_string
    libinit.o(.ARM.Collect$$libinit$$00000000) refers (Special) to libinit2.o(.ARM.Collect$$libinit$$0000002E) for __rt_lib_init_alloca_1
    libinit.o(.ARM.Collect$$libinit$$00000000) refers (Special) to libinit2.o(.ARM.Collect$$libinit$$0000002C) for __rt_lib_init_argv_1
    libinit.o(.ARM.Collect$$libinit$$00000000) refers (Special) to libinit2.o(.ARM.Collect$$libinit$$0000001B) for __rt_lib_init_atexit_1
    libinit.o(.ARM.Collect$$libinit$$00000000) refers (Special) to libinit2.o(.ARM.Collect$$libinit$$00000021) for __rt_lib_init_clock_1
    libinit.o(.ARM.Collect$$libinit$$00000000) refers (Special) to libinit2.o(.ARM.Collect$$libinit$$00000032) for __rt_lib_init_cpp_1
    libinit.o(.ARM.Collect$$libinit$$00000000) refers (Special) to libinit2.o(.ARM.Collect$$libinit$$00000030) for __rt_lib_init_exceptions_1
    libinit.o(.ARM.Collect$$libinit$$00000000) refers (Special) to libinit2.o(.ARM.Collect$$libinit$$00000001) for __rt_lib_init_fp_1
    libinit.o(.ARM.Collect$$libinit$$00000000) refers (Special) to libinit2.o(.ARM.Collect$$libinit$$0000001F) for __rt_lib_init_fp_trap_1
    libinit.o(.ARM.Collect$$libinit$$00000000) refers (Special) to libinit2.o(.ARM.Collect$$libinit$$00000023) for __rt_lib_init_getenv_1
    libinit.o(.ARM.Collect$$libinit$$00000000) refers (Special) to libinit2.o(.ARM.Collect$$libinit$$0000000A) for __rt_lib_init_heap_1
    libinit.o(.ARM.Collect$$libinit$$00000000) refers (Special) to libinit2.o(.ARM.Collect$$libinit$$00000011) for __rt_lib_init_lc_collate_1
    libinit.o(.ARM.Collect$$libinit$$00000000) refers (Special) to libinit2.o(.ARM.Collect$$libinit$$00000013) for __rt_lib_init_lc_ctype_1
    libinit.o(.ARM.Collect$$libinit$$00000000) refers (Special) to libinit2.o(.ARM.Collect$$libinit$$00000015) for __rt_lib_init_lc_monetary_1
    libinit.o(.ARM.Collect$$libinit$$00000000) refers (Special) to libinit2.o(.ARM.Collect$$libinit$$00000017) for __rt_lib_init_lc_numeric_1
    libinit.o(.ARM.Collect$$libinit$$00000000) refers (Special) to libinit2.o(.ARM.Collect$$libinit$$00000019) for __rt_lib_init_lc_time_1
    libinit.o(.ARM.Collect$$libinit$$00000000) refers (Special) to libinit2.o(.ARM.Collect$$libinit$$00000004) for __rt_lib_init_preinit_1
    libinit.o(.ARM.Collect$$libinit$$00000000) refers (Special) to libinit2.o(.ARM.Collect$$libinit$$0000000E) for __rt_lib_init_rand_1
    libinit.o(.ARM.Collect$$libinit$$00000000) refers (Special) to libinit2.o(.ARM.Collect$$libinit$$00000033) for __rt_lib_init_return
    libinit.o(.ARM.Collect$$libinit$$00000000) refers (Special) to libinit2.o(.ARM.Collect$$libinit$$0000001D) for __rt_lib_init_signal_1
    libinit.o(.ARM.Collect$$libinit$$00000000) refers (Special) to libinit2.o(.ARM.Collect$$libinit$$00000025) for __rt_lib_init_stdio_1
    libinit.o(.ARM.Collect$$libinit$$00000000) refers (Special) to libinit2.o(.ARM.Collect$$libinit$$0000000C) for __rt_lib_init_user_alloc_1
    ARM_vec_cleanup.o(i.__ARM_vec_cleanup) refers to arm_exceptions_begincatch.o(.text) for __cxa_begin_catch
    ARM_vec_cleanup.o(i.__ARM_vec_cleanup) refers to arm_exceptions_terminate.o(.text) for std::terminate()
    ARM_vec_cleanup.o(i.__ARM_vec_cleanup) refers to arm_exceptions_endcatch.o(.text) for __cxa_end_catch
    ARM_vec_cleanup.o(i.__ARM_vec_cleanup.clean) refers to arm_exceptions_endcatch.o(.text) for __cxa_end_catch
    ARM_vec_cleanup.o(i.__ARM_vec_cleanup.clean) refers to arm_exceptions_cleanup.o(.emb_text) for __cxa_end_cleanup
    ARM_vec_cleanup.o(.ARM.exidx) refers to ARM_vec_cleanup.o(i.__ARM_vec_cleanup) for i.__ARM_vec_cleanup
    ARM_vec_cleanup.o(.ARM.exidx) refers to unwind_pr0.o(.text) for __aeabi_unwind_cpp_pr0
    ARM_vec_cleanup.o(.ARM.exidx) refers to ARM_vec_cleanup.o(.ARM.extab) for .extab.__ARM_vec_cleanup
    ARM_vec_cleanup.o(.ARM.exidx) refers to ARM_vec_cleanup.o(i.__ARM_vec_cleanup.clean) for i.__ARM_vec_cleanup.clean
    ARM_vec_cleanup.o(.ARM.extab) refers to arm_exceptions_callunex.o(.text) for __cxa_call_unexpected
    ARM_vec_cleanup.o(.ARM.extab) refers to ARM_vec_cleanup.o(i.__ARM_vec_cleanup) for i.__ARM_vec_cleanup
    ARM_vec_cleanup.o(.ARM.extab) refers to ARM_vec_cleanup.o(i.__ARM_vec_cleanup.clean) for i.__ARM_vec_cleanup.clean
    ARM_vec_cleanup_rethrow.o(i.__ARM_vec_cleanup_rethrow) refers to arm_exceptions_rethrow.o(.text) for __cxa_rethrow
    ARM_vec_cleanup_rethrow.o(i.__ARM_vec_cleanup_rethrow) refers to arm_exceptions_begincatch.o(.text) for __cxa_begin_catch
    ARM_vec_cleanup_rethrow.o(i.__ARM_vec_cleanup_rethrow) refers to arm_exceptions_terminate.o(.text) for std::terminate()
    ARM_vec_cleanup_rethrow.o(i.__ARM_vec_cleanup_rethrow) refers to arm_exceptions_endcatch.o(.text) for __cxa_end_catch
    ARM_vec_cleanup_rethrow.o(i.__ARM_vec_cleanup_rethrow.clean) refers to arm_exceptions_endcatch.o(.text) for __cxa_end_catch
    ARM_vec_cleanup_rethrow.o(i.__ARM_vec_cleanup_rethrow.clean) refers to arm_exceptions_cleanup.o(.emb_text) for __cxa_end_cleanup
    ARM_vec_cleanup_rethrow.o(.ARM.exidx) refers to ARM_vec_cleanup_rethrow.o(i.__ARM_vec_cleanup_rethrow) for i.__ARM_vec_cleanup_rethrow
    ARM_vec_cleanup_rethrow.o(.ARM.exidx) refers to unwind_pr0.o(.text) for __aeabi_unwind_cpp_pr0
    ARM_vec_cleanup_rethrow.o(.ARM.exidx) refers to ARM_vec_cleanup_rethrow.o(.ARM.extab) for .extab.__ARM_vec_cleanup_rethrow
    ARM_vec_cleanup_rethrow.o(.ARM.exidx) refers to ARM_vec_cleanup_rethrow.o(i.__ARM_vec_cleanup_rethrow.clean) for i.__ARM_vec_cleanup_rethrow.clean
    ARM_vec_cleanup_rethrow.o(.ARM.extab) refers to ARM_vec_cleanup_rethrow.o(i.__ARM_vec_cleanup_rethrow) for i.__ARM_vec_cleanup_rethrow
    ARM_vec_cleanup_rethrow.o(.ARM.extab) refers to ARM_vec_cleanup_rethrow.o(i.__ARM_vec_cleanup_rethrow.clean) for i.__ARM_vec_cleanup_rethrow.clean
    bad_alloc_cctor.o(i._ZNSt9bad_allocC1ERKS_) refers to exception_cctor.o(i._ZNSt9exceptionC1ERKS_) for std::exception::exception(const std::exception&)
    bad_alloc_cctor.o(i._ZNSt9bad_allocC1ERKS_) refers to bad_alloc_dtor.o(.constdata__ZTVSt9bad_alloc) for vtable for std::bad_alloc
    bad_alloc_cctor.o(.ARM.exidx) refers to bad_alloc_cctor.o(i._ZNSt9bad_allocC1ERKS_) for i._ZNSt9bad_allocC1ERKS_
    bad_alloc_ctor.o(i._ZNSt9bad_allocC1Ev) refers to exception_ctor.o(i._ZNSt9exceptionC1Ev) for std::exception::exception()
    bad_alloc_ctor.o(i._ZNSt9bad_allocC1Ev) refers to bad_alloc_dtor.o(.constdata__ZTVSt9bad_alloc) for vtable for std::bad_alloc
    bad_alloc_ctor.o(.ARM.exidx) refers to bad_alloc_ctor.o(i._ZNSt9bad_allocC1Ev) for i._ZNSt9bad_allocC1Ev
    exception_assign.o(.ARM.exidx) refers to exception_assign.o(i._ZNSt9exceptionaSERKS_) for i._ZNSt9exceptionaSERKS_
    exception_what.o(.ARM.exidx) refers to exception_what.o(i._ZNKSt9exception4whatEv) for i._ZNKSt9exception4whatEv
    sys_wrch.o(.text) refers (Special) to use_no_semi.o(.text) for __I$use$semihosting
    sys_wrch.o(.text) refers (Special) to indicate_semi.o(.text) for __semihosting_library_function
    rtexit.o(.ARM.Collect$$rtexit$$00000000) refers (Special) to rtexit2.o(.ARM.Collect$$rtexit$$00000004) for __rt_exit_exit
    rtexit.o(.ARM.Collect$$rtexit$$00000000) refers (Special) to rtexit2.o(.ARM.Collect$$rtexit$$00000003) for __rt_exit_ls
    rtexit.o(.ARM.Collect$$rtexit$$00000000) refers (Special) to rtexit2.o(.ARM.Collect$$rtexit$$00000002) for __rt_exit_prels_1
    rtexit.o(.ARM.exidx) refers (Special) to rtexit2.o(.ARM.Collect$$rtexit$$00000004) for __rt_exit_exit
    rtexit.o(.ARM.exidx) refers (Special) to rtexit2.o(.ARM.Collect$$rtexit$$00000003) for __rt_exit_ls
    rtexit.o(.ARM.exidx) refers (Special) to rtexit2.o(.ARM.Collect$$rtexit$$00000002) for __rt_exit_prels_1
    rtexit.o(.ARM.exidx) refers to rtexit.o(.ARM.Collect$$rtexit$$00000000) for .ARM.Collect$$rtexit$$00000000
    term_alloc.o(.text) refers (Special) to libshutdown2.o(.ARM.Collect$$libshutdown$$0000000E) for __rt_lib_shutdown_heap_2
    term_alloc.o(.text) refers to rt_heap_descriptor_intlibspace.o(.text) for __rt_heap_descriptor
    term_alloc.o(.text) refers to h1_final.o(.text) for __Heap_Finalize
    defsig_abrt_inner.o(.text) refers to defsig_general.o(.text) for __default_signal_display
    defsig_fpe_inner.o(.text) refers to defsig_general.o(.text) for __default_signal_display
    defsig_rtmem_inner.o(.text) refers to defsig_general.o(.text) for __default_signal_display
    defsig.o(CL$$defsig) refers to defsig_abrt_inner.o(.text) for __rt_SIGABRT_inner
    defsig.o(CL$$defsig) refers to defsig_fpe_inner.o(.text) for __rt_SIGFPE_inner
    defsig.o(CL$$defsig) refers to defsig_rtmem_inner.o(.text) for __rt_SIGRTMEM_inner
    defsig.o(CL$$defsig) refers to defsig_pvfn_inner.o(.text) for __rt_SIGPVFN_inner
    rtexit2.o(.ARM.Collect$$rtexit$$00000003) refers to libshutdown.o(.ARM.Collect$$libshutdown$$00000000) for __rt_lib_shutdown
    rtexit2.o(.ARM.Collect$$rtexit$$00000004) refers to sys_exit.o(.text) for _sys_exit
    rtexit2.o(.ARM.exidx) refers to rtexit2.o(.ARM.Collect$$rtexit$$00000001) for .ARM.Collect$$rtexit$$00000001
    rtexit2.o(.ARM.exidx) refers to rtexit2.o(.ARM.Collect$$rtexit$$00000003) for .ARM.Collect$$rtexit$$00000003
    rtexit2.o(.ARM.exidx) refers to rtexit2.o(.ARM.Collect$$rtexit$$00000004) for .ARM.Collect$$rtexit$$00000004
    defsig_rtred_inner.o(.text) refers to defsig_general.o(.text) for __default_signal_display
    defsig_stak_inner.o(.text) refers to defsig_general.o(.text) for __default_signal_display
    defsig_cppl_inner.o(.text) refers to defsig_general.o(.text) for __default_signal_display
    defsig_segv_inner.o(.text) refers to defsig_general.o(.text) for __default_signal_display
    defsig_other.o(.text) refers to defsig_general.o(.text) for __default_signal_display
    libshutdown2.o(.ARM.Collect$$libshutdown$$0000000D) refers (Weak) to term_alloc.o(.text) for _terminate_alloc
    libshutdown.o(.ARM.Collect$$libshutdown$$00000000) refers (Special) to libshutdown2.o(.ARM.Collect$$libshutdown$$00000002) for __rt_lib_shutdown_cpp_1
    libshutdown.o(.ARM.Collect$$libshutdown$$00000000) refers (Special) to libshutdown2.o(.ARM.Collect$$libshutdown$$00000007) for __rt_lib_shutdown_fp_trap_1
    libshutdown.o(.ARM.Collect$$libshutdown$$00000000) refers (Special) to libshutdown2.o(.ARM.Collect$$libshutdown$$0000000F) for __rt_lib_shutdown_heap_1
    libshutdown.o(.ARM.Collect$$libshutdown$$00000000) refers (Special) to libshutdown2.o(.ARM.Collect$$libshutdown$$00000010) for __rt_lib_shutdown_return
    libshutdown.o(.ARM.Collect$$libshutdown$$00000000) refers (Special) to libshutdown2.o(.ARM.Collect$$libshutdown$$0000000A) for __rt_lib_shutdown_signal_1
    libshutdown.o(.ARM.Collect$$libshutdown$$00000000) refers (Special) to libshutdown2.o(.ARM.Collect$$libshutdown$$00000004) for __rt_lib_shutdown_stdio_1
    libshutdown.o(.ARM.Collect$$libshutdown$$00000000) refers (Special) to libshutdown2.o(.ARM.Collect$$libshutdown$$0000000C) for __rt_lib_shutdown_user_alloc_1
    adafruit_gfx.o(.constdata__ZTV12Adafruit_GFX) refers to adafruit_gfx.o(.constdata__ZTI12Adafruit_GFX) for typeinfo for Adafruit_GFX
    adafruit_gfx.o(.constdata__ZTV12Adafruit_GFX) refers to pure_virt.o(i.__cxa_pure_virtual) for __cxa_pure_virtual
    adafruit_gfx.o(.constdata__ZTV12Adafruit_GFX) refers to adafruit_gfx.o(i._ZN12Adafruit_GFX8drawLineEsssst) for Adafruit_GFX::drawLine(short, short, short, short, unsigned short)
    adafruit_gfx.o(.constdata__ZTV12Adafruit_GFX) refers to adafruit_gfx.o(i._ZN12Adafruit_GFX13drawFastVLineEssst) for Adafruit_GFX::drawFastVLine(short, short, short, unsigned short)
    adafruit_gfx.o(.constdata__ZTV12Adafruit_GFX) refers to adafruit_gfx.o(i._ZN12Adafruit_GFX13drawFastHLineEssst) for Adafruit_GFX::drawFastHLine(short, short, short, unsigned short)
    adafruit_gfx.o(.constdata__ZTV12Adafruit_GFX) refers to adafruit_gfx.o(i._ZN12Adafruit_GFX8drawRectEsssst) for Adafruit_GFX::drawRect(short, short, short, short, unsigned short)
    adafruit_gfx.o(.constdata__ZTV12Adafruit_GFX) refers to adafruit_gfx.o(i._ZN12Adafruit_GFX8fillRectEsssst) for Adafruit_GFX::fillRect(short, short, short, short, unsigned short)
    adafruit_gfx.o(.constdata__ZTV12Adafruit_GFX) refers to adafruit_gfx.o(i._ZN12Adafruit_GFX10fillScreenEt) for Adafruit_GFX::fillScreen(unsigned short)
    adafruit_gfx.o(.constdata__ZTV12Adafruit_GFX) refers to adafruit_gfx.o(i._ZN12Adafruit_GFX5writeEh) for Adafruit_GFX::write(unsigned char)
    adafruit_gfx.o(.constdata__ZTI12Adafruit_GFX) refers to lib_rtti_impl.o(.constdata__ZTVN10__cxxabiv117__class_type_infoE) for vtable for __cxxabiv1::__class_type_info
    adafruit_gfx.o(.constdata__ZTI12Adafruit_GFX) refers to adafruit_gfx.o(.constdata__ZTS12Adafruit_GFX) for typeinfo name for Adafruit_GFX
    adafruit_ssd1306.o(.constdata__ZTV16Adafruit_SSD1306) refers to adafruit_ssd1306.o(.constdata__ZTI16Adafruit_SSD1306) for typeinfo for Adafruit_SSD1306
    adafruit_ssd1306.o(.constdata__ZTV16Adafruit_SSD1306) refers to adafruit_ssd1306.o(i._ZN16Adafruit_SSD13069drawPixelEsst) for Adafruit_SSD1306::drawPixel(short, short, unsigned short)
    adafruit_ssd1306.o(.constdata__ZTV16Adafruit_SSD1306) refers to adafruit_gfx.o(i._ZN12Adafruit_GFX8drawLineEsssst) for Adafruit_GFX::drawLine(short, short, short, short, unsigned short)
    adafruit_ssd1306.o(.constdata__ZTV16Adafruit_SSD1306) refers to adafruit_ssd1306.o(i._ZN16Adafruit_SSD130613drawFastVLineEssst) for Adafruit_SSD1306::drawFastVLine(short, short, short, unsigned short)
    adafruit_ssd1306.o(.constdata__ZTV16Adafruit_SSD1306) refers to adafruit_ssd1306.o(i._ZN16Adafruit_SSD130613drawFastHLineEssst) for Adafruit_SSD1306::drawFastHLine(short, short, short, unsigned short)
    adafruit_ssd1306.o(.constdata__ZTV16Adafruit_SSD1306) refers to adafruit_gfx.o(i._ZN12Adafruit_GFX8drawRectEsssst) for Adafruit_GFX::drawRect(short, short, short, short, unsigned short)
    adafruit_ssd1306.o(.constdata__ZTV16Adafruit_SSD1306) refers to adafruit_gfx.o(i._ZN12Adafruit_GFX8fillRectEsssst) for Adafruit_GFX::fillRect(short, short, short, short, unsigned short)
    adafruit_ssd1306.o(.constdata__ZTV16Adafruit_SSD1306) refers to adafruit_gfx.o(i._ZN12Adafruit_GFX10fillScreenEt) for Adafruit_GFX::fillScreen(unsigned short)
    adafruit_ssd1306.o(.constdata__ZTV16Adafruit_SSD1306) refers to adafruit_gfx.o(i._ZN12Adafruit_GFX5writeEh) for Adafruit_GFX::write(unsigned char)
    adafruit_ssd1306.o(.constdata__ZTI16Adafruit_SSD1306) refers to lib_rtti_impl.o(.constdata__ZTVN10__cxxabiv120__si_class_type_infoE) for vtable for __cxxabiv1::__si_class_type_info
    adafruit_ssd1306.o(.constdata__ZTI16Adafruit_SSD1306) refers to adafruit_ssd1306.o(.constdata__ZTS16Adafruit_SSD1306) for typeinfo name for Adafruit_SSD1306
    adafruit_ssd1306.o(.constdata__ZTI16Adafruit_SSD1306) refers to adafruit_gfx.o(.constdata__ZTI12Adafruit_GFX) for typeinfo for Adafruit_GFX
    main.o(t._ZN6VectorIiED1Ev) refers to array_del.o(i._ZdaPv) for operator delete[] (void*)
    main.o(.ARM.exidx) refers to main.o(t._ZN6VectorIiED1Ev) for t._ZN6VectorIiED1Ev
    main.o(i._ZN10Snake_gameD1Ev) refers to main.o(t._ZN6VectorIS_IiEED1Ev) for Vector<Vector<int>>::~Vector()
    main.o(.ARM.exidx) refers to main.o(i._ZN10Snake_gameD1Ev) for i._ZN10Snake_gameD1Ev
    main.o(t._ZN6VectorIS_IiEED1Ev) refers to aeabi_vec_delete.o(i.__aeabi_vec_delete) for __aeabi_vec_delete
    main.o(t._ZN6VectorIS_IiEED1Ev) refers to main.o(t._ZN6VectorIiED1Ev) for Vector<int>::~Vector()
    main.o(.ARM.extab) refers to arm_exceptions_callunex.o(.text) for __cxa_call_unexpected
    main.o(.ARM.exidx) refers to main.o(t._ZN6VectorIS_IiEED1Ev) for t._ZN6VectorIS_IiEED1Ev
    main.o(.ARM.exidx) refers to unwind_pr0.o(.text) for __aeabi_unwind_cpp_pr0
    main.o(.ARM.exidx) refers to main.o(.ARM.extab) for .extab._ZN6VectorIS_IiEED1Ev
    main.o(i.__ARM_common_noexcept_landing) refers to arm_exceptions_callterm.o(.text) for __cxa_call_terminate
    main.o(.ARM.exidx) refers to main.o(i.__ARM_common_noexcept_landing) for i.__ARM_common_noexcept_landing
    snake_game.o(t._ZN6VectorIiEaSERKS0_) refers to array_new.o(i._Znaj) for operator new[] (unsigned)
    snake_game.o(t._ZN6VectorIiEaSERKS0_) refers to array_del.o(i._ZdaPv) for operator delete[] (void*)
    snake_game.o(.ARM.exidx) refers to snake_game.o(t._ZN6VectorIiEaSERKS0_) for t._ZN6VectorIiEaSERKS0_
    snake_game.o(.ARM.exidx) refers to unwind_pr0.o(.text) for __aeabi_unwind_cpp_pr0
    snake_game.o(t._ZN6VectorIS_IiEE7reserveEi) refers to aeabi_vec_new_cookie.o(i.__aeabi_vec_new_cookie) for __aeabi_vec_new_cookie
    snake_game.o(t._ZN6VectorIS_IiEE7reserveEi) refers to snake_game.o(t._ZN6VectorIiEaSERKS0_) for Vector<int>::operator =(const Vector<int>&)
    snake_game.o(t._ZN6VectorIS_IiEE7reserveEi) refers to aeabi_vec_delete.o(i.__aeabi_vec_delete) for __aeabi_vec_delete
    snake_game.o(t._ZN6VectorIS_IiEE7reserveEi) refers to main.o(t._ZN6VectorIiED1Ev) for Vector<int>::~Vector()
    snake_game.o(t._ZN6VectorIS_IiEE7reserveEi) refers to snake_game.o(t._ZN6VectorIiEC1Ev) for Vector<int>::Vector()
    snake_game.o(.ARM.exidx) refers to snake_game.o(t._ZN6VectorIS_IiEE7reserveEi) for t._ZN6VectorIS_IiEE7reserveEi
    snake_game.o(.ARM.exidx) refers to unwind_pr0.o(.text) for __aeabi_unwind_cpp_pr0
    snake_game.o(t._ZN6VectorIiE7reserveEi) refers to array_new.o(i._Znaj) for operator new[] (unsigned)
    snake_game.o(t._ZN6VectorIiE7reserveEi) refers to array_del.o(i._ZdaPv) for operator delete[] (void*)
    snake_game.o(.ARM.exidx) refers to snake_game.o(t._ZN6VectorIiE7reserveEi) for t._ZN6VectorIiE7reserveEi
    snake_game.o(.ARM.exidx) refers to unwind_pr0.o(.text) for __aeabi_unwind_cpp_pr0
    snake_game.o(t._ZN6VectorIiE9push_backERKi) refers to snake_game.o(t._ZN6VectorIiE7reserveEi) for Vector<int>::reserve(int)
    snake_game.o(.ARM.exidx) refers to snake_game.o(t._ZN6VectorIiE9push_backERKi) for t._ZN6VectorIiE9push_backERKi
    snake_game.o(.ARM.exidx) refers to unwind_pr0.o(.text) for __aeabi_unwind_cpp_pr0
    snake_game.o(.ARM.exidx) refers to snake_game.o(t._ZN6VectorIiEC1Ev) for t._ZN6VectorIiEC1Ev
    snake_game.o(t._ZN6VectorIS_IiEE2atEi) refers to arm_exceptions_alloc.o(.text) for __cxa_allocate_exception
    snake_game.o(t._ZN6VectorIS_IiEE2atEi) refers to arm_exceptions_throw.o(.text) for __cxa_throw
    snake_game.o(t._ZN6VectorIS_IiEE2atEi) refers to snake_game.o(.constdata__ZTI12out_of_range) for typeinfo for out_of_range
    snake_game.o(.ARM.exidx) refers to snake_game.o(t._ZN6VectorIS_IiEE2atEi) for t._ZN6VectorIS_IiEE2atEi
    snake_game.o(.ARM.exidx) refers to unwind_pr0.o(.text) for __aeabi_unwind_cpp_pr0
    snake_game.o(.ARM.exidx) refers to snake_game.o(t._ZN6VectorIiE4backEv) for t._ZN6VectorIiE4backEv
    snake_game.o(.constdata__ZTI12out_of_range) refers to lib_rtti_impl.o(.constdata__ZTVN10__cxxabiv117__class_type_infoE) for vtable for __cxxabiv1::__class_type_info
    snake_game.o(.constdata__ZTI12out_of_range) refers to snake_game.o(.constdata__ZTS12out_of_range) for typeinfo name for out_of_range
    lib_rtti_impl.o(.constdata__ZTVN10__cxxabiv123__fundamental_type_infoE) refers to lib_rtti_impl.o(.constdata__ZTIN10__cxxabiv123__fundamental_type_infoE) for typeinfo for __cxxabiv1::__fundamental_type_info
    lib_rtti_impl.o(.constdata__ZTVN10__cxxabiv123__fundamental_type_infoE) refers to lib_rtti_impl.o(i._ZN10__cxxabiv123__fundamental_type_infoD1Ev) for __cxxabiv1::__fundamental_type_info::~__fundamental_type_info()
    lib_rtti_impl.o(.constdata__ZTVN10__cxxabiv123__fundamental_type_infoE) refers to lib_rtti_impl.o(i._ZN10__cxxabiv123__fundamental_type_infoD0Ev) for __cxxabiv1::__fundamental_type_info::~__fundamental_type_info__deallocating()
    lib_rtti_impl.o(.constdata__ZTVN10__cxxabiv117__array_type_infoE) refers to lib_rtti_impl.o(.constdata__ZTIN10__cxxabiv117__array_type_infoE) for typeinfo for __cxxabiv1::__array_type_info
    lib_rtti_impl.o(.constdata__ZTVN10__cxxabiv117__array_type_infoE) refers to lib_rtti_impl.o(i._ZN10__cxxabiv117__array_type_infoD1Ev) for __cxxabiv1::__array_type_info::~__array_type_info()
    lib_rtti_impl.o(.constdata__ZTVN10__cxxabiv117__array_type_infoE) refers to lib_rtti_impl.o(i._ZN10__cxxabiv117__array_type_infoD0Ev) for __cxxabiv1::__array_type_info::~__array_type_info__deallocating()
    lib_rtti_impl.o(.constdata__ZTVN10__cxxabiv120__function_type_infoE) refers to lib_rtti_impl.o(.constdata__ZTIN10__cxxabiv120__function_type_infoE) for typeinfo for __cxxabiv1::__function_type_info
    lib_rtti_impl.o(.constdata__ZTVN10__cxxabiv120__function_type_infoE) refers to lib_rtti_impl.o(i._ZN10__cxxabiv120__function_type_infoD1Ev) for __cxxabiv1::__function_type_info::~__function_type_info()
    lib_rtti_impl.o(.constdata__ZTVN10__cxxabiv120__function_type_infoE) refers to lib_rtti_impl.o(i._ZN10__cxxabiv120__function_type_infoD0Ev) for __cxxabiv1::__function_type_info::~__function_type_info__deallocating()
    lib_rtti_impl.o(.constdata__ZTVN10__cxxabiv116__enum_type_infoE) refers to lib_rtti_impl.o(.constdata__ZTIN10__cxxabiv116__enum_type_infoE) for typeinfo for __cxxabiv1::__enum_type_info
    lib_rtti_impl.o(.constdata__ZTVN10__cxxabiv116__enum_type_infoE) refers to lib_rtti_impl.o(i._ZN10__cxxabiv116__enum_type_infoD1Ev) for __cxxabiv1::__enum_type_info::~__enum_type_info()
    lib_rtti_impl.o(.constdata__ZTVN10__cxxabiv116__enum_type_infoE) refers to lib_rtti_impl.o(i._ZN10__cxxabiv116__enum_type_infoD0Ev) for __cxxabiv1::__enum_type_info::~__enum_type_info__deallocating()
    lib_rtti_impl.o(.constdata__ZTVN10__cxxabiv117__class_type_infoE) refers to lib_rtti_impl.o(.constdata__ZTIN10__cxxabiv117__class_type_infoE) for typeinfo for __cxxabiv1::__class_type_info
    lib_rtti_impl.o(.constdata__ZTVN10__cxxabiv117__class_type_infoE) refers to lib_rtti_impl.o(i._ZN10__cxxabiv117__class_type_infoD1Ev) for __cxxabiv1::__class_type_info::~__class_type_info()
    lib_rtti_impl.o(.constdata__ZTVN10__cxxabiv117__class_type_infoE) refers to lib_rtti_impl.o(i._ZN10__cxxabiv117__class_type_infoD0Ev) for __cxxabiv1::__class_type_info::~__class_type_info__deallocating()
    lib_rtti_impl.o(.constdata__ZTVN10__cxxabiv120__si_class_type_infoE) refers to lib_rtti_impl.o(.constdata__ZTIN10__cxxabiv120__si_class_type_infoE) for typeinfo for __cxxabiv1::__si_class_type_info
    lib_rtti_impl.o(.constdata__ZTVN10__cxxabiv120__si_class_type_infoE) refers to lib_rtti_impl.o(i._ZN10__cxxabiv120__si_class_type_infoD1Ev) for __cxxabiv1::__si_class_type_info::~__si_class_type_info()
    lib_rtti_impl.o(.constdata__ZTVN10__cxxabiv120__si_class_type_infoE) refers to lib_rtti_impl.o(i._ZN10__cxxabiv120__si_class_type_infoD0Ev) for __cxxabiv1::__si_class_type_info::~__si_class_type_info__deallocating()
    lib_rtti_impl.o(.constdata__ZTVN10__cxxabiv121__vmi_class_type_infoE) refers to lib_rtti_impl.o(.constdata__ZTIN10__cxxabiv121__vmi_class_type_infoE) for typeinfo for __cxxabiv1::__vmi_class_type_info
    lib_rtti_impl.o(.constdata__ZTVN10__cxxabiv121__vmi_class_type_infoE) refers to lib_rtti_impl.o(i._ZN10__cxxabiv121__vmi_class_type_infoD1Ev) for __cxxabiv1::__vmi_class_type_info::~__vmi_class_type_info()
    lib_rtti_impl.o(.constdata__ZTVN10__cxxabiv121__vmi_class_type_infoE) refers to lib_rtti_impl.o(i._ZN10__cxxabiv121__vmi_class_type_infoD0Ev) for __cxxabiv1::__vmi_class_type_info::~__vmi_class_type_info__deallocating()
    lib_rtti_impl.o(.constdata__ZTVN10__cxxabiv117__pbase_type_infoE) refers to lib_rtti_impl.o(.constdata__ZTIN10__cxxabiv117__pbase_type_infoE) for typeinfo for __cxxabiv1::__pbase_type_info
    lib_rtti_impl.o(.constdata__ZTVN10__cxxabiv117__pbase_type_infoE) refers to lib_rtti_impl.o(i._ZN10__cxxabiv117__pbase_type_infoD1Ev) for __cxxabiv1::__pbase_type_info::~__pbase_type_info()
    lib_rtti_impl.o(.constdata__ZTVN10__cxxabiv117__pbase_type_infoE) refers to lib_rtti_impl.o(i._ZN10__cxxabiv117__pbase_type_infoD0Ev) for __cxxabiv1::__pbase_type_info::~__pbase_type_info__deallocating()
    lib_rtti_impl.o(.constdata__ZTVN10__cxxabiv119__pointer_type_infoE) refers to lib_rtti_impl.o(.constdata__ZTIN10__cxxabiv119__pointer_type_infoE) for typeinfo for __cxxabiv1::__pointer_type_info
    lib_rtti_impl.o(.constdata__ZTVN10__cxxabiv119__pointer_type_infoE) refers to lib_rtti_impl.o(i._ZN10__cxxabiv119__pointer_type_infoD1Ev) for __cxxabiv1::__pointer_type_info::~__pointer_type_info()
    lib_rtti_impl.o(.constdata__ZTVN10__cxxabiv119__pointer_type_infoE) refers to lib_rtti_impl.o(i._ZN10__cxxabiv119__pointer_type_infoD0Ev) for __cxxabiv1::__pointer_type_info::~__pointer_type_info__deallocating()
    lib_rtti_impl.o(.constdata__ZTVN10__cxxabiv129__pointer_to_member_type_infoE) refers to lib_rtti_impl.o(.constdata__ZTIN10__cxxabiv129__pointer_to_member_type_infoE) for typeinfo for __cxxabiv1::__pointer_to_member_type_info
    lib_rtti_impl.o(.constdata__ZTVN10__cxxabiv129__pointer_to_member_type_infoE) refers to lib_rtti_impl.o(i._ZN10__cxxabiv129__pointer_to_member_type_infoD1Ev) for __cxxabiv1::__pointer_to_member_type_info::~__pointer_to_member_type_info()
    lib_rtti_impl.o(.constdata__ZTVN10__cxxabiv129__pointer_to_member_type_infoE) refers to lib_rtti_impl.o(i._ZN10__cxxabiv129__pointer_to_member_type_infoD0Ev) for __cxxabiv1::__pointer_to_member_type_info::~__pointer_to_member_type_info__deallocating()
    lib_rtti_impl.o(.ARM.exidx) refers to lib_rtti_impl.o(i._ZNSt9type_infodlEPv) for i._ZNSt9type_infodlEPv
    lib_rtti_impl.o(.constdata__ZTIN10__cxxabiv123__fundamental_type_infoE) refers to lib_rtti_impl.o(.constdata__ZTVN10__cxxabiv120__si_class_type_infoE) for vtable for __cxxabiv1::__si_class_type_info
    lib_rtti_impl.o(.constdata__ZTIN10__cxxabiv123__fundamental_type_infoE) refers to lib_rtti_impl.o(.constdata__ZTSN10__cxxabiv123__fundamental_type_infoE) for typeinfo name for __cxxabiv1::__fundamental_type_info
    lib_rtti_impl.o(.constdata__ZTIN10__cxxabiv123__fundamental_type_infoE) refers to type_info_dtor.o(.constdata__ZTISt9type_info) for typeinfo for std::type_info
    lib_rtti_impl.o(.constdata__ZTIN10__cxxabiv117__array_type_infoE) refers to lib_rtti_impl.o(.constdata__ZTVN10__cxxabiv120__si_class_type_infoE) for vtable for __cxxabiv1::__si_class_type_info
    lib_rtti_impl.o(.constdata__ZTIN10__cxxabiv117__array_type_infoE) refers to lib_rtti_impl.o(.constdata__ZTSN10__cxxabiv117__array_type_infoE) for typeinfo name for __cxxabiv1::__array_type_info
    lib_rtti_impl.o(.constdata__ZTIN10__cxxabiv117__array_type_infoE) refers to type_info_dtor.o(.constdata__ZTISt9type_info) for typeinfo for std::type_info
    lib_rtti_impl.o(.constdata__ZTIN10__cxxabiv120__function_type_infoE) refers to lib_rtti_impl.o(.constdata__ZTVN10__cxxabiv120__si_class_type_infoE) for vtable for __cxxabiv1::__si_class_type_info
    lib_rtti_impl.o(.constdata__ZTIN10__cxxabiv120__function_type_infoE) refers to lib_rtti_impl.o(.constdata__ZTSN10__cxxabiv120__function_type_infoE) for typeinfo name for __cxxabiv1::__function_type_info
    lib_rtti_impl.o(.constdata__ZTIN10__cxxabiv120__function_type_infoE) refers to type_info_dtor.o(.constdata__ZTISt9type_info) for typeinfo for std::type_info
    lib_rtti_impl.o(.constdata__ZTIN10__cxxabiv116__enum_type_infoE) refers to lib_rtti_impl.o(.constdata__ZTVN10__cxxabiv120__si_class_type_infoE) for vtable for __cxxabiv1::__si_class_type_info
    lib_rtti_impl.o(.constdata__ZTIN10__cxxabiv116__enum_type_infoE) refers to lib_rtti_impl.o(.constdata__ZTSN10__cxxabiv116__enum_type_infoE) for typeinfo name for __cxxabiv1::__enum_type_info
    lib_rtti_impl.o(.constdata__ZTIN10__cxxabiv116__enum_type_infoE) refers to type_info_dtor.o(.constdata__ZTISt9type_info) for typeinfo for std::type_info
    lib_rtti_impl.o(.constdata__ZTIN10__cxxabiv117__class_type_infoE) refers to lib_rtti_impl.o(.constdata__ZTVN10__cxxabiv120__si_class_type_infoE) for vtable for __cxxabiv1::__si_class_type_info
    lib_rtti_impl.o(.constdata__ZTIN10__cxxabiv117__class_type_infoE) refers to lib_rtti_impl.o(.constdata__ZTSN10__cxxabiv117__class_type_infoE) for typeinfo name for __cxxabiv1::__class_type_info
    lib_rtti_impl.o(.constdata__ZTIN10__cxxabiv117__class_type_infoE) refers to type_info_dtor.o(.constdata__ZTISt9type_info) for typeinfo for std::type_info
    lib_rtti_impl.o(.constdata__ZTIN10__cxxabiv120__si_class_type_infoE) refers to lib_rtti_impl.o(.constdata__ZTVN10__cxxabiv120__si_class_type_infoE) for vtable for __cxxabiv1::__si_class_type_info
    lib_rtti_impl.o(.constdata__ZTIN10__cxxabiv120__si_class_type_infoE) refers to lib_rtti_impl.o(.constdata__ZTSN10__cxxabiv120__si_class_type_infoE) for typeinfo name for __cxxabiv1::__si_class_type_info
    lib_rtti_impl.o(.constdata__ZTIN10__cxxabiv120__si_class_type_infoE) refers to lib_rtti_impl.o(.constdata__ZTIN10__cxxabiv117__class_type_infoE) for typeinfo for __cxxabiv1::__class_type_info
    lib_rtti_impl.o(.constdata__ZTIN10__cxxabiv121__vmi_class_type_infoE) refers to lib_rtti_impl.o(.constdata__ZTVN10__cxxabiv120__si_class_type_infoE) for vtable for __cxxabiv1::__si_class_type_info
    lib_rtti_impl.o(.constdata__ZTIN10__cxxabiv121__vmi_class_type_infoE) refers to lib_rtti_impl.o(.constdata__ZTSN10__cxxabiv121__vmi_class_type_infoE) for typeinfo name for __cxxabiv1::__vmi_class_type_info
    lib_rtti_impl.o(.constdata__ZTIN10__cxxabiv121__vmi_class_type_infoE) refers to lib_rtti_impl.o(.constdata__ZTIN10__cxxabiv117__class_type_infoE) for typeinfo for __cxxabiv1::__class_type_info
    lib_rtti_impl.o(.constdata__ZTIN10__cxxabiv117__pbase_type_infoE) refers to lib_rtti_impl.o(.constdata__ZTVN10__cxxabiv120__si_class_type_infoE) for vtable for __cxxabiv1::__si_class_type_info
    lib_rtti_impl.o(.constdata__ZTIN10__cxxabiv117__pbase_type_infoE) refers to lib_rtti_impl.o(.constdata__ZTSN10__cxxabiv117__pbase_type_infoE) for typeinfo name for __cxxabiv1::__pbase_type_info
    lib_rtti_impl.o(.constdata__ZTIN10__cxxabiv117__pbase_type_infoE) refers to type_info_dtor.o(.constdata__ZTISt9type_info) for typeinfo for std::type_info
    lib_rtti_impl.o(.constdata__ZTIN10__cxxabiv119__pointer_type_infoE) refers to lib_rtti_impl.o(.constdata__ZTVN10__cxxabiv120__si_class_type_infoE) for vtable for __cxxabiv1::__si_class_type_info
    lib_rtti_impl.o(.constdata__ZTIN10__cxxabiv119__pointer_type_infoE) refers to lib_rtti_impl.o(.constdata__ZTSN10__cxxabiv119__pointer_type_infoE) for typeinfo name for __cxxabiv1::__pointer_type_info
    lib_rtti_impl.o(.constdata__ZTIN10__cxxabiv119__pointer_type_infoE) refers to lib_rtti_impl.o(.constdata__ZTIN10__cxxabiv117__pbase_type_infoE) for typeinfo for __cxxabiv1::__pbase_type_info
    lib_rtti_impl.o(.constdata__ZTIN10__cxxabiv129__pointer_to_member_type_infoE) refers to lib_rtti_impl.o(.constdata__ZTVN10__cxxabiv120__si_class_type_infoE) for vtable for __cxxabiv1::__si_class_type_info
    lib_rtti_impl.o(.constdata__ZTIN10__cxxabiv129__pointer_to_member_type_infoE) refers to lib_rtti_impl.o(.constdata__ZTSN10__cxxabiv129__pointer_to_member_type_infoE) for typeinfo name for __cxxabiv1::__pointer_to_member_type_info
    lib_rtti_impl.o(.constdata__ZTIN10__cxxabiv129__pointer_to_member_type_infoE) refers to lib_rtti_impl.o(.constdata__ZTIN10__cxxabiv117__pbase_type_infoE) for typeinfo for __cxxabiv1::__pbase_type_info
    arm_exceptions_throw.o(.constdata__ZTIv) refers to lib_rtti_impl.o(.constdata__ZTVN10__cxxabiv123__fundamental_type_infoE) for vtable for __cxxabiv1::__fundamental_type_info
    arm_exceptions_throw.o(.constdata__ZTIv) refers to arm_exceptions_throw.o(.constdata__ZTSv) for typeinfo name for void
    arm_exceptions_throw.o(i.__ARM_common_get_typeid) refers to arm_exceptions_bad_typeid.o(.text) for __cxa_bad_typeid
    arm_exceptions_throw.o(.ARM.exidx) refers to arm_exceptions_throw.o(i.__ARM_common_get_typeid) for i.__ARM_common_get_typeid
    arm_exceptions_throw.o(.ARM.exidx) refers to unwind_pr0.o(.text) for __aeabi_unwind_cpp_pr0
    bad_alloc_dtor.o(.constdata__ZTVSt9bad_alloc) refers to bad_alloc_dtor.o(.constdata__ZTISt9bad_alloc) for typeinfo for std::bad_alloc
    bad_alloc_dtor.o(.constdata__ZTVSt9bad_alloc) refers to bad_alloc_dtor.o(i._ZNSt9bad_allocD1Ev) for std::bad_alloc::~bad_alloc()
    bad_alloc_dtor.o(.constdata__ZTVSt9bad_alloc) refers to bad_alloc_dtor.o(i._ZNSt9bad_allocD0Ev) for std::bad_alloc::~bad_alloc__deallocating()
    bad_alloc_dtor.o(.constdata__ZTVSt9bad_alloc) refers to bad_alloc_what.o(i._ZNKSt9bad_alloc4whatEv) for std::bad_alloc::what() const
    bad_alloc_dtor.o(.constdata__ZTISt9bad_alloc) refers to lib_rtti_impl.o(.constdata__ZTVN10__cxxabiv120__si_class_type_infoE) for vtable for __cxxabiv1::__si_class_type_info
    bad_alloc_dtor.o(.constdata__ZTISt9bad_alloc) refers to bad_alloc_dtor.o(.constdata__ZTSSt9bad_alloc) for typeinfo name for std::bad_alloc
    bad_alloc_dtor.o(.constdata__ZTISt9bad_alloc) refers to exception_dtor.o(.constdata__ZTISt9exception) for typeinfo for std::exception
    bad_exception_dtor.o(.constdata__ZTVSt13bad_exception) refers to bad_exception_dtor.o(.constdata__ZTISt13bad_exception) for typeinfo for std::bad_exception
    bad_exception_dtor.o(.constdata__ZTVSt13bad_exception) refers to bad_exception_dtor.o(i._ZNSt13bad_exceptionD1Ev) for std::bad_exception::~bad_exception()
    bad_exception_dtor.o(.constdata__ZTVSt13bad_exception) refers to bad_exception_dtor.o(i._ZNSt13bad_exceptionD0Ev) for std::bad_exception::~bad_exception__deallocating()
    bad_exception_dtor.o(.constdata__ZTVSt13bad_exception) refers to bad_exception_what.o(i._ZNKSt13bad_exception4whatEv) for std::bad_exception::what() const
    bad_exception_dtor.o(.constdata__ZTISt13bad_exception) refers to lib_rtti_impl.o(.constdata__ZTVN10__cxxabiv120__si_class_type_infoE) for vtable for __cxxabiv1::__si_class_type_info
    bad_exception_dtor.o(.constdata__ZTISt13bad_exception) refers to bad_exception_dtor.o(.constdata__ZTSSt13bad_exception) for typeinfo name for std::bad_exception
    bad_exception_dtor.o(.constdata__ZTISt13bad_exception) refers to exception_dtor.o(.constdata__ZTISt9exception) for typeinfo for std::exception
    type_info_dtor.o(.constdata__ZTVSt9type_info) refers to type_info_dtor.o(.constdata__ZTISt9type_info) for typeinfo for std::type_info
    type_info_dtor.o(.constdata__ZTVSt9type_info) refers to type_info_dtor.o(i._ZNSt9type_infoD1Ev) for std::type_info::~type_info()
    type_info_dtor.o(.constdata__ZTVSt9type_info) refers to type_info_dtor.o(i._ZNSt9type_infoD0Ev) for std::type_info::~type_info__deallocating()
    type_info_dtor.o(.constdata__ZTISt9type_info) refers to lib_rtti_impl.o(.constdata__ZTVN10__cxxabiv117__class_type_infoE) for vtable for __cxxabiv1::__class_type_info
    type_info_dtor.o(.constdata__ZTISt9type_info) refers to type_info_dtor.o(.constdata__ZTSSt9type_info) for typeinfo name for std::type_info
    bad_typeid.o(.constdata__ZTVSt10bad_typeid) refers to bad_typeid.o(.constdata__ZTISt10bad_typeid) for typeinfo for std::bad_typeid
    bad_typeid.o(.constdata__ZTVSt10bad_typeid) refers to bad_typeid.o(i._ZNSt10bad_typeidD1Ev) for std::bad_typeid::~bad_typeid()
    bad_typeid.o(.constdata__ZTVSt10bad_typeid) refers to bad_typeid.o(i._ZNSt10bad_typeidD0Ev) for std::bad_typeid::~bad_typeid__deallocating()
    bad_typeid.o(.constdata__ZTVSt10bad_typeid) refers to bad_typeid.o(i._ZNKSt10bad_typeid4whatEv) for std::bad_typeid::what() const
    bad_typeid.o(.constdata__ZTISt10bad_typeid) refers to lib_rtti_impl.o(.constdata__ZTVN10__cxxabiv120__si_class_type_infoE) for vtable for __cxxabiv1::__si_class_type_info
    bad_typeid.o(.constdata__ZTISt10bad_typeid) refers to bad_typeid.o(.constdata__ZTSSt10bad_typeid) for typeinfo name for std::bad_typeid
    bad_typeid.o(.constdata__ZTISt10bad_typeid) refers to exception_dtor.o(.constdata__ZTISt9exception) for typeinfo for std::exception
    exception_dtor.o(.constdata__ZTVSt9exception) refers to exception_dtor.o(.constdata__ZTISt9exception) for typeinfo for std::exception
    exception_dtor.o(.constdata__ZTVSt9exception) refers to exception_dtor.o(i._ZNSt9exceptionD1Ev) for std::exception::~exception()
    exception_dtor.o(.constdata__ZTVSt9exception) refers to exception_dtor.o(i._ZNSt9exceptionD0Ev) for std::exception::~exception__deallocating()
    exception_dtor.o(.constdata__ZTVSt9exception) refers to exception_what.o(i._ZNKSt9exception4whatEv) for std::exception::what() const
    exception_dtor.o(.constdata__ZTISt9exception) refers to lib_rtti_impl.o(.constdata__ZTVN10__cxxabiv117__class_type_infoE) for vtable for __cxxabiv1::__class_type_info
    exception_dtor.o(.constdata__ZTISt9exception) refers to exception_dtor.o(.constdata__ZTSSt9exception) for typeinfo name for std::exception


==============================================================================

Removing Unused input sections from the image.

    Removing adafruit_gfx.o(.rev16_text), (4 bytes).
    Removing adafruit_gfx.o(.revsh_text), (4 bytes).
    Removing adafruit_gfx.o(.rrx_text), (6 bytes).
    Removing adafruit_gfx.o(.ARM.exidx), (8 bytes).
    Removing adafruit_gfx.o(.ARM.exidx), (8 bytes).
    Removing adafruit_gfx.o(.ARM.exidx), (8 bytes).
    Removing adafruit_gfx.o(i._ZN12Adafruit_GFX10drawBitmapEssPKhsst), (108 bytes).
    Removing adafruit_gfx.o(i._ZN12Adafruit_GFX10drawBitmapEssPKhsstt), (114 bytes).
    Removing adafruit_gfx.o(i._ZN12Adafruit_GFX10drawCircleEssst), (316 bytes).
    Removing adafruit_gfx.o(i._ZN12Adafruit_GFX10fillCircleEssst), (64 bytes).
    Removing adafruit_gfx.o(i._ZN12Adafruit_GFX10fillScreenEt), (26 bytes).
    Removing adafruit_gfx.o(i._ZN12Adafruit_GFX11drawXBitmapEssPKhsst), (110 bytes).
    Removing adafruit_gfx.o(i._ZN12Adafruit_GFX11setRotationEh), (38 bytes).
    Removing adafruit_gfx.o(i._ZN12Adafruit_GFX11setTextWrapEb), (4 bytes).
    Removing adafruit_gfx.o(i._ZN12Adafruit_GFX12drawTriangleEsssssst), (76 bytes).
    Removing adafruit_gfx.o(i._ZN12Adafruit_GFX12fillTriangleEsssssst), (358 bytes).
    Removing adafruit_gfx.o(i._ZN12Adafruit_GFX13drawRoundRectEssssst), (230 bytes).
    Removing adafruit_gfx.o(i._ZN12Adafruit_GFX13fillRoundRectEssssst), (114 bytes).
    Removing adafruit_gfx.o(i._ZN12Adafruit_GFX16drawCircleHelperEsssht), (312 bytes).
    Removing adafruit_gfx.o(i._ZN12Adafruit_GFX16fillCircleHelperEssshst), (240 bytes).
    Removing adafruit_gfx.o(i._ZN12Adafruit_GFX5writeEh), (102 bytes).
    Removing adafruit_gfx.o(i._ZN12Adafruit_GFX8drawCharEsshtth), (224 bytes).
    Removing adafruit_gfx.o(i._ZN12Adafruit_GFX8drawRectEsssst), (96 bytes).
    Removing adafruit_gfx.o(.ARM.exidx), (8 bytes).
    Removing adafruit_gfx.o(.ARM.exidx), (8 bytes).
    Removing adafruit_gfx.o(.ARM.exidx), (8 bytes).
    Removing adafruit_gfx.o(.ARM.exidx), (8 bytes).
    Removing adafruit_gfx.o(.ARM.exidx), (8 bytes).
    Removing adafruit_gfx.o(.ARM.exidx), (8 bytes).
    Removing adafruit_gfx.o(.ARM.exidx), (8 bytes).
    Removing adafruit_gfx.o(.ARM.exidx), (8 bytes).
    Removing adafruit_gfx.o(.ARM.exidx), (8 bytes).
    Removing adafruit_gfx.o(.ARM.exidx), (8 bytes).
    Removing adafruit_gfx.o(.ARM.exidx), (8 bytes).
    Removing adafruit_gfx.o(.ARM.exidx), (8 bytes).
    Removing adafruit_gfx.o(.ARM.exidx), (8 bytes).
    Removing adafruit_gfx.o(.ARM.exidx), (8 bytes).
    Removing adafruit_gfx.o(.ARM.exidx), (8 bytes).
    Removing adafruit_gfx.o(.ARM.exidx), (8 bytes).
    Removing adafruit_gfx.o(.ARM.exidx), (8 bytes).
    Removing adafruit_gfx.o(.ARM.extab), (12 bytes).
    Removing adafruit_gfx.o(.ARM.extab), (12 bytes).
    Removing adafruit_gfx.o(.ARM.extab), (12 bytes).
    Removing adafruit_gfx.o(.ARM.extab), (12 bytes).
    Removing adafruit_gfx.o(.ARM.extab), (12 bytes).
    Removing adafruit_gfx.o(.ARM.extab), (12 bytes).
    Removing adafruit_gfx.o(.constdata), (1275 bytes).
    Removing adafruit_ssd1306.o(.rev16_text), (4 bytes).
    Removing adafruit_ssd1306.o(.revsh_text), (4 bytes).
    Removing adafruit_ssd1306.o(.rrx_text), (6 bytes).
    Removing adafruit_ssd1306.o(.ARM.exidx), (8 bytes).
    Removing adafruit_ssd1306.o(.ARM.exidx), (8 bytes).
    Removing adafruit_ssd1306.o(.ARM.exidx), (8 bytes).
    Removing main.o(.rev16_text), (4 bytes).
    Removing main.o(.revsh_text), (4 bytes).
    Removing main.o(.rrx_text), (6 bytes).
    Removing main.o(.ARM.exidx), (8 bytes).
    Removing main.o(.ARM.exidx), (8 bytes).
    Removing main.o(.ARM.exidx), (8 bytes).
    Removing main.o(i.Error_Handler), (2 bytes).
    Removing main.o(.ARM.exidx), (8 bytes).
    Removing stm32f4xx_it.o(.rev16_text), (4 bytes).
    Removing stm32f4xx_it.o(.revsh_text), (4 bytes).
    Removing stm32f4xx_it.o(.rrx_text), (6 bytes).
    Removing stm32f4xx_it.o(.ARM.exidx), (8 bytes).
    Removing stm32f4xx_it.o(.ARM.exidx), (8 bytes).
    Removing stm32f4xx_it.o(.ARM.exidx), (8 bytes).
    Removing stm32f4xx_hal_msp.o(.rev16_text), (4 bytes).
    Removing stm32f4xx_hal_msp.o(.revsh_text), (4 bytes).
    Removing stm32f4xx_hal_msp.o(.rrx_text), (6 bytes).
    Removing stm32f4xx_hal_msp.o(.ARM.exidx), (8 bytes).
    Removing stm32f4xx_hal_msp.o(.ARM.exidx), (8 bytes).
    Removing stm32f4xx_hal_msp.o(.ARM.exidx), (8 bytes).
    Removing stm32f4xx_hal_msp.o(i.HAL_I2C_MspDeInit), (64 bytes).
    Removing stm32f4xx_hal_msp.o(.ARM.exidx), (8 bytes).
    Removing double_screen.o(.rev16_text), (4 bytes).
    Removing double_screen.o(.revsh_text), (4 bytes).
    Removing double_screen.o(.rrx_text), (6 bytes).
    Removing double_screen.o(.ARM.exidx), (8 bytes).
    Removing double_screen.o(.ARM.exidx), (8 bytes).
    Removing double_screen.o(.ARM.exidx), (8 bytes).
    Removing double_screen.o(i._ZN13Double_screen10drawBitmapEssPKhsst), (2 bytes).
    Removing double_screen.o(i._ZN13Double_screen10drawBitmapEssPKhsstt), (2 bytes).
    Removing double_screen.o(i._ZN13Double_screen10drawCircleEssst), (2 bytes).
    Removing double_screen.o(i._ZN13Double_screen10fillCircleEssst), (2 bytes).
    Removing double_screen.o(i._ZN13Double_screen10fillScreenEt), (2 bytes).
    Removing double_screen.o(i._ZN13Double_screen10stopscrollEv), (2 bytes).
    Removing double_screen.o(i._ZN13Double_screen11drawXBitmapEssPKhsst), (2 bytes).
    Removing double_screen.o(i._ZN13Double_screen11setRotationEh), (38 bytes).
    Removing double_screen.o(i._ZN13Double_screen11setTextWrapEb), (4 bytes).
    Removing double_screen.o(i._ZN13Double_screen12drawTriangleEsssssst), (2 bytes).
    Removing double_screen.o(i._ZN13Double_screen12fastSPIwriteEh), (2 bytes).
    Removing double_screen.o(i._ZN13Double_screen12fillTriangleEsssssst), (2 bytes).
    Removing double_screen.o(i._ZN13Double_screen13drawFastHLineEssst), (2 bytes).
    Removing double_screen.o(i._ZN13Double_screen13drawFastVLineEssst), (2 bytes).
    Removing double_screen.o(i._ZN13Double_screen13drawRoundRectEssssst), (2 bytes).
    Removing double_screen.o(i._ZN13Double_screen13fillRoundRectEssssst), (2 bytes).
    Removing double_screen.o(i._ZN13Double_screen13invertDisplayEh), (2 bytes).
    Removing double_screen.o(i._ZN13Double_screen15startscrollleftEhh), (2 bytes).
    Removing double_screen.o(i._ZN13Double_screen16drawCircleHelperEsssht), (2 bytes).
    Removing double_screen.o(i._ZN13Double_screen16fillCircleHelperEssshst), (2 bytes).
    Removing double_screen.o(i._ZN13Double_screen16startscrollrightEhh), (2 bytes).
    Removing double_screen.o(i._ZN13Double_screen19startscrolldiagleftEhh), (2 bytes).
    Removing double_screen.o(i._ZN13Double_screen20startscrolldiagrightEhh), (2 bytes).
    Removing double_screen.o(i._ZN13Double_screen3dimEb), (2 bytes).
    Removing double_screen.o(i._ZN13Double_screen5writeEh), (2 bytes).
    Removing double_screen.o(i._ZN13Double_screen6memsetEPhtt), (2 bytes).
    Removing double_screen.o(i._ZN13Double_screen8drawCharEsshtth), (2 bytes).
    Removing double_screen.o(i._ZN13Double_screen8drawRectEsssst), (2 bytes).
    Removing double_screen.o(i._ZN13Double_screen8fillRectEsssst), (2 bytes).
    Removing double_screen.o(i._ZNK13Double_screen11getRotationEv), (4 bytes).
    Removing double_screen.o(i._ZNK13Double_screen5widthEv), (6 bytes).
    Removing double_screen.o(i._ZNK13Double_screen6heightEv), (6 bytes).
    Removing double_screen.o(.ARM.exidx), (8 bytes).
    Removing double_screen.o(.ARM.exidx), (8 bytes).
    Removing double_screen.o(.ARM.exidx), (8 bytes).
    Removing double_screen.o(.ARM.exidx), (8 bytes).
    Removing double_screen.o(.ARM.exidx), (8 bytes).
    Removing double_screen.o(.ARM.exidx), (8 bytes).
    Removing double_screen.o(.ARM.exidx), (8 bytes).
    Removing double_screen.o(.ARM.exidx), (8 bytes).
    Removing double_screen.o(.ARM.exidx), (8 bytes).
    Removing double_screen.o(.ARM.exidx), (8 bytes).
    Removing double_screen.o(.ARM.exidx), (8 bytes).
    Removing double_screen.o(.ARM.exidx), (8 bytes).
    Removing double_screen.o(.ARM.exidx), (8 bytes).
    Removing double_screen.o(.ARM.exidx), (8 bytes).
    Removing double_screen.o(.ARM.exidx), (8 bytes).
    Removing double_screen.o(.ARM.exidx), (8 bytes).
    Removing double_screen.o(.ARM.exidx), (8 bytes).
    Removing double_screen.o(.ARM.exidx), (8 bytes).
    Removing double_screen.o(.ARM.exidx), (8 bytes).
    Removing double_screen.o(.ARM.exidx), (8 bytes).
    Removing double_screen.o(.ARM.exidx), (8 bytes).
    Removing double_screen.o(.ARM.exidx), (8 bytes).
    Removing double_screen.o(.ARM.exidx), (8 bytes).
    Removing double_screen.o(.ARM.exidx), (8 bytes).
    Removing double_screen.o(.ARM.exidx), (8 bytes).
    Removing double_screen.o(.ARM.exidx), (8 bytes).
    Removing double_screen.o(.ARM.exidx), (8 bytes).
    Removing double_screen.o(.ARM.exidx), (8 bytes).
    Removing double_screen.o(.ARM.exidx), (8 bytes).
    Removing double_screen.o(.ARM.exidx), (8 bytes).
    Removing double_screen.o(.ARM.exidx), (8 bytes).
    Removing double_screen.o(.ARM.exidx), (8 bytes).
    Removing snake_game.o(.rev16_text), (4 bytes).
    Removing snake_game.o(.revsh_text), (4 bytes).
    Removing snake_game.o(.rrx_text), (6 bytes).
    Removing snake_game.o(.ARM.exidx), (8 bytes).
    Removing snake_game.o(.ARM.exidx), (8 bytes).
    Removing snake_game.o(.ARM.exidx), (8 bytes).
    Removing snake_game.o(i._ZN10Snake_game2upEv), (2 bytes).
    Removing snake_game.o(i._ZN10Snake_game4downEv), (2 bytes).
    Removing snake_game.o(i._ZN10Snake_game4leftEv), (2 bytes).
    Removing snake_game.o(i._ZN10Snake_game5rightEv), (2 bytes).
    Removing snake_game.o(i._ZN10Snake_game7getSizeEv), (4 bytes).
    Removing snake_game.o(i._ZN10Snake_game7popTailEv), (2 bytes).
    Removing snake_game.o(.ARM.exidx), (8 bytes).
    Removing snake_game.o(.ARM.exidx), (8 bytes).
    Removing snake_game.o(.ARM.exidx), (8 bytes).
    Removing snake_game.o(.ARM.exidx), (8 bytes).
    Removing snake_game.o(.ARM.exidx), (8 bytes).
    Removing snake_game.o(.ARM.exidx), (8 bytes).
    Removing stm32f4xx_hal_i2c.o(.rev16_text), (4 bytes).
    Removing stm32f4xx_hal_i2c.o(.revsh_text), (4 bytes).
    Removing stm32f4xx_hal_i2c.o(.rrx_text), (6 bytes).
    Removing stm32f4xx_hal_i2c.o(.ARM.exidx), (8 bytes).
    Removing stm32f4xx_hal_i2c.o(.ARM.exidx), (8 bytes).
    Removing stm32f4xx_hal_i2c.o(.ARM.exidx), (8 bytes).
    Removing stm32f4xx_hal_i2c.o(i.HAL_I2C_DeInit), (50 bytes).
    Removing stm32f4xx_hal_i2c.o(i.HAL_I2C_DisableListen_IT), (68 bytes).
    Removing stm32f4xx_hal_i2c.o(i.HAL_I2C_EnableListen_IT), (58 bytes).
    Removing stm32f4xx_hal_i2c.o(i.HAL_I2C_GetError), (4 bytes).
    Removing stm32f4xx_hal_i2c.o(i.HAL_I2C_GetMode), (6 bytes).
    Removing stm32f4xx_hal_i2c.o(i.HAL_I2C_GetState), (6 bytes).
    Removing stm32f4xx_hal_i2c.o(i.HAL_I2C_Master_Receive_IT), (200 bytes).
    Removing stm32f4xx_hal_i2c.o(i.HAL_I2C_Master_Seq_Receive_IT), (300 bytes).
    Removing stm32f4xx_hal_i2c.o(i.HAL_I2C_Master_Seq_Transmit_IT), (212 bytes).
    Removing stm32f4xx_hal_i2c.o(i.HAL_I2C_Master_Transmit_IT), (188 bytes).
    Removing stm32f4xx_hal_i2c.o(i.HAL_I2C_Mem_Read_IT), (224 bytes).
    Removing stm32f4xx_hal_i2c.o(i.HAL_I2C_Mem_Write_IT), (212 bytes).
    Removing stm32f4xx_hal_i2c.o(i.HAL_I2C_MspDeInit), (2 bytes).
    Removing stm32f4xx_hal_i2c.o(i.HAL_I2C_MspInit), (2 bytes).
    Removing stm32f4xx_hal_i2c.o(i.HAL_I2C_Slave_Receive_IT), (124 bytes).
    Removing stm32f4xx_hal_i2c.o(i.HAL_I2C_Slave_Seq_Receive_IT), (116 bytes).
    Removing stm32f4xx_hal_i2c.o(i.HAL_I2C_Slave_Seq_Transmit_IT), (116 bytes).
    Removing stm32f4xx_hal_i2c.o(i.HAL_I2C_Slave_Transmit_IT), (124 bytes).
    Removing stm32f4xx_hal_i2c.o(.ARM.exidx), (8 bytes).
    Removing stm32f4xx_hal_i2c.o(.ARM.exidx), (8 bytes).
    Removing stm32f4xx_hal_i2c.o(.ARM.exidx), (8 bytes).
    Removing stm32f4xx_hal_i2c.o(.ARM.exidx), (8 bytes).
    Removing stm32f4xx_hal_i2c.o(.ARM.exidx), (8 bytes).
    Removing stm32f4xx_hal_i2c.o(.ARM.exidx), (8 bytes).
    Removing stm32f4xx_hal_i2c.o(.ARM.exidx), (8 bytes).
    Removing stm32f4xx_hal_i2c.o(.ARM.exidx), (8 bytes).
    Removing stm32f4xx_hal_i2c.o(.ARM.exidx), (8 bytes).
    Removing stm32f4xx_hal_i2c.o(.ARM.exidx), (8 bytes).
    Removing stm32f4xx_hal_i2c.o(.ARM.exidx), (8 bytes).
    Removing stm32f4xx_hal_i2c.o(.ARM.exidx), (8 bytes).
    Removing stm32f4xx_hal_i2c.o(.ARM.exidx), (8 bytes).
    Removing stm32f4xx_hal_i2c.o(.ARM.exidx), (8 bytes).
    Removing stm32f4xx_hal_i2c.o(.ARM.exidx), (8 bytes).
    Removing stm32f4xx_hal_i2c.o(.ARM.exidx), (8 bytes).
    Removing stm32f4xx_hal_i2c.o(.ARM.exidx), (8 bytes).
    Removing stm32f4xx_hal_i2c.o(.ARM.exidx), (8 bytes).
    Removing stm32f4xx_hal_i2c_ex.o(.rev16_text), (4 bytes).
    Removing stm32f4xx_hal_i2c_ex.o(.revsh_text), (4 bytes).
    Removing stm32f4xx_hal_i2c_ex.o(.rrx_text), (6 bytes).
    Removing stm32f4xx_hal_i2c_ex.o(.ARM.exidx), (8 bytes).
    Removing stm32f4xx_hal_i2c_ex.o(.ARM.exidx), (8 bytes).
    Removing stm32f4xx_hal_i2c_ex.o(.ARM.exidx), (8 bytes).
    Removing stm32f4xx_hal_rcc.o(.rev16_text), (4 bytes).
    Removing stm32f4xx_hal_rcc.o(.revsh_text), (4 bytes).
    Removing stm32f4xx_hal_rcc.o(.rrx_text), (6 bytes).
    Removing stm32f4xx_hal_rcc.o(.ARM.exidx), (8 bytes).
    Removing stm32f4xx_hal_rcc.o(.ARM.exidx), (8 bytes).
    Removing stm32f4xx_hal_rcc.o(.ARM.exidx), (8 bytes).
    Removing stm32f4xx_hal_rcc.o(i.HAL_RCC_CSSCallback), (2 bytes).
    Removing stm32f4xx_hal_rcc.o(i.HAL_RCC_DeInit), (4 bytes).
    Removing stm32f4xx_hal_rcc.o(i.HAL_RCC_DisableCSS), (12 bytes).
    Removing stm32f4xx_hal_rcc.o(i.HAL_RCC_EnableCSS), (12 bytes).
    Removing stm32f4xx_hal_rcc.o(i.HAL_RCC_GetClockConfig), (64 bytes).
    Removing stm32f4xx_hal_rcc.o(i.HAL_RCC_GetHCLKFreq), (12 bytes).
    Removing stm32f4xx_hal_rcc.o(i.HAL_RCC_GetOscConfig), (180 bytes).
    Removing stm32f4xx_hal_rcc.o(i.HAL_RCC_GetPCLK2Freq), (32 bytes).
    Removing stm32f4xx_hal_rcc.o(i.HAL_RCC_MCOConfig), (140 bytes).
    Removing stm32f4xx_hal_rcc.o(i.HAL_RCC_NMI_IRQHandler), (28 bytes).
    Removing stm32f4xx_hal_rcc.o(.ARM.exidx), (8 bytes).
    Removing stm32f4xx_hal_rcc.o(.ARM.exidx), (8 bytes).
    Removing stm32f4xx_hal_rcc.o(.ARM.exidx), (8 bytes).
    Removing stm32f4xx_hal_rcc.o(.ARM.exidx), (8 bytes).
    Removing stm32f4xx_hal_rcc.o(.ARM.exidx), (8 bytes).
    Removing stm32f4xx_hal_rcc.o(.ARM.exidx), (8 bytes).
    Removing stm32f4xx_hal_rcc.o(.ARM.exidx), (8 bytes).
    Removing stm32f4xx_hal_rcc.o(.ARM.exidx), (8 bytes).
    Removing stm32f4xx_hal_rcc.o(.ARM.exidx), (8 bytes).
    Removing stm32f4xx_hal_rcc.o(.ARM.exidx), (8 bytes).
    Removing stm32f4xx_hal_rcc_ex.o(.rev16_text), (4 bytes).
    Removing stm32f4xx_hal_rcc_ex.o(.revsh_text), (4 bytes).
    Removing stm32f4xx_hal_rcc_ex.o(.rrx_text), (6 bytes).
    Removing stm32f4xx_hal_rcc_ex.o(.ARM.exidx), (8 bytes).
    Removing stm32f4xx_hal_rcc_ex.o(.ARM.exidx), (8 bytes).
    Removing stm32f4xx_hal_rcc_ex.o(.ARM.exidx), (8 bytes).
    Removing stm32f4xx_hal_rcc_ex.o(i.HAL_RCCEx_DisablePLLI2S), (52 bytes).
    Removing stm32f4xx_hal_rcc_ex.o(i.HAL_RCCEx_EnablePLLI2S), (104 bytes).
    Removing stm32f4xx_hal_rcc_ex.o(i.HAL_RCCEx_GetPeriphCLKConfig), (52 bytes).
    Removing stm32f4xx_hal_rcc_ex.o(i.HAL_RCCEx_GetPeriphCLKFreq), (92 bytes).
    Removing stm32f4xx_hal_rcc_ex.o(i.HAL_RCCEx_PeriphCLKConfig), (316 bytes).
    Removing stm32f4xx_hal_rcc_ex.o(i.HAL_RCC_DeInit), (308 bytes).
    Removing stm32f4xx_hal_rcc_ex.o(.ARM.exidx), (8 bytes).
    Removing stm32f4xx_hal_rcc_ex.o(.ARM.exidx), (8 bytes).
    Removing stm32f4xx_hal_rcc_ex.o(.ARM.exidx), (8 bytes).
    Removing stm32f4xx_hal_rcc_ex.o(.ARM.exidx), (8 bytes).
    Removing stm32f4xx_hal_rcc_ex.o(.ARM.exidx), (8 bytes).
    Removing stm32f4xx_hal_rcc_ex.o(.ARM.exidx), (8 bytes).
    Removing stm32f4xx_hal_flash.o(.rev16_text), (4 bytes).
    Removing stm32f4xx_hal_flash.o(.revsh_text), (4 bytes).
    Removing stm32f4xx_hal_flash.o(.rrx_text), (6 bytes).
    Removing stm32f4xx_hal_flash.o(.ARM.exidx), (8 bytes).
    Removing stm32f4xx_hal_flash.o(.ARM.exidx), (8 bytes).
    Removing stm32f4xx_hal_flash.o(.ARM.exidx), (8 bytes).
    Removing stm32f4xx_hal_flash.o(i.FLASH_WaitForLastOperation), (80 bytes).
    Removing stm32f4xx_hal_flash.o(i.HAL_FLASH_EndOfOperationCallback), (2 bytes).
    Removing stm32f4xx_hal_flash.o(i.HAL_FLASH_GetError), (12 bytes).
    Removing stm32f4xx_hal_flash.o(i.HAL_FLASH_IRQHandler), (204 bytes).
    Removing stm32f4xx_hal_flash.o(i.HAL_FLASH_Lock), (20 bytes).
    Removing stm32f4xx_hal_flash.o(i.HAL_FLASH_OB_Launch), (24 bytes).
    Removing stm32f4xx_hal_flash.o(i.HAL_FLASH_OB_Lock), (20 bytes).
    Removing stm32f4xx_hal_flash.o(i.HAL_FLASH_OB_Unlock), (40 bytes).
    Removing stm32f4xx_hal_flash.o(i.HAL_FLASH_OperationErrorCallback), (2 bytes).
    Removing stm32f4xx_hal_flash.o(i.HAL_FLASH_Program), (124 bytes).
    Removing stm32f4xx_hal_flash.o(i.HAL_FLASH_Program_IT), (108 bytes).
    Removing stm32f4xx_hal_flash.o(i.HAL_FLASH_Unlock), (44 bytes).
    Removing stm32f4xx_hal_flash.o(i._ZN43_INTERNAL_21_stm32f4xx_hal_flash_c_48aa8f3e18FLASH_Program_ByteEjh), (32 bytes).
    Removing stm32f4xx_hal_flash.o(i._ZN43_INTERNAL_21_stm32f4xx_hal_flash_c_48aa8f3e18FLASH_Program_WordEjj), (36 bytes).
    Removing stm32f4xx_hal_flash.o(i._ZN43_INTERNAL_21_stm32f4xx_hal_flash_c_48aa8f3e18FLASH_SetErrorCodeEv), (104 bytes).
    Removing stm32f4xx_hal_flash.o(i._ZN43_INTERNAL_21_stm32f4xx_hal_flash_c_48aa8f3e22FLASH_Program_HalfWordEjt), (36 bytes).
    Removing stm32f4xx_hal_flash.o(i._ZN43_INTERNAL_21_stm32f4xx_hal_flash_c_48aa8f3e24FLASH_Program_DoubleWordEjy), (44 bytes).
    Removing stm32f4xx_hal_flash.o(.ARM.exidx), (8 bytes).
    Removing stm32f4xx_hal_flash.o(.ARM.exidx), (8 bytes).
    Removing stm32f4xx_hal_flash.o(.ARM.exidx), (8 bytes).
    Removing stm32f4xx_hal_flash.o(.ARM.exidx), (8 bytes).
    Removing stm32f4xx_hal_flash.o(.ARM.exidx), (8 bytes).
    Removing stm32f4xx_hal_flash.o(.ARM.exidx), (8 bytes).
    Removing stm32f4xx_hal_flash.o(.ARM.exidx), (8 bytes).
    Removing stm32f4xx_hal_flash.o(.ARM.exidx), (8 bytes).
    Removing stm32f4xx_hal_flash.o(.ARM.exidx), (8 bytes).
    Removing stm32f4xx_hal_flash.o(.ARM.exidx), (8 bytes).
    Removing stm32f4xx_hal_flash.o(.ARM.exidx), (8 bytes).
    Removing stm32f4xx_hal_flash.o(.ARM.exidx), (8 bytes).
    Removing stm32f4xx_hal_flash.o(.ARM.exidx), (8 bytes).
    Removing stm32f4xx_hal_flash.o(.ARM.exidx), (8 bytes).
    Removing stm32f4xx_hal_flash.o(.ARM.exidx), (8 bytes).
    Removing stm32f4xx_hal_flash.o(.ARM.exidx), (8 bytes).
    Removing stm32f4xx_hal_flash.o(.ARM.exidx), (8 bytes).
    Removing stm32f4xx_hal_flash.o(.bss), (32 bytes).
    Removing stm32f4xx_hal_flash_ex.o(.rev16_text), (4 bytes).
    Removing stm32f4xx_hal_flash_ex.o(.revsh_text), (4 bytes).
    Removing stm32f4xx_hal_flash_ex.o(.rrx_text), (6 bytes).
    Removing stm32f4xx_hal_flash_ex.o(.ARM.exidx), (8 bytes).
    Removing stm32f4xx_hal_flash_ex.o(.ARM.exidx), (8 bytes).
    Removing stm32f4xx_hal_flash_ex.o(.ARM.exidx), (8 bytes).
    Removing stm32f4xx_hal_flash_ex.o(i.FLASH_Erase_Sector), (80 bytes).
    Removing stm32f4xx_hal_flash_ex.o(i.FLASH_FlushCaches), (84 bytes).
    Removing stm32f4xx_hal_flash_ex.o(i.HAL_FLASHEx_Erase), (152 bytes).
    Removing stm32f4xx_hal_flash_ex.o(i.HAL_FLASHEx_Erase_IT), (104 bytes).
    Removing stm32f4xx_hal_flash_ex.o(i.HAL_FLASHEx_OBGetConfig), (64 bytes).
    Removing stm32f4xx_hal_flash_ex.o(i.HAL_FLASHEx_OBProgram), (204 bytes).
    Removing stm32f4xx_hal_flash_ex.o(i._ZN46_INTERNAL_24_stm32f4xx_hal_flash_ex_c_6648b60e15FLASH_MassEraseEhj), (40 bytes).
    Removing stm32f4xx_hal_flash_ex.o(.ARM.exidx), (8 bytes).
    Removing stm32f4xx_hal_flash_ex.o(.ARM.exidx), (8 bytes).
    Removing stm32f4xx_hal_flash_ex.o(.ARM.exidx), (8 bytes).
    Removing stm32f4xx_hal_flash_ex.o(.ARM.exidx), (8 bytes).
    Removing stm32f4xx_hal_flash_ex.o(.ARM.exidx), (8 bytes).
    Removing stm32f4xx_hal_flash_ex.o(.ARM.exidx), (8 bytes).
    Removing stm32f4xx_hal_flash_ex.o(.ARM.exidx), (8 bytes).
    Removing stm32f4xx_hal_flash_ramfunc.o(.rev16_text), (4 bytes).
    Removing stm32f4xx_hal_flash_ramfunc.o(.revsh_text), (4 bytes).
    Removing stm32f4xx_hal_flash_ramfunc.o(.rrx_text), (6 bytes).
    Removing stm32f4xx_hal_flash_ramfunc.o(.ARM.exidx), (8 bytes).
    Removing stm32f4xx_hal_flash_ramfunc.o(.ARM.exidx), (8 bytes).
    Removing stm32f4xx_hal_flash_ramfunc.o(.ARM.exidx), (8 bytes).
    Removing stm32f4xx_hal_gpio.o(.rev16_text), (4 bytes).
    Removing stm32f4xx_hal_gpio.o(.revsh_text), (4 bytes).
    Removing stm32f4xx_hal_gpio.o(.rrx_text), (6 bytes).
    Removing stm32f4xx_hal_gpio.o(.ARM.exidx), (8 bytes).
    Removing stm32f4xx_hal_gpio.o(.ARM.exidx), (8 bytes).
    Removing stm32f4xx_hal_gpio.o(.ARM.exidx), (8 bytes).
    Removing stm32f4xx_hal_gpio.o(i.HAL_GPIO_DeInit), (360 bytes).
    Removing stm32f4xx_hal_gpio.o(i.HAL_GPIO_EXTI_Callback), (2 bytes).
    Removing stm32f4xx_hal_gpio.o(i.HAL_GPIO_EXTI_IRQHandler), (24 bytes).
    Removing stm32f4xx_hal_gpio.o(i.HAL_GPIO_LockPin), (34 bytes).
    Removing stm32f4xx_hal_gpio.o(i.HAL_GPIO_ReadPin), (10 bytes).
    Removing stm32f4xx_hal_gpio.o(.ARM.exidx), (8 bytes).
    Removing stm32f4xx_hal_gpio.o(.ARM.exidx), (8 bytes).
    Removing stm32f4xx_hal_gpio.o(.ARM.exidx), (8 bytes).
    Removing stm32f4xx_hal_gpio.o(.ARM.exidx), (8 bytes).
    Removing stm32f4xx_hal_gpio.o(.ARM.exidx), (8 bytes).
    Removing stm32f4xx_hal_dma_ex.o(.rev16_text), (4 bytes).
    Removing stm32f4xx_hal_dma_ex.o(.revsh_text), (4 bytes).
    Removing stm32f4xx_hal_dma_ex.o(.rrx_text), (6 bytes).
    Removing stm32f4xx_hal_dma_ex.o(.ARM.exidx), (8 bytes).
    Removing stm32f4xx_hal_dma_ex.o(.ARM.exidx), (8 bytes).
    Removing stm32f4xx_hal_dma_ex.o(.ARM.exidx), (8 bytes).
    Removing stm32f4xx_hal_dma_ex.o(i.HAL_DMAEx_ChangeMemory), (14 bytes).
    Removing stm32f4xx_hal_dma_ex.o(i.HAL_DMAEx_MultiBufferStart), (100 bytes).
    Removing stm32f4xx_hal_dma_ex.o(i.HAL_DMAEx_MultiBufferStart_IT), (2432 bytes).
    Removing stm32f4xx_hal_dma_ex.o(i._ZN44_INTERNAL_22_stm32f4xx_hal_dma_ex_c_af8eecb024DMA_MultiBufferSetConfigEP19__DMA_HandleTypeDefjjj), (30 bytes).
    Removing stm32f4xx_hal_dma_ex.o(.ARM.exidx), (8 bytes).
    Removing stm32f4xx_hal_dma_ex.o(.ARM.exidx), (8 bytes).
    Removing stm32f4xx_hal_dma_ex.o(.ARM.exidx), (8 bytes).
    Removing stm32f4xx_hal_dma_ex.o(.ARM.exidx), (8 bytes).
    Removing stm32f4xx_hal_dma.o(.rev16_text), (4 bytes).
    Removing stm32f4xx_hal_dma.o(.revsh_text), (4 bytes).
    Removing stm32f4xx_hal_dma.o(.rrx_text), (6 bytes).
    Removing stm32f4xx_hal_dma.o(.ARM.exidx), (8 bytes).
    Removing stm32f4xx_hal_dma.o(.ARM.exidx), (8 bytes).
    Removing stm32f4xx_hal_dma.o(.ARM.exidx), (8 bytes).
    Removing stm32f4xx_hal_dma.o(i.HAL_DMA_Abort), (142 bytes).
    Removing stm32f4xx_hal_dma.o(i.HAL_DMA_DeInit), (98 bytes).
    Removing stm32f4xx_hal_dma.o(i.HAL_DMA_IRQHandler), (416 bytes).
    Removing stm32f4xx_hal_dma.o(i.HAL_DMA_Init), (212 bytes).
    Removing stm32f4xx_hal_dma.o(i.HAL_DMA_PollForTransfer), (292 bytes).
    Removing stm32f4xx_hal_dma.o(i.HAL_DMA_UnRegisterCallback), (96 bytes).
    Removing stm32f4xx_hal_dma.o(i._Z24HAL_DMA_RegisterCallbackP19__DMA_HandleTypeDef25HAL_DMA_CallbackIDTypeDefPFvS0_E), (80 bytes).
    Removing stm32f4xx_hal_dma.o(i._ZN41_INTERNAL_19_stm32f4xx_hal_dma_c_c25f65ec18DMA_CheckFifoParamEP19__DMA_HandleTypeDef), (84 bytes).
    Removing stm32f4xx_hal_dma.o(i._ZN41_INTERNAL_19_stm32f4xx_hal_dma_c_c25f65ec23DMA_CalcBaseAndBitshiftEP19__DMA_HandleTypeDef), (40 bytes).
    Removing stm32f4xx_hal_dma.o(.ARM.exidx), (8 bytes).
    Removing stm32f4xx_hal_dma.o(.ARM.exidx), (8 bytes).
    Removing stm32f4xx_hal_dma.o(.ARM.exidx), (8 bytes).
    Removing stm32f4xx_hal_dma.o(.ARM.exidx), (8 bytes).
    Removing stm32f4xx_hal_dma.o(.ARM.exidx), (8 bytes).
    Removing stm32f4xx_hal_dma.o(.ARM.exidx), (8 bytes).
    Removing stm32f4xx_hal_dma.o(.ARM.exidx), (8 bytes).
    Removing stm32f4xx_hal_dma.o(.ARM.exidx), (8 bytes).
    Removing stm32f4xx_hal_dma.o(.ARM.exidx), (8 bytes).
    Removing stm32f4xx_hal_dma.o(.constdata), (8 bytes).
    Removing stm32f4xx_hal_pwr.o(.rev16_text), (4 bytes).
    Removing stm32f4xx_hal_pwr.o(.revsh_text), (4 bytes).
    Removing stm32f4xx_hal_pwr.o(.rrx_text), (6 bytes).
    Removing stm32f4xx_hal_pwr.o(.ARM.exidx), (8 bytes).
    Removing stm32f4xx_hal_pwr.o(.ARM.exidx), (8 bytes).
    Removing stm32f4xx_hal_pwr.o(.ARM.exidx), (8 bytes).
    Removing stm32f4xx_hal_pwr.o(i.HAL_PWR_ConfigPVD), (124 bytes).
    Removing stm32f4xx_hal_pwr.o(i.HAL_PWR_DeInit), (24 bytes).
    Removing stm32f4xx_hal_pwr.o(i.HAL_PWR_DisableBkUpAccess), (12 bytes).
    Removing stm32f4xx_hal_pwr.o(i.HAL_PWR_DisablePVD), (12 bytes).
    Removing stm32f4xx_hal_pwr.o(i.HAL_PWR_DisableSEVOnPend), (16 bytes).
    Removing stm32f4xx_hal_pwr.o(i.HAL_PWR_DisableSleepOnExit), (16 bytes).
    Removing stm32f4xx_hal_pwr.o(i.HAL_PWR_DisableWakeUpPin), (16 bytes).
    Removing stm32f4xx_hal_pwr.o(i.HAL_PWR_EnableBkUpAccess), (12 bytes).
    Removing stm32f4xx_hal_pwr.o(i.HAL_PWR_EnablePVD), (12 bytes).
    Removing stm32f4xx_hal_pwr.o(i.HAL_PWR_EnableSEVOnPend), (16 bytes).
    Removing stm32f4xx_hal_pwr.o(i.HAL_PWR_EnableSleepOnExit), (16 bytes).
    Removing stm32f4xx_hal_pwr.o(i.HAL_PWR_EnableWakeUpPin), (16 bytes).
    Removing stm32f4xx_hal_pwr.o(i.HAL_PWR_EnterSLEEPMode), (32 bytes).
    Removing stm32f4xx_hal_pwr.o(i.HAL_PWR_EnterSTANDBYMode), (32 bytes).
    Removing stm32f4xx_hal_pwr.o(i.HAL_PWR_EnterSTOPMode), (56 bytes).
    Removing stm32f4xx_hal_pwr.o(i.HAL_PWR_PVDCallback), (2 bytes).
    Removing stm32f4xx_hal_pwr.o(i.HAL_PWR_PVD_IRQHandler), (28 bytes).
    Removing stm32f4xx_hal_pwr.o(.ARM.exidx), (8 bytes).
    Removing stm32f4xx_hal_pwr.o(.ARM.exidx), (8 bytes).
    Removing stm32f4xx_hal_pwr.o(.ARM.exidx), (8 bytes).
    Removing stm32f4xx_hal_pwr.o(.ARM.exidx), (8 bytes).
    Removing stm32f4xx_hal_pwr.o(.ARM.exidx), (8 bytes).
    Removing stm32f4xx_hal_pwr.o(.ARM.exidx), (8 bytes).
    Removing stm32f4xx_hal_pwr.o(.ARM.exidx), (8 bytes).
    Removing stm32f4xx_hal_pwr.o(.ARM.exidx), (8 bytes).
    Removing stm32f4xx_hal_pwr.o(.ARM.exidx), (8 bytes).
    Removing stm32f4xx_hal_pwr.o(.ARM.exidx), (8 bytes).
    Removing stm32f4xx_hal_pwr.o(.ARM.exidx), (8 bytes).
    Removing stm32f4xx_hal_pwr.o(.ARM.exidx), (8 bytes).
    Removing stm32f4xx_hal_pwr.o(.ARM.exidx), (8 bytes).
    Removing stm32f4xx_hal_pwr.o(.ARM.exidx), (8 bytes).
    Removing stm32f4xx_hal_pwr.o(.ARM.exidx), (8 bytes).
    Removing stm32f4xx_hal_pwr.o(.ARM.exidx), (8 bytes).
    Removing stm32f4xx_hal_pwr.o(.ARM.exidx), (8 bytes).
    Removing stm32f4xx_hal_pwr_ex.o(.rev16_text), (4 bytes).
    Removing stm32f4xx_hal_pwr_ex.o(.revsh_text), (4 bytes).
    Removing stm32f4xx_hal_pwr_ex.o(.rrx_text), (6 bytes).
    Removing stm32f4xx_hal_pwr_ex.o(.ARM.exidx), (8 bytes).
    Removing stm32f4xx_hal_pwr_ex.o(.ARM.exidx), (8 bytes).
    Removing stm32f4xx_hal_pwr_ex.o(.ARM.exidx), (8 bytes).
    Removing stm32f4xx_hal_pwr_ex.o(i.HAL_PWREx_ControlVoltageScaling), (88 bytes).
    Removing stm32f4xx_hal_pwr_ex.o(i.HAL_PWREx_DisableBkUpReg), (60 bytes).
    Removing stm32f4xx_hal_pwr_ex.o(i.HAL_PWREx_DisableFlashPowerDown), (12 bytes).
    Removing stm32f4xx_hal_pwr_ex.o(i.HAL_PWREx_EnableBkUpReg), (60 bytes).
    Removing stm32f4xx_hal_pwr_ex.o(i.HAL_PWREx_EnableFlashPowerDown), (12 bytes).
    Removing stm32f4xx_hal_pwr_ex.o(i.HAL_PWREx_GetVoltageRange), (16 bytes).
    Removing stm32f4xx_hal_pwr_ex.o(.ARM.exidx), (8 bytes).
    Removing stm32f4xx_hal_pwr_ex.o(.ARM.exidx), (8 bytes).
    Removing stm32f4xx_hal_pwr_ex.o(.ARM.exidx), (8 bytes).
    Removing stm32f4xx_hal_pwr_ex.o(.ARM.exidx), (8 bytes).
    Removing stm32f4xx_hal_pwr_ex.o(.ARM.exidx), (8 bytes).
    Removing stm32f4xx_hal_pwr_ex.o(.ARM.exidx), (8 bytes).
    Removing stm32f4xx_hal_cortex.o(.rev16_text), (4 bytes).
    Removing stm32f4xx_hal_cortex.o(.revsh_text), (4 bytes).
    Removing stm32f4xx_hal_cortex.o(.rrx_text), (6 bytes).
    Removing stm32f4xx_hal_cortex.o(.ARM.exidx), (8 bytes).
    Removing stm32f4xx_hal_cortex.o(.ARM.exidx), (8 bytes).
    Removing stm32f4xx_hal_cortex.o(.ARM.exidx), (8 bytes).
    Removing stm32f4xx_hal_cortex.o(i.HAL_MPU_ConfigRegion), (84 bytes).
    Removing stm32f4xx_hal_cortex.o(i.HAL_MPU_Disable), (28 bytes).
    Removing stm32f4xx_hal_cortex.o(i.HAL_MPU_Enable), (36 bytes).
    Removing stm32f4xx_hal_cortex.o(i.HAL_NVIC_ClearPendingIRQ), (26 bytes).
    Removing stm32f4xx_hal_cortex.o(i.HAL_NVIC_DisableIRQ), (34 bytes).
    Removing stm32f4xx_hal_cortex.o(i.HAL_NVIC_EnableIRQ), (26 bytes).
    Removing stm32f4xx_hal_cortex.o(i.HAL_NVIC_GetActive), (36 bytes).
    Removing stm32f4xx_hal_cortex.o(i.HAL_NVIC_GetPendingIRQ), (36 bytes).
    Removing stm32f4xx_hal_cortex.o(i.HAL_NVIC_GetPriority), (82 bytes).
    Removing stm32f4xx_hal_cortex.o(i.HAL_NVIC_GetPriorityGrouping), (16 bytes).
    Removing stm32f4xx_hal_cortex.o(i.HAL_NVIC_SetPendingIRQ), (26 bytes).
    Removing stm32f4xx_hal_cortex.o(i.HAL_NVIC_SystemReset), (36 bytes).
    Removing stm32f4xx_hal_cortex.o(i.HAL_SYSTICK_CLKSourceConfig), (24 bytes).
    Removing stm32f4xx_hal_cortex.o(i.HAL_SYSTICK_Callback), (2 bytes).
    Removing stm32f4xx_hal_cortex.o(i.HAL_SYSTICK_IRQHandler), (8 bytes).
    Removing stm32f4xx_hal_cortex.o(.ARM.exidx), (8 bytes).
    Removing stm32f4xx_hal_cortex.o(.ARM.exidx), (8 bytes).
    Removing stm32f4xx_hal_cortex.o(.ARM.exidx), (8 bytes).
    Removing stm32f4xx_hal_cortex.o(.ARM.exidx), (8 bytes).
    Removing stm32f4xx_hal_cortex.o(.ARM.exidx), (8 bytes).
    Removing stm32f4xx_hal_cortex.o(.ARM.exidx), (8 bytes).
    Removing stm32f4xx_hal_cortex.o(.ARM.exidx), (8 bytes).
    Removing stm32f4xx_hal_cortex.o(.ARM.exidx), (8 bytes).
    Removing stm32f4xx_hal_cortex.o(.ARM.exidx), (8 bytes).
    Removing stm32f4xx_hal_cortex.o(.ARM.exidx), (8 bytes).
    Removing stm32f4xx_hal_cortex.o(.ARM.exidx), (8 bytes).
    Removing stm32f4xx_hal_cortex.o(.ARM.exidx), (8 bytes).
    Removing stm32f4xx_hal_cortex.o(.ARM.exidx), (8 bytes).
    Removing stm32f4xx_hal_cortex.o(.ARM.exidx), (8 bytes).
    Removing stm32f4xx_hal_cortex.o(.ARM.exidx), (8 bytes).
    Removing stm32f4xx_hal.o(.rev16_text), (4 bytes).
    Removing stm32f4xx_hal.o(.revsh_text), (4 bytes).
    Removing stm32f4xx_hal.o(.rrx_text), (6 bytes).
    Removing stm32f4xx_hal.o(.ARM.exidx), (8 bytes).
    Removing stm32f4xx_hal.o(.ARM.exidx), (8 bytes).
    Removing stm32f4xx_hal.o(.ARM.exidx), (8 bytes).
    Removing stm32f4xx_hal.o(i.HAL_DBGMCU_DisableDBGSleepMode), (16 bytes).
    Removing stm32f4xx_hal.o(i.HAL_DBGMCU_DisableDBGStandbyMode), (16 bytes).
    Removing stm32f4xx_hal.o(i.HAL_DBGMCU_DisableDBGStopMode), (16 bytes).
    Removing stm32f4xx_hal.o(i.HAL_DBGMCU_EnableDBGSleepMode), (16 bytes).
    Removing stm32f4xx_hal.o(i.HAL_DBGMCU_EnableDBGStandbyMode), (16 bytes).
    Removing stm32f4xx_hal.o(i.HAL_DBGMCU_EnableDBGStopMode), (16 bytes).
    Removing stm32f4xx_hal.o(i.HAL_DeInit), (52 bytes).
    Removing stm32f4xx_hal.o(i.HAL_DisableCompensationCell), (12 bytes).
    Removing stm32f4xx_hal.o(i.HAL_EnableCompensationCell), (12 bytes).
    Removing stm32f4xx_hal.o(i.HAL_GetDEVID), (16 bytes).
    Removing stm32f4xx_hal.o(i.HAL_GetHalVersion), (8 bytes).
    Removing stm32f4xx_hal.o(i.HAL_GetREVID), (12 bytes).
    Removing stm32f4xx_hal.o(i.HAL_GetUIDw0), (12 bytes).
    Removing stm32f4xx_hal.o(i.HAL_GetUIDw1), (12 bytes).
    Removing stm32f4xx_hal.o(i.HAL_GetUIDw2), (12 bytes).
    Removing stm32f4xx_hal.o(i.HAL_MspDeInit), (2 bytes).
    Removing stm32f4xx_hal.o(i.HAL_MspInit), (2 bytes).
    Removing stm32f4xx_hal.o(i.HAL_ResumeTick), (14 bytes).
    Removing stm32f4xx_hal.o(i.HAL_SuspendTick), (14 bytes).
    Removing stm32f4xx_hal.o(.ARM.exidx), (8 bytes).
    Removing stm32f4xx_hal.o(.ARM.exidx), (8 bytes).
    Removing stm32f4xx_hal.o(.ARM.exidx), (8 bytes).
    Removing stm32f4xx_hal.o(.ARM.exidx), (8 bytes).
    Removing stm32f4xx_hal.o(.ARM.exidx), (8 bytes).
    Removing stm32f4xx_hal.o(.ARM.exidx), (8 bytes).
    Removing stm32f4xx_hal.o(.ARM.exidx), (8 bytes).
    Removing stm32f4xx_hal.o(.ARM.exidx), (8 bytes).
    Removing stm32f4xx_hal.o(.ARM.exidx), (8 bytes).
    Removing stm32f4xx_hal.o(.ARM.exidx), (8 bytes).
    Removing stm32f4xx_hal.o(.ARM.exidx), (8 bytes).
    Removing stm32f4xx_hal.o(.ARM.exidx), (8 bytes).
    Removing stm32f4xx_hal.o(.ARM.exidx), (8 bytes).
    Removing stm32f4xx_hal.o(.ARM.exidx), (8 bytes).
    Removing stm32f4xx_hal.o(.ARM.exidx), (8 bytes).
    Removing stm32f4xx_hal.o(.ARM.exidx), (8 bytes).
    Removing stm32f4xx_hal.o(.ARM.exidx), (8 bytes).
    Removing stm32f4xx_hal.o(.ARM.exidx), (8 bytes).
    Removing stm32f4xx_hal.o(.ARM.exidx), (8 bytes).
    Removing stm32f4xx_hal_exti.o(.rev16_text), (4 bytes).
    Removing stm32f4xx_hal_exti.o(.revsh_text), (4 bytes).
    Removing stm32f4xx_hal_exti.o(.rrx_text), (6 bytes).
    Removing stm32f4xx_hal_exti.o(.ARM.exidx), (8 bytes).
    Removing stm32f4xx_hal_exti.o(.ARM.exidx), (8 bytes).
    Removing stm32f4xx_hal_exti.o(.ARM.exidx), (8 bytes).
    Removing stm32f4xx_hal_exti.o(i.HAL_EXTI_ClearConfigLine), (108 bytes).
    Removing stm32f4xx_hal_exti.o(i.HAL_EXTI_ClearPending), (20 bytes).
    Removing stm32f4xx_hal_exti.o(i.HAL_EXTI_GenerateSWI), (20 bytes).
    Removing stm32f4xx_hal_exti.o(i.HAL_EXTI_GetConfigLine), (156 bytes).
    Removing stm32f4xx_hal_exti.o(i.HAL_EXTI_GetHandle), (12 bytes).
    Removing stm32f4xx_hal_exti.o(i.HAL_EXTI_GetPending), (24 bytes).
    Removing stm32f4xx_hal_exti.o(i.HAL_EXTI_IRQHandler), (36 bytes).
    Removing stm32f4xx_hal_exti.o(i.HAL_EXTI_SetConfigLine), (168 bytes).
    Removing stm32f4xx_hal_exti.o(i._Z25HAL_EXTI_RegisterCallbackP18EXTI_HandleTypeDef22EXTI_CallbackIDTypeDefPFvvE), (14 bytes).
    Removing stm32f4xx_hal_exti.o(.ARM.exidx), (8 bytes).
    Removing stm32f4xx_hal_exti.o(.ARM.exidx), (8 bytes).
    Removing stm32f4xx_hal_exti.o(.ARM.exidx), (8 bytes).
    Removing stm32f4xx_hal_exti.o(.ARM.exidx), (8 bytes).
    Removing stm32f4xx_hal_exti.o(.ARM.exidx), (8 bytes).
    Removing stm32f4xx_hal_exti.o(.ARM.exidx), (8 bytes).
    Removing stm32f4xx_hal_exti.o(.ARM.exidx), (8 bytes).
    Removing stm32f4xx_hal_exti.o(.ARM.exidx), (8 bytes).
    Removing stm32f4xx_hal_exti.o(.ARM.exidx), (8 bytes).
    Removing stm32f4xx_hal_tim.o(.rev16_text), (4 bytes).
    Removing stm32f4xx_hal_tim.o(.revsh_text), (4 bytes).
    Removing stm32f4xx_hal_tim.o(.rrx_text), (6 bytes).
    Removing stm32f4xx_hal_tim.o(.ARM.exidx), (8 bytes).
    Removing stm32f4xx_hal_tim.o(.ARM.exidx), (8 bytes).
    Removing stm32f4xx_hal_tim.o(.ARM.exidx), (8 bytes).
    Removing stm32f4xx_hal_tim_ex.o(.rev16_text), (4 bytes).
    Removing stm32f4xx_hal_tim_ex.o(.revsh_text), (4 bytes).
    Removing stm32f4xx_hal_tim_ex.o(.rrx_text), (6 bytes).
    Removing stm32f4xx_hal_tim_ex.o(.ARM.exidx), (8 bytes).
    Removing stm32f4xx_hal_tim_ex.o(.ARM.exidx), (8 bytes).
    Removing stm32f4xx_hal_tim_ex.o(.ARM.exidx), (8 bytes).
    Removing system_stm32f4xx.o(.rev16_text), (4 bytes).
    Removing system_stm32f4xx.o(.revsh_text), (4 bytes).
    Removing system_stm32f4xx.o(.rrx_text), (6 bytes).
    Removing system_stm32f4xx.o(.ARM.exidx), (8 bytes).
    Removing system_stm32f4xx.o(.ARM.exidx), (8 bytes).
    Removing system_stm32f4xx.o(.ARM.exidx), (8 bytes).
    Removing adafruit_gfx.o(.constdata__ZTI12Adafruit_GFX), (8 bytes).
    Removing adafruit_gfx.o(.constdata__ZTS12Adafruit_GFX), (15 bytes).
    Removing adafruit_ssd1306.o(.constdata__ZTI16Adafruit_SSD1306), (12 bytes).
    Removing adafruit_ssd1306.o(.constdata__ZTS16Adafruit_SSD1306), (19 bytes).
    Removing main.o(i.__ARM_common_noexcept_landing), (4 bytes).
    Removing main.o(.ARM.exidx), (8 bytes).

563 unused section(s) (total 18291 bytes) removed from the image.

==============================================================================

Image Symbol Table

    Local Symbols

    Symbol Name                              Value     Ov Type        Size  Object(Section)

    ../../../clib/unwind_pr.c                0x00000000   Number         0  unwind_pr0.o ABSOLUTE
    ../../../clib/unwind_pr.c                0x00000000   Number         0  unwind_prcommon.o ABSOLUTE
    ../../../clib/unwind_pr.c                0x00000000   Number         0  unwind_pr1.o ABSOLUTE
    ../../../clib/unwinder.c                 0x00000000   Number         0  unwind_activity.o ABSOLUTE
    ../../../clib/unwinder.c                 0x00000000   Number         0  unwinder.o ABSOLUTE
    ../../../clib/unwinder.c                 0x00000000   Number         0  unwinder.o ABSOLUTE
    ../../../clib/unwinder.c                 0x00000000   Number         0  unwind_activity.o ABSOLUTE
    ../../../clib/unwinder.c                 0x00000000   Number         0  unwind_delete.o ABSOLUTE
    ../../../edgfe/lib_src/arm_exceptions.c  0x00000000   Number         0  arm_exceptions_callunex.o ABSOLUTE
    ../../../edgfe/lib_src/arm_exceptions.c  0x00000000   Number         0  arm_exceptions_support.o ABSOLUTE
    ../../../edgfe/lib_src/arm_exceptions.c  0x00000000   Number         0  arm_exceptions_foreign.o ABSOLUTE
    ../../../edgfe/lib_src/arm_exceptions.c  0x00000000   Number         0  arm_exceptions_terminate.o ABSOLUTE
    ../../../edgfe/lib_src/arm_exceptions.c  0x00000000   Number         0  arm_exceptions_free.o ABSOLUTE
    ../../../edgfe/lib_src/arm_exceptions.c  0x00000000   Number         0  arm_exceptions_alloc.o ABSOLUTE
    ../../../edgfe/lib_src/arm_exceptions.c  0x00000000   Number         0  arm_exceptions_cleanup.o ABSOLUTE
    ../../../edgfe/lib_src/arm_exceptions.c  0x00000000   Number         0  arm_exceptions_throw.o ABSOLUTE
    ../../../edgfe/lib_src/arm_exceptions.c  0x00000000   Number         0  arm_exceptions_cleanup.o ABSOLUTE
    ../../../edgfe/lib_src/arm_exceptions.c  0x00000000   Number         0  arm_exceptions_callterm.o ABSOLUTE
    ../../../edgfe/lib_src/arm_exceptions.c  0x00000000   Number         0  arm_exceptions_bad_typeid.o ABSOLUTE
    ../../../edgfe/lib_src/arm_exceptions.c  0x00000000   Number         0  arm_exceptions_begincatch.o ABSOLUTE
    ../../../edgfe/lib_src/arm_exceptions.c  0x00000000   Number         0  arm_exceptions_unexpected.o ABSOLUTE
    ../../../edgfe/lib_src/arm_exceptions.c  0x00000000   Number         0  arm_exceptions_endcatch.o ABSOLUTE
    ../../../edgfe/lib_src/arm_exceptions.c  0x00000000   Number         0  arm_exceptions_mem.o ABSOLUTE
    ../../../edgfe/lib_src/arm_exceptions.c  0x00000000   Number         0  arm_exceptions_globs.o ABSOLUTE
    ../../../edgfe/lib_src/arm_exceptions.c  0x00000000   Number         0  arm_exceptions_rethrow.o ABSOLUTE
    ../../../edgfe/lib_src/array_del.c       0x00000000   Number         0  array_del.o ABSOLUTE
    ../../../edgfe/lib_src/array_new.c       0x00000000   Number         0  array_new.o ABSOLUTE
    ../../../edgfe/lib_src/bad_alloc.c       0x00000000   Number         0  bad_alloc_what.o ABSOLUTE
    ../../../edgfe/lib_src/bad_alloc.c       0x00000000   Number         0  bad_alloc_ctor.o ABSOLUTE
    ../../../edgfe/lib_src/bad_alloc.c       0x00000000   Number         0  bad_alloc_cctor.o ABSOLUTE
    ../../../edgfe/lib_src/bad_alloc.c       0x00000000   Number         0  bad_alloc_dtor.o ABSOLUTE
    ../../../edgfe/lib_src/delete.c          0x00000000   Number         0  delete.o ABSOLUTE
    ../../../edgfe/lib_src/exception.c       0x00000000   Number         0  bad_exception_what.o ABSOLUTE
    ../../../edgfe/lib_src/exception.c       0x00000000   Number         0  exception_cctor.o ABSOLUTE
    ../../../edgfe/lib_src/exception.c       0x00000000   Number         0  exception_dtor.o ABSOLUTE
    ../../../edgfe/lib_src/exception.c       0x00000000   Number         0  exception_what.o ABSOLUTE
    ../../../edgfe/lib_src/exception.c       0x00000000   Number         0  exception_ctor.o ABSOLUTE
    ../../../edgfe/lib_src/exception.c       0x00000000   Number         0  exception_assign.o ABSOLUTE
    ../../../edgfe/lib_src/exception.c       0x00000000   Number         0  bad_exception_cctor.o ABSOLUTE
    ../../../edgfe/lib_src/exception.c       0x00000000   Number         0  bad_exception_dtor.o ABSOLUTE
    ../../../edgfe/lib_src/exception.c       0x00000000   Number         0  bad_exception_ctor.o ABSOLUTE
    ../../../edgfe/lib_src/new.c             0x00000000   Number         0  new.o ABSOLUTE
    ../../../edgfe/lib_src/newhandler.c      0x00000000   Number         0  newhandler.o ABSOLUTE
    ../../../edgfe/lib_src/pure_virt.c       0x00000000   Number         0  pure_virt.o ABSOLUTE
    ../../../edgfe/lib_src/rtti.c            0x00000000   Number         0  rtti.o ABSOLUTE
    ../../../edgfe/lib_src/typeinfo.c        0x00000000   Number         0  bad_typeid.o ABSOLUTE
    ../../../edgfe/lib_src/typeinfo.c        0x00000000   Number         0  lib_rtti_impl.o ABSOLUTE
    ../../../edgfe/lib_src/typeinfo.c        0x00000000   Number         0  type_info_name.o ABSOLUTE
    ../../../edgfe/lib_src/typeinfo.c        0x00000000   Number         0  type_info_ne.o ABSOLUTE
    ../../../edgfe/lib_src/typeinfo.c        0x00000000   Number         0  type_info_eq.o ABSOLUTE
    ../../../edgfe/lib_src/typeinfo.c        0x00000000   Number         0  type_info_dtor.o ABSOLUTE
    ../../../edgfe/lib_src/vec_newdel.c      0x00000000   Number         0  cxa_throw_bad_array_new_length.o ABSOLUTE
    ../../../edgfe/lib_src/vec_newdel.c      0x00000000   Number         0  array_new_general.o ABSOLUTE
    ../../../edgfe/lib_src/vec_newdel.c      0x00000000   Number         0  ARM_vec_cleanup.o ABSOLUTE
    ../../../edgfe/lib_src/vec_newdel.c      0x00000000   Number         0  cxa_vec_new.o ABSOLUTE
    ../../array_helpers.cpp                  0x00000000   Number         0  aeabi_vec_dtor.o ABSOLUTE
    ../../array_helpers.cpp                  0x00000000   Number         0  ARM_vec_cleanup_rethrow.o ABSOLUTE
    ../../array_helpers.cpp                  0x00000000   Number         0  aeabi_vec_dtor_cookie.o ABSOLUTE
    ../../array_helpers.cpp                  0x00000000   Number         0  aeabi_vec_delete.o ABSOLUTE
    ../../array_helpers.cpp                  0x00000000   Number         0  aeabi_vec_new_cookie.o ABSOLUTE
    ../Drivers/STM32F4xx_HAL_Driver/Src/stm32f4xx_hal.c 0x00000000   Number         0  stm32f4xx_hal.o ABSOLUTE
    ../Drivers/STM32F4xx_HAL_Driver/Src/stm32f4xx_hal_cortex.c 0x00000000   Number         0  stm32f4xx_hal_cortex.o ABSOLUTE
    ../Drivers/STM32F4xx_HAL_Driver/Src/stm32f4xx_hal_dma.c 0x00000000   Number         0  stm32f4xx_hal_dma.o ABSOLUTE
    ../Drivers/STM32F4xx_HAL_Driver/Src/stm32f4xx_hal_dma_ex.c 0x00000000   Number         0  stm32f4xx_hal_dma_ex.o ABSOLUTE
    ../Drivers/STM32F4xx_HAL_Driver/Src/stm32f4xx_hal_exti.c 0x00000000   Number         0  stm32f4xx_hal_exti.o ABSOLUTE
    ../Drivers/STM32F4xx_HAL_Driver/Src/stm32f4xx_hal_flash.c 0x00000000   Number         0  stm32f4xx_hal_flash.o ABSOLUTE
    ../Drivers/STM32F4xx_HAL_Driver/Src/stm32f4xx_hal_flash_ex.c 0x00000000   Number         0  stm32f4xx_hal_flash_ex.o ABSOLUTE
    ../Drivers/STM32F4xx_HAL_Driver/Src/stm32f4xx_hal_flash_ramfunc.c 0x00000000   Number         0  stm32f4xx_hal_flash_ramfunc.o ABSOLUTE
    ../Drivers/STM32F4xx_HAL_Driver/Src/stm32f4xx_hal_gpio.c 0x00000000   Number         0  stm32f4xx_hal_gpio.o ABSOLUTE
    ../Drivers/STM32F4xx_HAL_Driver/Src/stm32f4xx_hal_i2c.c 0x00000000   Number         0  stm32f4xx_hal_i2c.o ABSOLUTE
    ../Drivers/STM32F4xx_HAL_Driver/Src/stm32f4xx_hal_i2c_ex.c 0x00000000   Number         0  stm32f4xx_hal_i2c_ex.o ABSOLUTE
    ../Drivers/STM32F4xx_HAL_Driver/Src/stm32f4xx_hal_pwr.c 0x00000000   Number         0  stm32f4xx_hal_pwr.o ABSOLUTE
    ../Drivers/STM32F4xx_HAL_Driver/Src/stm32f4xx_hal_pwr_ex.c 0x00000000   Number         0  stm32f4xx_hal_pwr_ex.o ABSOLUTE
    ../Drivers/STM32F4xx_HAL_Driver/Src/stm32f4xx_hal_rcc.c 0x00000000   Number         0  stm32f4xx_hal_rcc.o ABSOLUTE
    ../Drivers/STM32F4xx_HAL_Driver/Src/stm32f4xx_hal_rcc_ex.c 0x00000000   Number         0  stm32f4xx_hal_rcc_ex.o ABSOLUTE
    ../Drivers/STM32F4xx_HAL_Driver/Src/stm32f4xx_hal_tim.c 0x00000000   Number         0  stm32f4xx_hal_tim.o ABSOLUTE
    ../Drivers/STM32F4xx_HAL_Driver/Src/stm32f4xx_hal_tim_ex.c 0x00000000   Number         0  stm32f4xx_hal_tim_ex.o ABSOLUTE
    ../Src/stm32f4xx_hal_msp.c               0x00000000   Number         0  stm32f4xx_hal_msp.o ABSOLUTE
    ../Src/stm32f4xx_it.c                    0x00000000   Number         0  stm32f4xx_it.o ABSOLUTE
    ../Src/system_stm32f4xx.c                0x00000000   Number         0  system_stm32f4xx.o ABSOLUTE
    ../clib/angel/boardlib.s                 0x00000000   Number         0  boardinit2.o ABSOLUTE
    ../clib/angel/boardlib.s                 0x00000000   Number         0  boardinit1.o ABSOLUTE
    ../clib/angel/boardlib.s                 0x00000000   Number         0  boardinit3.o ABSOLUTE
    ../clib/angel/boardlib.s                 0x00000000   Number         0  boardshut.o ABSOLUTE
    ../clib/angel/dczerorl2.s                0x00000000   Number         0  __dczerorl2.o ABSOLUTE
    ../clib/angel/handlers.s                 0x00000000   Number         0  __scatter_zi.o ABSOLUTE
    ../clib/angel/kernel.s                   0x00000000   Number         0  __rtentry4.o ABSOLUTE
    ../clib/angel/kernel.s                   0x00000000   Number         0  rtexit.o ABSOLUTE
    ../clib/angel/kernel.s                   0x00000000   Number         0  __rtentry.o ABSOLUTE
    ../clib/angel/kernel.s                   0x00000000   Number         0  rtexit2.o ABSOLUTE
    ../clib/angel/kernel.s                   0x00000000   Number         0  __rtentry2.o ABSOLUTE
    ../clib/angel/rt.s                       0x00000000   Number         0  rt_new_handler_addr_intlibspace.o ABSOLUTE
    ../clib/angel/rt.s                       0x00000000   Number         0  rt_new_handler_addr.o ABSOLUTE
    ../clib/angel/rt.s                       0x00000000   Number         0  aeabi_ldiv0_sigfpe.o ABSOLUTE
    ../clib/angel/rt.s                       0x00000000   Number         0  rt_eh_globals_addr.o ABSOLUTE
    ../clib/angel/rt.s                       0x00000000   Number         0  rt_raise.o ABSOLUTE
    ../clib/angel/rt.s                       0x00000000   Number         0  rt_div0.o ABSOLUTE
    ../clib/angel/rt.s                       0x00000000   Number         0  rt_heap_descriptor_intlibspace.o ABSOLUTE
    ../clib/angel/rt.s                       0x00000000   Number         0  aeabi_ldiv0.o ABSOLUTE
    ../clib/angel/rt.s                       0x00000000   Number         0  rt_eh_globals_addr_intlibspace.o ABSOLUTE
    ../clib/angel/rt.s                       0x00000000   Number         0  rt_heap_descriptor.o ABSOLUTE
    ../clib/angel/scatter.s                  0x00000000   Number         0  __scatter.o ABSOLUTE
    ../clib/angel/startup.s                  0x00000000   Number         0  __main.o ABSOLUTE
    ../clib/angel/sys.s                      0x00000000   Number         0  sys_stackheap_outer.o ABSOLUTE
    ../clib/angel/sys.s                      0x00000000   Number         0  use_no_semi.o ABSOLUTE
    ../clib/angel/sys.s                      0x00000000   Number         0  indicate_semi.o ABSOLUTE
    ../clib/angel/sys.s                      0x00000000   Number         0  libspace.o ABSOLUTE
    ../clib/angel/sys.s                      0x00000000   Number         0  mutex_dummy.o ABSOLUTE
    ../clib/angel/sysapp.c                   0x00000000   Number         0  sys_wrch.o ABSOLUTE
    ../clib/angel/sysapp.c                   0x00000000   Number         0  sys_exit.o ABSOLUTE
    ../clib/angel/sysapp.c                   0x00000000   Number         0  sys_command.o ABSOLUTE
    ../clib/arm_runtime.c                    0x00000000   Number         0  init_aeabi.o ABSOLUTE
    ../clib/arm_runtime.c                    0x00000000   Number         0  init_aeabi.o ABSOLUTE
    ../clib/armsys.c                         0x00000000   Number         0  _get_argv_nomalloc.o ABSOLUTE
    ../clib/armsys.c                         0x00000000   Number         0  no_argv.o ABSOLUTE
    ../clib/armsys.c                         0x00000000   Number         0  _get_argv.o ABSOLUTE
    ../clib/armsys.c                         0x00000000   Number         0  argv_veneer.o ABSOLUTE
    ../clib/armsys.c                         0x00000000   Number         0  argv_veneer.o ABSOLUTE
    ../clib/heap1.c                          0x00000000   Number         0  h1_init_mt.o ABSOLUTE
    ../clib/heap1.c                          0x00000000   Number         0  h1_free.o ABSOLUTE
    ../clib/heap1.c                          0x00000000   Number         0  h1_final.o ABSOLUTE
    ../clib/heap1.c                          0x00000000   Number         0  h1_extend.o ABSOLUTE
    ../clib/heap1.c                          0x00000000   Number         0  h1_alloc_mt.o ABSOLUTE
    ../clib/heap1.c                          0x00000000   Number         0  h1_init.o ABSOLUTE
    ../clib/heap1.c                          0x00000000   Number         0  h1_final_mt.o ABSOLUTE
    ../clib/heap1.c                          0x00000000   Number         0  h1_free_mt.o ABSOLUTE
    ../clib/heap1.c                          0x00000000   Number         0  h1_alloc.o ABSOLUTE
    ../clib/heap1.c                          0x00000000   Number         0  h1_extend_mt.o ABSOLUTE
    ../clib/heap2.c                          0x00000000   Number         0  fdtree.o ABSOLUTE
    ../clib/heap2.c                          0x00000000   Number         0  heap2.o ABSOLUTE
    ../clib/heap2.c                          0x00000000   Number         0  heap2mt.o ABSOLUTE
    ../clib/heapalloc.c                      0x00000000   Number         0  malloc.o ABSOLUTE
    ../clib/heapalloc.c                      0x00000000   Number         0  term_alloc.o ABSOLUTE
    ../clib/heapalloc.c                      0x00000000   Number         0  hrguard.o ABSOLUTE
    ../clib/heapalloc.c                      0x00000000   Number         0  maybetermalloc2.o ABSOLUTE
    ../clib/heapalloc.c                      0x00000000   Number         0  maybetermalloc2.o ABSOLUTE
    ../clib/heapalloc.c                      0x00000000   Number         0  hguard.o ABSOLUTE
    ../clib/heapalloc.c                      0x00000000   Number         0  maybetermalloc1.o ABSOLUTE
    ../clib/heapalloc.c                      0x00000000   Number         0  init_alloc.o ABSOLUTE
    ../clib/heapalloc.c                      0x00000000   Number         0  heapstubs.o ABSOLUTE
    ../clib/heapalloc.c                      0x00000000   Number         0  maybetermalloc1.o ABSOLUTE
    ../clib/heapalloc.c                      0x00000000   Number         0  free.o ABSOLUTE
    ../clib/heapaux.c                        0x00000000   Number         0  heapauxi.o ABSOLUTE
    ../clib/heapaux.c                        0x00000000   Number         0  heapauxa.o ABSOLUTE
    ../clib/libinit.s                        0x00000000   Number         0  libinit2.o ABSOLUTE
    ../clib/libinit.s                        0x00000000   Number         0  libinit.o ABSOLUTE
    ../clib/libinit.s                        0x00000000   Number         0  libshutdown2.o ABSOLUTE
    ../clib/libinit.s                        0x00000000   Number         0  libshutdown.o ABSOLUTE
    ../clib/longlong.s                       0x00000000   Number         0  lludivv7m.o ABSOLUTE
    ../clib/memcpset.s                       0x00000000   Number         0  rt_memclr_w.o ABSOLUTE
    ../clib/memcpset.s                       0x00000000   Number         0  rt_memcpy_w.o ABSOLUTE
    ../clib/signal.c                         0x00000000   Number         0  defsig_abrt_formal.o ABSOLUTE
    ../clib/signal.c                         0x00000000   Number         0  defsig_fpe_outer.o ABSOLUTE
    ../clib/signal.c                         0x00000000   Number         0  defsig_fpe_formal.o ABSOLUTE
    ../clib/signal.c                         0x00000000   Number         0  defsig_abrt_inner.o ABSOLUTE
    ../clib/signal.c                         0x00000000   Number         0  defsig_fpe_inner.o ABSOLUTE
    ../clib/signal.c                         0x00000000   Number         0  defsig_pvfn_formal.o ABSOLUTE
    ../clib/signal.c                         0x00000000   Number         0  defsig_pvfn_outer.o ABSOLUTE
    ../clib/signal.c                         0x00000000   Number         0  defsig_pvfn_inner.o ABSOLUTE
    ../clib/signal.c                         0x00000000   Number         0  defsig_abrt_outer.o ABSOLUTE
    ../clib/signal.c                         0x00000000   Number         0  defsig_exit.o ABSOLUTE
    ../clib/signal.c                         0x00000000   Number         0  defsig_rtmem_inner.o ABSOLUTE
    ../clib/signal.c                         0x00000000   Number         0  defsig_rtmem_formal.o ABSOLUTE
    ../clib/signal.c                         0x00000000   Number         0  defsig_rtmem_outer.o ABSOLUTE
    ../clib/signal.c                         0x00000000   Number         0  defsig_rtred_inner.o ABSOLUTE
    ../clib/signal.c                         0x00000000   Number         0  defsig_stak_inner.o ABSOLUTE
    ../clib/signal.c                         0x00000000   Number         0  defsig_cppl_inner.o ABSOLUTE
    ../clib/signal.c                         0x00000000   Number         0  defsig_segv_inner.o ABSOLUTE
    ../clib/signal.c                         0x00000000   Number         0  defsig_other.o ABSOLUTE
    ../clib/signal.c                         0x00000000   Number         0  __raise.o ABSOLUTE
    ../clib/signal.c                         0x00000000   Number         0  defsig_general.o ABSOLUTE
    ../clib/signal.s                         0x00000000   Number         0  defsig.o ABSOLUTE
    ../clib/stdlib.c                         0x00000000   Number         0  abort.o ABSOLUTE
    ../clib/stdlib.c                         0x00000000   Number         0  exit.o ABSOLUTE
    ../clib/stdlib.c                         0x00000000   Number         0  bsearch.o ABSOLUTE
    ../fplib/fpinit.s                        0x00000000   Number         0  fpinit.o ABSOLUTE
    ..\Drivers\STM32F4xx_HAL_Driver\Src\stm32f4xx_hal.c 0x00000000   Number         0  stm32f4xx_hal.o ABSOLUTE
    ..\Drivers\STM32F4xx_HAL_Driver\Src\stm32f4xx_hal_cortex.c 0x00000000   Number         0  stm32f4xx_hal_cortex.o ABSOLUTE
    ..\Drivers\STM32F4xx_HAL_Driver\Src\stm32f4xx_hal_dma.c 0x00000000   Number         0  stm32f4xx_hal_dma.o ABSOLUTE
    ..\Drivers\STM32F4xx_HAL_Driver\Src\stm32f4xx_hal_dma_ex.c 0x00000000   Number         0  stm32f4xx_hal_dma_ex.o ABSOLUTE
    ..\Drivers\STM32F4xx_HAL_Driver\Src\stm32f4xx_hal_exti.c 0x00000000   Number         0  stm32f4xx_hal_exti.o ABSOLUTE
    ..\Drivers\STM32F4xx_HAL_Driver\Src\stm32f4xx_hal_flash.c 0x00000000   Number         0  stm32f4xx_hal_flash.o ABSOLUTE
    ..\Drivers\STM32F4xx_HAL_Driver\Src\stm32f4xx_hal_flash_ex.c 0x00000000   Number         0  stm32f4xx_hal_flash_ex.o ABSOLUTE
    ..\Drivers\STM32F4xx_HAL_Driver\Src\stm32f4xx_hal_flash_ramfunc.c 0x00000000   Number         0  stm32f4xx_hal_flash_ramfunc.o ABSOLUTE
    ..\Drivers\STM32F4xx_HAL_Driver\Src\stm32f4xx_hal_gpio.c 0x00000000   Number         0  stm32f4xx_hal_gpio.o ABSOLUTE
    ..\Drivers\STM32F4xx_HAL_Driver\Src\stm32f4xx_hal_i2c.c 0x00000000   Number         0  stm32f4xx_hal_i2c.o ABSOLUTE
    ..\Drivers\STM32F4xx_HAL_Driver\Src\stm32f4xx_hal_i2c_ex.c 0x00000000   Number         0  stm32f4xx_hal_i2c_ex.o ABSOLUTE
    ..\Drivers\STM32F4xx_HAL_Driver\Src\stm32f4xx_hal_pwr.c 0x00000000   Number         0  stm32f4xx_hal_pwr.o ABSOLUTE
    ..\Drivers\STM32F4xx_HAL_Driver\Src\stm32f4xx_hal_pwr_ex.c 0x00000000   Number         0  stm32f4xx_hal_pwr_ex.o ABSOLUTE
    ..\Drivers\STM32F4xx_HAL_Driver\Src\stm32f4xx_hal_rcc.c 0x00000000   Number         0  stm32f4xx_hal_rcc.o ABSOLUTE
    ..\Drivers\STM32F4xx_HAL_Driver\Src\stm32f4xx_hal_rcc_ex.c 0x00000000   Number         0  stm32f4xx_hal_rcc_ex.o ABSOLUTE
    ..\Drivers\STM32F4xx_HAL_Driver\Src\stm32f4xx_hal_tim.c 0x00000000   Number         0  stm32f4xx_hal_tim.o ABSOLUTE
    ..\Drivers\STM32F4xx_HAL_Driver\Src\stm32f4xx_hal_tim_ex.c 0x00000000   Number         0  stm32f4xx_hal_tim_ex.o ABSOLUTE
    ..\Src\Adafruit_GFX.cpp                  0x00000000   Number         0  adafruit_gfx.o ABSOLUTE
    ..\Src\Adafruit_SSD1306.cpp              0x00000000   Number         0  adafruit_ssd1306.o ABSOLUTE
    ..\Src\Double_screen.cpp                 0x00000000   Number         0  double_screen.o ABSOLUTE
    ..\Src\Snake_game.cpp                    0x00000000   Number         0  snake_game.o ABSOLUTE
    ..\Src\main.cpp                          0x00000000   Number         0  main.o ABSOLUTE
    ..\Src\stm32f4xx_hal_msp.c               0x00000000   Number         0  stm32f4xx_hal_msp.o ABSOLUTE
    ..\Src\stm32f4xx_it.c                    0x00000000   Number         0  stm32f4xx_it.o ABSOLUTE
    ..\Src\system_stm32f4xx.c                0x00000000   Number         0  system_stm32f4xx.o ABSOLUTE
    ..\\Src\\Adafruit_GFX.cpp                0x00000000   Number         0  adafruit_gfx.o ABSOLUTE
    ..\\Src\\Adafruit_SSD1306.cpp            0x00000000   Number         0  adafruit_ssd1306.o ABSOLUTE
    ..\\Src\\Double_screen.cpp               0x00000000   Number         0  double_screen.o ABSOLUTE
    ..\\Src\\Snake_game.cpp                  0x00000000   Number         0  snake_game.o ABSOLUTE
    ..\\Src\\main.cpp                        0x00000000   Number         0  main.o ABSOLUTE
    dc.s                                     0x00000000   Number         0  dc.o ABSOLUTE
    startup_stm32f407xx.s                    0x00000000   Number         0  startup_stm32f407xx.o ABSOLUTE
    RESET                                    0x08000000   Section      392  startup_stm32f407xx.o(RESET)
    !!!main                                  0x08000188   Section        8  __main.o(!!!main)
    !!!scatter                               0x08000190   Section       52  __scatter.o(!!!scatter)
    !!dczerorl2                              0x080001c4   Section       90  __dczerorl2.o(!!dczerorl2)
    !!handler_zi                             0x08000220   Section       28  __scatter_zi.o(!!handler_zi)
    .ARM.Collect$$libinit$$00000000          0x0800023c   Section        2  libinit.o(.ARM.Collect$$libinit$$00000000)
    .ARM.Collect$$libinit$$00000001          0x0800023e   Section        4  libinit2.o(.ARM.Collect$$libinit$$00000001)
    .ARM.Collect$$libinit$$00000004          0x08000242   Section        0  libinit2.o(.ARM.Collect$$libinit$$00000004)
    .ARM.Collect$$libinit$$00000005          0x08000242   Section        8  libinit2.o(.ARM.Collect$$libinit$$00000005)
    .ARM.Collect$$libinit$$0000000A          0x0800024a   Section        0  libinit2.o(.ARM.Collect$$libinit$$0000000A)
    .ARM.Collect$$libinit$$0000000C          0x0800024a   Section        0  libinit2.o(.ARM.Collect$$libinit$$0000000C)
    .ARM.Collect$$libinit$$0000000E          0x0800024a   Section        0  libinit2.o(.ARM.Collect$$libinit$$0000000E)
    .ARM.Collect$$libinit$$00000011          0x0800024a   Section        0  libinit2.o(.ARM.Collect$$libinit$$00000011)
    .ARM.Collect$$libinit$$00000013          0x0800024a   Section        0  libinit2.o(.ARM.Collect$$libinit$$00000013)
    .ARM.Collect$$libinit$$00000015          0x0800024a   Section        0  libinit2.o(.ARM.Collect$$libinit$$00000015)
    .ARM.Collect$$libinit$$00000017          0x0800024a   Section        0  libinit2.o(.ARM.Collect$$libinit$$00000017)
    .ARM.Collect$$libinit$$00000019          0x0800024a   Section        0  libinit2.o(.ARM.Collect$$libinit$$00000019)
    .ARM.Collect$$libinit$$0000001B          0x0800024a   Section        0  libinit2.o(.ARM.Collect$$libinit$$0000001B)
    .ARM.Collect$$libinit$$0000001D          0x0800024a   Section        0  libinit2.o(.ARM.Collect$$libinit$$0000001D)
    .ARM.Collect$$libinit$$0000001F          0x0800024a   Section        0  libinit2.o(.ARM.Collect$$libinit$$0000001F)
    .ARM.Collect$$libinit$$00000021          0x0800024a   Section        0  libinit2.o(.ARM.Collect$$libinit$$00000021)
    .ARM.Collect$$libinit$$00000023          0x0800024a   Section        0  libinit2.o(.ARM.Collect$$libinit$$00000023)
    .ARM.Collect$$libinit$$00000025          0x0800024a   Section        0  libinit2.o(.ARM.Collect$$libinit$$00000025)
    .ARM.Collect$$libinit$$0000002C          0x0800024a   Section        0  libinit2.o(.ARM.Collect$$libinit$$0000002C)
    .ARM.Collect$$libinit$$0000002E          0x0800024a   Section        0  libinit2.o(.ARM.Collect$$libinit$$0000002E)
    .ARM.Collect$$libinit$$00000030          0x0800024a   Section        0  libinit2.o(.ARM.Collect$$libinit$$00000030)
    .ARM.Collect$$libinit$$00000031          0x0800024a   Section        4  libinit2.o(.ARM.Collect$$libinit$$00000031)
    .ARM.Collect$$libinit$$00000032          0x0800024e   Section        0  libinit2.o(.ARM.Collect$$libinit$$00000032)
    .ARM.Collect$$libinit$$00000033          0x0800024e   Section        2  libinit2.o(.ARM.Collect$$libinit$$00000033)
    .ARM.Collect$$libshutdown$$00000000      0x08000250   Section        2  libshutdown.o(.ARM.Collect$$libshutdown$$00000000)
    .ARM.Collect$$libshutdown$$00000002      0x08000252   Section        0  libshutdown2.o(.ARM.Collect$$libshutdown$$00000002)
    .ARM.Collect$$libshutdown$$00000004      0x08000252   Section        0  libshutdown2.o(.ARM.Collect$$libshutdown$$00000004)
    .ARM.Collect$$libshutdown$$00000007      0x08000252   Section        0  libshutdown2.o(.ARM.Collect$$libshutdown$$00000007)
    .ARM.Collect$$libshutdown$$0000000A      0x08000252   Section        0  libshutdown2.o(.ARM.Collect$$libshutdown$$0000000A)
    .ARM.Collect$$libshutdown$$0000000C      0x08000252   Section        0  libshutdown2.o(.ARM.Collect$$libshutdown$$0000000C)
    .ARM.Collect$$libshutdown$$0000000F      0x08000252   Section        0  libshutdown2.o(.ARM.Collect$$libshutdown$$0000000F)
    .ARM.Collect$$libshutdown$$00000010      0x08000252   Section        2  libshutdown2.o(.ARM.Collect$$libshutdown$$00000010)
    .ARM.Collect$$rtentry$$00000000          0x08000254   Section        0  __rtentry.o(.ARM.Collect$$rtentry$$00000000)
    .ARM.Collect$$rtentry$$00000002          0x08000254   Section        0  __rtentry2.o(.ARM.Collect$$rtentry$$00000002)
    .ARM.Collect$$rtentry$$00000004          0x08000254   Section        6  __rtentry4.o(.ARM.Collect$$rtentry$$00000004)
    .ARM.Collect$$rtentry$$00000009          0x0800025a   Section        0  __rtentry2.o(.ARM.Collect$$rtentry$$00000009)
    .ARM.Collect$$rtentry$$0000000A          0x0800025a   Section        4  __rtentry2.o(.ARM.Collect$$rtentry$$0000000A)
    .ARM.Collect$$rtentry$$0000000C          0x0800025e   Section        0  __rtentry2.o(.ARM.Collect$$rtentry$$0000000C)
    .ARM.Collect$$rtentry$$0000000D          0x0800025e   Section        8  __rtentry2.o(.ARM.Collect$$rtentry$$0000000D)
    .ARM.Collect$$rtexit$$00000000           0x08000266   Section        2  rtexit.o(.ARM.Collect$$rtexit$$00000000)
    .ARM.Collect$$rtexit$$00000002           0x08000268   Section        0  rtexit2.o(.ARM.Collect$$rtexit$$00000002)
    .ARM.Collect$$rtexit$$00000003           0x08000268   Section        4  rtexit2.o(.ARM.Collect$$rtexit$$00000003)
    .ARM.Collect$$rtexit$$00000004           0x0800026c   Section        6  rtexit2.o(.ARM.Collect$$rtexit$$00000004)
    .emb_text                                0x08000274   Section       32  arm_exceptions_cleanup.o(.emb_text)
    .emb_text                                0x08000294   Section      124  unwinder.o(.emb_text)
    .emb_text                                0x08000310   Section        4  unwind_activity.o(.emb_text)
    .emb_text                                0x08000314   Section        0  maybetermalloc1.o(.emb_text)
    .text                                    0x08000314   Section       64  startup_stm32f407xx.o(.text)
    $v0                                      0x08000314   Number         0  startup_stm32f407xx.o(.text)
    .text                                    0x08000354   Section      238  lludivv7m.o(.text)
    .text                                    0x08000442   Section       78  rt_memclr_w.o(.text)
    .text                                    0x08000490   Section        0  heapauxi.o(.text)
    .text                                    0x08000498   Section        0  init_aeabi.o(.text)
    .text                                    0x080004bc   Section        0  arm_exceptions_alloc.o(.text)
    .text                                    0x0800051c   Section        0  arm_exceptions_callunex.o(.text)
    .text                                    0x080005ec   Section        0  arm_exceptions_callterm.o(.text)
    .text                                    0x08000624   Section        0  arm_exceptions_cleanup.o(.text)
    .text                                    0x080006a0   Section        0  arm_exceptions_throw.o(.text)
    [local to arm_exceptions_c]::armcpp_exception_cleanup(_Unwind_Reason_Code, _Unwind_Control_Block*) 0x080006a1   Thumb Code    66  arm_exceptions_throw.o(.text)
    .text                                    0x08000830   Section        0  unwind_pr0.o(.text)
    .text                                    0x08000836   Section        0  unwind_pr1.o(.text)
    .text                                    0x0800083c   Section        0  h1_alloc.o(.text)
    .text                                    0x0800089a   Section        0  defsig_pvfn_outer.o(.text)
    .text                                    0x080008a8   Section        0  arm_exceptions_free.o(.text)
    .text                                    0x080008ca   Section        0  arm_exceptions_terminate.o(.text)
    .text                                    0x080008e4   Section        0  arm_exceptions_mem.o(.text)
    .text                                    0x08000920   Section        0  arm_exceptions_support.o(.text)
    .text                                    0x0800094c   Section        0  arm_exceptions_rethrow.o(.text)
    .text                                    0x0800099e   Section        0  arm_exceptions_endcatch.o(.text)
    .text                                    0x080009e8   Section        0  arm_exceptions_begincatch.o(.text)
    .text                                    0x08000a30   Section        0  arm_exceptions_bad_typeid.o(.text)
    .text                                    0x08000a60   Section        0  arm_exceptions_unexpected.o(.text)
    .text                                    0x08000a7e   Section        0  arm_exceptions_foreign.o(.text)
    .text                                    0x08000ac0   Section        0  arm_exceptions_globs.o(.text)
    [local to arm_exceptions_c]::__default_terminate_handler() 0x08000ac1   Thumb Code     6  arm_exceptions_globs.o(.text)
    .text                                    0x08000b10   Section        0  unwinder.o(.text)
    [local to unwinder_c]::EIT_comparator(const void*, const void*) 0x08000c7d   Thumb Code    58  unwinder.o(.text)
    [local to unwinder_c]::find_and_expand_eit_entry(_Unwind_Control_Block*, unsigned) 0x08000cb7   Thumb Code   158  unwinder.o(.text)
    .text                                    0x08000edc   Section        0  unwind_prcommon.o(.text)
    [local to unwind_pr_c]::next_unwind_byte(uwdata*) 0x08000edd   Thumb Code    48  unwind_prcommon.o(.text)
    .text                                    0x080014d4   Section        8  rt_heap_descriptor_intlibspace.o(.text)
    .text                                    0x080014dc   Section        8  rt_new_handler_addr_intlibspace.o(.text)
    .text                                    0x080014e4   Section        8  rt_eh_globals_addr_intlibspace.o(.text)
    .text                                    0x080014ec   Section        0  hguard.o(.text)
    .text                                    0x080014f0   Section        0  init_alloc.o(.text)
    .text                                    0x0800157a   Section        0  h1_init.o(.text)
    .text                                    0x08001588   Section        0  h1_free.o(.text)
    .text                                    0x080015d6   Section        0  abort.o(.text)
    .text                                    0x080015ec   Section        0  bsearch.o(.text)
    .text                                    0x0800163c   Section        0  defsig_exit.o(.text)
    .text                                    0x08001648   Section        0  defsig_pvfn_inner.o(.text)
    .text                                    0x08001678   Section      100  rt_memcpy_w.o(.text)
    .text                                    0x080016dc   Section        0  unwind_delete.o(.text)
    .text                                    0x080016ec   Section        0  sys_exit.o(.text)
    .text                                    0x080016f8   Section        8  libspace.o(.text)
    .text                                    0x08001700   Section       74  sys_stackheap_outer.o(.text)
    .text                                    0x0800174a   Section        0  h1_extend.o(.text)
    .text                                    0x0800177e   Section        0  exit.o(.text)
    .text                                    0x08001790   Section        0  defsig_general.o(.text)
    .text                                    0x080017c2   Section        0  defsig_abrt_outer.o(.text)
    .text                                    0x080017d0   Section        0  defsig_rtmem_outer.o(.text)
    .text                                    0x080017de   Section        0  sys_wrch.o(.text)
    .text                                    0x080017ec   Section        2  use_no_semi.o(.text)
    .text                                    0x080017ee   Section        0  indicate_semi.o(.text)
    .text                                    0x080017f0   Section        0  defsig_abrt_inner.o(.text)
    .text                                    0x08001820   Section        0  defsig_rtmem_inner.o(.text)
    .text.clean                              0x08001870   Section        0  arm_exceptions_callunex.o(.text.clean)
    .text.clean                              0x0800187c   Section        0  arm_exceptions_throw.o(.text.clean)
    i.BusFault_Handler                       0x08001884   Section        0  stm32f4xx_it.o(i.BusFault_Handler)
    i.DebugMon_Handler                       0x08001886   Section        0  stm32f4xx_it.o(i.DebugMon_Handler)
    i.HAL_DMA_Abort_IT                       0x08001888   Section        0  stm32f4xx_hal_dma.o(i.HAL_DMA_Abort_IT)
    i.HAL_DMA_GetError                       0x080018ac   Section        0  stm32f4xx_hal_dma.o(i.HAL_DMA_GetError)
    i.HAL_DMA_GetState                       0x080018b0   Section        0  stm32f4xx_hal_dma.o(i.HAL_DMA_GetState)
    i.HAL_DMA_Start                          0x080018b6   Section        0  stm32f4xx_hal_dma.o(i.HAL_DMA_Start)
    i.HAL_DMA_Start_IT                       0x080018fc   Section        0  stm32f4xx_hal_dma.o(i.HAL_DMA_Start_IT)
    i.HAL_Delay                              0x0800196c   Section        0  stm32f4xx_hal.o(i.HAL_Delay)
    i.HAL_GPIO_Init                          0x08001990   Section        0  stm32f4xx_hal_gpio.o(i.HAL_GPIO_Init)
    i.HAL_GPIO_TogglePin                     0x08001b48   Section        0  stm32f4xx_hal_gpio.o(i.HAL_GPIO_TogglePin)
    i.HAL_GPIO_WritePin                      0x08001b56   Section        0  stm32f4xx_hal_gpio.o(i.HAL_GPIO_WritePin)
    i.HAL_GetTick                            0x08001b60   Section        0  stm32f4xx_hal.o(i.HAL_GetTick)
    i.HAL_GetTickFreq                        0x08001b6c   Section        0  stm32f4xx_hal.o(i.HAL_GetTickFreq)
    i.HAL_GetTickPrio                        0x08001b78   Section        0  stm32f4xx_hal.o(i.HAL_GetTickPrio)
    i.HAL_I2C_AbortCpltCallback              0x08001b84   Section        0  stm32f4xx_hal_i2c.o(i.HAL_I2C_AbortCpltCallback)
    i.HAL_I2C_AddrCallback                   0x08001b86   Section        0  stm32f4xx_hal_i2c.o(i.HAL_I2C_AddrCallback)
    i.HAL_I2C_ER_IRQHandler                  0x08001b88   Section        0  stm32f4xx_hal_i2c.o(i.HAL_I2C_ER_IRQHandler)
    i.HAL_I2C_EV_IRQHandler                  0x08001c42   Section        0  stm32f4xx_hal_i2c.o(i.HAL_I2C_EV_IRQHandler)
    i.HAL_I2C_ErrorCallback                  0x08001e9c   Section        0  stm32f4xx_hal_i2c.o(i.HAL_I2C_ErrorCallback)
    i.HAL_I2C_Init                           0x08001ea0   Section        0  stm32f4xx_hal_i2c.o(i.HAL_I2C_Init)
    i.HAL_I2C_IsDeviceReady                  0x08002028   Section        0  stm32f4xx_hal_i2c.o(i.HAL_I2C_IsDeviceReady)
    i.HAL_I2C_ListenCpltCallback             0x08002188   Section        0  stm32f4xx_hal_i2c.o(i.HAL_I2C_ListenCpltCallback)
    i.HAL_I2C_MasterRxCpltCallback           0x0800218a   Section        0  stm32f4xx_hal_i2c.o(i.HAL_I2C_MasterRxCpltCallback)
    i.HAL_I2C_MasterTxCpltCallback           0x0800218c   Section        0  stm32f4xx_hal_i2c.o(i.HAL_I2C_MasterTxCpltCallback)
    i.HAL_I2C_Master_Abort_IT                0x0800218e   Section        0  stm32f4xx_hal_i2c.o(i.HAL_I2C_Master_Abort_IT)
    i.HAL_I2C_Master_Receive                 0x080021e4   Section        0  stm32f4xx_hal_i2c.o(i.HAL_I2C_Master_Receive)
    i.HAL_I2C_Master_Receive_DMA             0x080023c8   Section        0  stm32f4xx_hal_i2c.o(i.HAL_I2C_Master_Receive_DMA)
    i.HAL_I2C_Master_Seq_Receive_DMA         0x08002514   Section        0  stm32f4xx_hal_i2c.o(i.HAL_I2C_Master_Seq_Receive_DMA)
    i.HAL_I2C_Master_Seq_Transmit_DMA        0x080026f4   Section        0  stm32f4xx_hal_i2c.o(i.HAL_I2C_Master_Seq_Transmit_DMA)
    i.HAL_I2C_Master_Transmit                0x08002884   Section        0  stm32f4xx_hal_i2c.o(i.HAL_I2C_Master_Transmit)
    i.HAL_I2C_Master_Transmit_DMA            0x080029b4   Section        0  stm32f4xx_hal_i2c.o(i.HAL_I2C_Master_Transmit_DMA)
    i.HAL_I2C_MemRxCpltCallback              0x08002b00   Section        0  stm32f4xx_hal_i2c.o(i.HAL_I2C_MemRxCpltCallback)
    i.HAL_I2C_MemTxCpltCallback              0x08002b02   Section        0  stm32f4xx_hal_i2c.o(i.HAL_I2C_MemTxCpltCallback)
    i.HAL_I2C_Mem_Read                       0x08002b04   Section        0  stm32f4xx_hal_i2c.o(i.HAL_I2C_Mem_Read)
    i.HAL_I2C_Mem_Read_DMA                   0x08002cfc   Section        0  stm32f4xx_hal_i2c.o(i.HAL_I2C_Mem_Read_DMA)
    i.HAL_I2C_Mem_Write                      0x08002e8c   Section        0  stm32f4xx_hal_i2c.o(i.HAL_I2C_Mem_Write)
    i.HAL_I2C_Mem_Write_DMA                  0x08002fc0   Section        0  stm32f4xx_hal_i2c.o(i.HAL_I2C_Mem_Write_DMA)
    i.HAL_I2C_MspInit                        0x08003118   Section        0  stm32f4xx_hal_msp.o(i.HAL_I2C_MspInit)
    i.HAL_I2C_SlaveRxCpltCallback            0x080031c4   Section        0  stm32f4xx_hal_i2c.o(i.HAL_I2C_SlaveRxCpltCallback)
    i.HAL_I2C_SlaveTxCpltCallback            0x080031c6   Section        0  stm32f4xx_hal_i2c.o(i.HAL_I2C_SlaveTxCpltCallback)
    i.HAL_I2C_Slave_Receive                  0x080031c8   Section        0  stm32f4xx_hal_i2c.o(i.HAL_I2C_Slave_Receive)
    i.HAL_I2C_Slave_Receive_DMA              0x08003334   Section        0  stm32f4xx_hal_i2c.o(i.HAL_I2C_Slave_Receive_DMA)
    i.HAL_I2C_Slave_Seq_Receive_DMA          0x0800340c   Section        0  stm32f4xx_hal_i2c.o(i.HAL_I2C_Slave_Seq_Receive_DMA)
    i.HAL_I2C_Slave_Seq_Transmit_DMA         0x08003558   Section        0  stm32f4xx_hal_i2c.o(i.HAL_I2C_Slave_Seq_Transmit_DMA)
    i.HAL_I2C_Slave_Transmit                 0x080036a4   Section        0  stm32f4xx_hal_i2c.o(i.HAL_I2C_Slave_Transmit)
    i.HAL_I2C_Slave_Transmit_DMA             0x08003804   Section        0  stm32f4xx_hal_i2c.o(i.HAL_I2C_Slave_Transmit_DMA)
    i.HAL_IncTick                            0x080038dc   Section        0  stm32f4xx_hal.o(i.HAL_IncTick)
    i.HAL_Init                               0x080038ec   Section        0  stm32f4xx_hal.o(i.HAL_Init)
    i.HAL_InitTick                           0x08003920   Section        0  stm32f4xx_hal.o(i.HAL_InitTick)
    i.HAL_MspInit                            0x08003960   Section        0  stm32f4xx_hal_msp.o(i.HAL_MspInit)
    i.HAL_NVIC_SetPriority                   0x08003990   Section        0  stm32f4xx_hal_cortex.o(i.HAL_NVIC_SetPriority)
    i.HAL_NVIC_SetPriorityGrouping           0x080039d0   Section        0  stm32f4xx_hal_cortex.o(i.HAL_NVIC_SetPriorityGrouping)
    i.HAL_RCC_ClockConfig                    0x080039f4   Section        0  stm32f4xx_hal_rcc.o(i.HAL_RCC_ClockConfig)
    i.HAL_RCC_GetPCLK1Freq                   0x08003b28   Section        0  stm32f4xx_hal_rcc.o(i.HAL_RCC_GetPCLK1Freq)
    i.HAL_RCC_GetSysClockFreq                0x08003b48   Section        0  stm32f4xx_hal_rcc.o(i.HAL_RCC_GetSysClockFreq)
    i.HAL_RCC_OscConfig                      0x08003ba8   Section        0  stm32f4xx_hal_rcc.o(i.HAL_RCC_OscConfig)
    i.HAL_SYSTICK_Config                     0x08003f0c   Section        0  stm32f4xx_hal_cortex.o(i.HAL_SYSTICK_Config)
    i.HAL_SetTickFreq                        0x08003f38   Section        0  stm32f4xx_hal.o(i.HAL_SetTickFreq)
    i.HardFault_Handler                      0x08003f5c   Section        0  stm32f4xx_it.o(i.HardFault_Handler)
    i.MemManage_Handler                      0x08003f5e   Section        0  stm32f4xx_it.o(i.MemManage_Handler)
    i.NMI_Handler                            0x08003f60   Section        0  stm32f4xx_it.o(i.NMI_Handler)
    i.PendSV_Handler                         0x08003f62   Section        0  stm32f4xx_it.o(i.PendSV_Handler)
    i.SVC_Handler                            0x08003f64   Section        0  stm32f4xx_it.o(i.SVC_Handler)
    i.SysTick_Handler                        0x08003f66   Section        0  stm32f4xx_it.o(i.SysTick_Handler)
    i.SystemCoreClockUpdate                  0x08003f6c   Section        0  system_stm32f4xx.o(i.SystemCoreClockUpdate)
    i.SystemInit                             0x08003fe4   Section        0  system_stm32f4xx.o(i.SystemInit)
    i.UsageFault_Handler                     0x08004000   Section        0  stm32f4xx_it.o(i.UsageFault_Handler)
    i._Z18SystemClock_Configv                0x08004004   Section        0  main.o(i._Z18SystemClock_Configv)
    i._Z21__default_new_handlerv             0x08004088   Section        0  newhandler.o(i._Z21__default_new_handlerv)
    i._ZN10Snake_game10addNewHeadEii         0x080040b8   Section        0  snake_game.o(i._ZN10Snake_game10addNewHeadEii)
    i._ZN10Snake_game10addNewHeadEii.clean   0x0800410e   Section        0  snake_game.o(i._ZN10Snake_game10addNewHeadEii.clean)
    i._ZN10Snake_game16drawCurrentSnakeEv    0x08004118   Section        0  snake_game.o(i._ZN10Snake_game16drawCurrentSnakeEv)
    i._ZN10Snake_game16initializeScreenEv    0x08004198   Section        0  snake_game.o(i._ZN10Snake_game16initializeScreenEv)
    i._ZN10Snake_game7getElemEv              0x080041bc   Section        0  snake_game.o(i._ZN10Snake_game7getElemEv)
    i._ZN10Snake_gameC1Essss                 0x080041cc   Section        0  snake_game.o(i._ZN10Snake_gameC1Essss)
    i._ZN10Snake_gameC1Essss.clean           0x08004240   Section        0  snake_game.o(i._ZN10Snake_gameC1Essss.clean)
    i._ZN10Snake_gameD1Ev                    0x0800424a   Section        0  main.o(i._ZN10Snake_gameD1Ev)
    i._ZN12Adafruit_GFX11setTextSizeEh       0x08004252   Section        0  adafruit_gfx.o(i._ZN12Adafruit_GFX11setTextSizeEh)
    i._ZN12Adafruit_GFX12setTextColorEt      0x0800425a   Section        0  adafruit_gfx.o(i._ZN12Adafruit_GFX12setTextColorEt)
    i._ZN12Adafruit_GFX12setTextColorEtt     0x08004260   Section        0  adafruit_gfx.o(i._ZN12Adafruit_GFX12setTextColorEtt)
    i._ZN12Adafruit_GFX13drawFastHLineEssst  0x08004266   Section        0  adafruit_gfx.o(i._ZN12Adafruit_GFX13drawFastHLineEssst)
    i._ZN12Adafruit_GFX13drawFastVLineEssst  0x0800427c   Section        0  adafruit_gfx.o(i._ZN12Adafruit_GFX13drawFastVLineEssst)
    i._ZN12Adafruit_GFX8drawLineEsssst       0x08004294   Section        0  adafruit_gfx.o(i._ZN12Adafruit_GFX8drawLineEsssst)
    i._ZN12Adafruit_GFX8fillRectEsssst       0x08004340   Section        0  adafruit_gfx.o(i._ZN12Adafruit_GFX8fillRectEsssst)
    i._ZN12Adafruit_GFX9setCursorEss         0x08004370   Section        0  adafruit_gfx.o(i._ZN12Adafruit_GFX9setCursorEss)
    i._ZN12Adafruit_GFXC2Ess                 0x08004378   Section        0  adafruit_gfx.o(i._ZN12Adafruit_GFXC2Ess)
    i._ZN13Double_screen11printBottomEPKc    0x080043a0   Section        0  double_screen.o(i._ZN13Double_screen11printBottomEPKc)
    i._ZN13Double_screen11setTextSizeEh      0x080043ac   Section        0  double_screen.o(i._ZN13Double_screen11setTextSizeEh)
    i._ZN13Double_screen12clearDisplayEv     0x080043d0   Section        0  double_screen.o(i._ZN13Double_screen12clearDisplayEv)
    i._ZN13Double_screen12setTextColorEt     0x080043ec   Section        0  double_screen.o(i._ZN13Double_screen12setTextColorEt)
    i._ZN13Double_screen12setTextColorEtt    0x08004410   Section        0  double_screen.o(i._ZN13Double_screen12setTextColorEtt)
    i._ZN13Double_screen5beginEhhb           0x08004438   Section        0  double_screen.o(i._ZN13Double_screen5beginEhhb)
    i._ZN13Double_screen7displayEv           0x08004460   Section        0  double_screen.o(i._ZN13Double_screen7displayEv)
    i._ZN13Double_screen8drawLineEsssst      0x0800447c   Section        0  double_screen.o(i._ZN13Double_screen8drawLineEsssst)
    i._ZN13Double_screen8printTopEPKc        0x080044e4   Section        0  double_screen.o(i._ZN13Double_screen8printTopEPKc)
    i._ZN13Double_screen9drawPixelEsst       0x080044f0   Section        0  double_screen.o(i._ZN13Double_screen9drawPixelEsst)
    i._ZN13Double_screen9setCursorEss        0x0800450c   Section        0  double_screen.o(i._ZN13Double_screen9setCursorEss)
    i._ZN13Double_screenC1Ev                 0x08004534   Section        0  double_screen.o(i._ZN13Double_screenC1Ev)
    i._ZN16Adafruit_SSD130610stopscrollEv    0x08004558   Section        0  adafruit_ssd1306.o(i._ZN16Adafruit_SSD130610stopscrollEv)
    i._ZN16Adafruit_SSD130612clearDisplayEv  0x0800455e   Section        0  adafruit_ssd1306.o(i._ZN16Adafruit_SSD130612clearDisplayEv)
    i._ZN16Adafruit_SSD130612ssd1306_dataEt  0x0800456c   Section        0  adafruit_ssd1306.o(i._ZN16Adafruit_SSD130612ssd1306_dataEt)
    i._ZN16Adafruit_SSD130613drawFastHLineEssst 0x080045a8   Section        0  adafruit_ssd1306.o(i._ZN16Adafruit_SSD130613drawFastHLineEssst)
    i._ZN16Adafruit_SSD130613drawFastVLineEssst 0x08004754   Section        0  adafruit_ssd1306.o(i._ZN16Adafruit_SSD130613drawFastVLineEssst)
    i._ZN16Adafruit_SSD130613invertDisplayEh 0x080048f4   Section        0  adafruit_ssd1306.o(i._ZN16Adafruit_SSD130613invertDisplayEh)
    i._ZN16Adafruit_SSD130615ssd1306_commandEh 0x08004900   Section        0  adafruit_ssd1306.o(i._ZN16Adafruit_SSD130615ssd1306_commandEh)
    i._ZN16Adafruit_SSD130615startscrollleftEhh 0x08004928   Section        0  adafruit_ssd1306.o(i._ZN16Adafruit_SSD130615startscrollleftEhh)
    i._ZN16Adafruit_SSD130616startscrollrightEhh 0x08004972   Section        0  adafruit_ssd1306.o(i._ZN16Adafruit_SSD130616startscrollrightEhh)
    i._ZN16Adafruit_SSD130619startscrolldiagleftEhh 0x080049bc   Section        0  adafruit_ssd1306.o(i._ZN16Adafruit_SSD130619startscrolldiagleftEhh)
    i._ZN16Adafruit_SSD130620startscrolldiagrightEhh 0x08004a16   Section        0  adafruit_ssd1306.o(i._ZN16Adafruit_SSD130620startscrolldiagrightEhh)
    i._ZN16Adafruit_SSD13063dimEb            0x08004a70   Section        0  adafruit_ssd1306.o(i._ZN16Adafruit_SSD13063dimEb)
    i._ZN16Adafruit_SSD13065beginEhhb        0x08004a9a   Section        0  adafruit_ssd1306.o(i._ZN16Adafruit_SSD13065beginEhhb)
    i._ZN16Adafruit_SSD13066memsetEPhtt      0x08004b86   Section        0  adafruit_ssd1306.o(i._ZN16Adafruit_SSD13066memsetEPhtt)
    i._ZN16Adafruit_SSD13066printfEPKc       0x08004b98   Section        0  adafruit_ssd1306.o(i._ZN16Adafruit_SSD13066printfEPKc)
    i._ZN16Adafruit_SSD13067displayEv        0x08004c08   Section        0  adafruit_ssd1306.o(i._ZN16Adafruit_SSD13067displayEv)
    i._ZN16Adafruit_SSD13069drawPixelEsst    0x08004c52   Section        0  adafruit_ssd1306.o(i._ZN16Adafruit_SSD13069drawPixelEsst)
    i._ZN16Adafruit_SSD1306C1EP19__I2C_HandleTypeDefa 0x08004d24   Section        0  adafruit_ssd1306.o(i._ZN16Adafruit_SSD1306C1EP19__I2C_HandleTypeDefa)
    i._ZN27_INTERNAL_6_rtti_c_066a44b012tbc_downcastEPvPKSt9type_infoP28a_base_class_traversal_blockPN10__cxxabiv122__base_class_type_infoE 0x08004d68   Section        0  rtti.o(i._ZN27_INTERNAL_6_rtti_c_066a44b012tbc_downcastEPvPKSt9type_infoP28a_base_class_traversal_blockPN10__cxxabiv122__base_class_type_infoE)
    [local to rtti_c]::tbc_downcast(void*, const std::type_info*, a_base_class_traversal_block*, __cxxabiv1::__base_class_type_info*) 0x08004d69   Thumb Code    70  rtti.o(i._ZN27_INTERNAL_6_rtti_c_066a44b012tbc_downcastEPvPKSt9type_infoP28a_base_class_traversal_blockPN10__cxxabiv122__base_class_type_infoE)
    i._ZN27_INTERNAL_6_rtti_c_066a44b017tbc_post_downcastEPvPKSt9type_infoP28a_base_class_traversal_blockPN10__cxxabiv122__base_class_type_infoE 0x08004dae   Section        0  rtti.o(i._ZN27_INTERNAL_6_rtti_c_066a44b017tbc_post_downcastEPvPKSt9type_infoP28a_base_class_traversal_blockPN10__cxxabiv122__base_class_type_infoE)
    [local to rtti_c]::tbc_post_downcast(void*, const std::type_info*, a_base_class_traversal_block*, __cxxabiv1::__base_class_type_info*) 0x08004daf   Thumb Code    22  rtti.o(i._ZN27_INTERNAL_6_rtti_c_066a44b017tbc_post_downcastEPvPKSt9type_infoP28a_base_class_traversal_blockPN10__cxxabiv122__base_class_type_infoE)
    i._ZN27_INTERNAL_6_rtti_c_066a44b021traverse_base_classesEPvPKSt9type_infoP28a_base_class_traversal_blockPN10__cxxabiv122__base_class_type_infoE 0x08004dc4   Section        0  rtti.o(i._ZN27_INTERNAL_6_rtti_c_066a44b021traverse_base_classesEPvPKSt9type_infoP28a_base_class_traversal_blockPN10__cxxabiv122__base_class_type_infoE)
    [local to rtti_c]::traverse_base_classes(void*, const std::type_info*, a_base_class_traversal_block*, __cxxabiv1::__base_class_type_info*) 0x08004dc5   Thumb Code   156  rtti.o(i._ZN27_INTERNAL_6_rtti_c_066a44b021traverse_base_classesEPvPKSt9type_infoP28a_base_class_traversal_blockPN10__cxxabiv122__base_class_type_infoE)
    i._ZN27_INTERNAL_6_rtti_c_066a44b023find_base_class_at_addrEPvS0_PKSt9type_infoS3_Pi 0x08004e68   Section        0  rtti.o(i._ZN27_INTERNAL_6_rtti_c_066a44b023find_base_class_at_addrEPvS0_PKSt9type_infoS3_Pi)
    [local to rtti_c]::find_base_class_at_addr(void*, void*, const std::type_info*, const std::type_info*, int*) 0x08004e69   Thumb Code   182  rtti.o(i._ZN27_INTERNAL_6_rtti_c_066a44b023find_base_class_at_addrEPvS0_PKSt9type_infoS3_Pi)
    i._ZN27_INTERNAL_6_rtti_c_066a44b024get_virtual_base_pointerEPvPN10__cxxabiv122__base_class_type_infoE 0x08004f28   Section        0  rtti.o(i._ZN27_INTERNAL_6_rtti_c_066a44b024get_virtual_base_pointerEPvPN10__cxxabiv122__base_class_type_infoE)
    [local to rtti_c]::get_virtual_base_pointer(void*, __cxxabiv1::__base_class_type_info*) 0x08004f29   Thumb Code    14  rtti.o(i._ZN27_INTERNAL_6_rtti_c_066a44b024get_virtual_base_pointerEPvPN10__cxxabiv122__base_class_type_infoE)
    i._ZN27_INTERNAL_6_rtti_c_066a44b028derived_to_base_conversion_rEPvPS0_PKSt9type_infoS4_jPiiPS4_P19a_result_virtualityS5_ 0x08004f38   Section        0  rtti.o(i._ZN27_INTERNAL_6_rtti_c_066a44b028derived_to_base_conversion_rEPvPS0_PKSt9type_infoS4_jPiiPS4_P19a_result_virtualityS5_)
    [local to rtti_c]::derived_to_base_conversion_r(void*, void**, const std::type_info*, const std::type_info*, unsigned, int*, int, const std::type_info**, a_result_virtuality*, int*) 0x08004f39   Thumb Code   476  rtti.o(i._ZN27_INTERNAL_6_rtti_c_066a44b028derived_to_base_conversion_rEPvPS0_PKSt9type_infoS4_jPiiPS4_P19a_result_virtualityS5_)
    i._ZN29_INTERNAL_8_main_cpp_6a9831bd12MX_GPIO_InitEv 0x0800511c   Section        0  main.o(i._ZN29_INTERNAL_8_main_cpp_6a9831bd12MX_GPIO_InitEv)
    [local to main_cpp]::MX_GPIO_Init()      0x0800511d   Thumb Code    86  main.o(i._ZN29_INTERNAL_8_main_cpp_6a9831bd12MX_GPIO_InitEv)
    i._ZN41_INTERNAL_19_stm32f4xx_hal_dma_c_c25f65ec13DMA_SetConfigEP19__DMA_HandleTypeDefjjj 0x0800517c   Section        0  stm32f4xx_hal_dma.o(i._ZN41_INTERNAL_19_stm32f4xx_hal_dma_c_c25f65ec13DMA_SetConfigEP19__DMA_HandleTypeDefjjj)
    [local to stm32f4xx_hal_dma_c]::DMA_SetConfig(__DMA_HandleTypeDef*, unsigned, unsigned, unsigned) 0x0800517d   Thumb Code    40  stm32f4xx_hal_dma.o(i._ZN41_INTERNAL_19_stm32f4xx_hal_dma_c_c25f65ec13DMA_SetConfigEP19__DMA_HandleTypeDefjjj)
    i._ZN41_INTERNAL_19_stm32f4xx_hal_i2c_c_0eb271f411I2C_ITErrorEP19__I2C_HandleTypeDef 0x080051a4   Section        0  stm32f4xx_hal_i2c.o(i._ZN41_INTERNAL_19_stm32f4xx_hal_i2c_c_0eb271f411I2C_ITErrorEP19__I2C_HandleTypeDef)
    [local to stm32f4xx_hal_i2c_c]::I2C_ITError(__I2C_HandleTypeDef*) 0x080051a5   Thumb Code   332  stm32f4xx_hal_i2c.o(i._ZN41_INTERNAL_19_stm32f4xx_hal_i2c_c_0eb271f411I2C_ITErrorEP19__I2C_HandleTypeDef)
    i._ZN41_INTERNAL_19_stm32f4xx_hal_i2c_c_0eb271f412I2C_DMAAbortEP19__DMA_HandleTypeDef 0x080052f8   Section        0  stm32f4xx_hal_i2c.o(i._ZN41_INTERNAL_19_stm32f4xx_hal_i2c_c_0eb271f412I2C_DMAAbortEP19__DMA_HandleTypeDef)
    [local to stm32f4xx_hal_i2c_c]::I2C_DMAAbort(__DMA_HandleTypeDef*) 0x080052f9   Thumb Code   134  stm32f4xx_hal_i2c.o(i._ZN41_INTERNAL_19_stm32f4xx_hal_i2c_c_0eb271f412I2C_DMAAbortEP19__DMA_HandleTypeDef)
    i._ZN41_INTERNAL_19_stm32f4xx_hal_i2c_c_0eb271f412I2C_DMAErrorEP19__DMA_HandleTypeDef 0x0800537e   Section        0  stm32f4xx_hal_i2c.o(i._ZN41_INTERNAL_19_stm32f4xx_hal_i2c_c_0eb271f412I2C_DMAErrorEP19__DMA_HandleTypeDef)
    [local to stm32f4xx_hal_i2c_c]::I2C_DMAError(__DMA_HandleTypeDef*) 0x0800537f   Thumb Code    64  stm32f4xx_hal_i2c.o(i._ZN41_INTERNAL_19_stm32f4xx_hal_i2c_c_0eb271f412I2C_DMAErrorEP19__DMA_HandleTypeDef)
    i._ZN41_INTERNAL_19_stm32f4xx_hal_i2c_c_0eb271f412I2C_Slave_AFEP19__I2C_HandleTypeDef 0x080053c0   Section        0  stm32f4xx_hal_i2c.o(i._ZN41_INTERNAL_19_stm32f4xx_hal_i2c_c_0eb271f412I2C_Slave_AFEP19__I2C_HandleTypeDef)
    [local to stm32f4xx_hal_i2c_c]::I2C_Slave_AF(__I2C_HandleTypeDef*) 0x080053c1   Thumb Code   126  stm32f4xx_hal_i2c.o(i._ZN41_INTERNAL_19_stm32f4xx_hal_i2c_c_0eb271f412I2C_Slave_AFEP19__I2C_HandleTypeDef)
    i._ZN41_INTERNAL_19_stm32f4xx_hal_i2c_c_0eb271f413I2C_Master_SBEP19__I2C_HandleTypeDef 0x08005444   Section        0  stm32f4xx_hal_i2c.o(i._ZN41_INTERNAL_19_stm32f4xx_hal_i2c_c_0eb271f413I2C_Master_SBEP19__I2C_HandleTypeDef)
    [local to stm32f4xx_hal_i2c_c]::I2C_Master_SB(__I2C_HandleTypeDef*) 0x08005445   Thumb Code   140  stm32f4xx_hal_i2c.o(i._ZN41_INTERNAL_19_stm32f4xx_hal_i2c_c_0eb271f413I2C_Master_SBEP19__I2C_HandleTypeDef)
    i._ZN41_INTERNAL_19_stm32f4xx_hal_i2c_c_0eb271f415I2C_DMAXferCpltEP19__DMA_HandleTypeDef 0x080054d0   Section        0  stm32f4xx_hal_i2c.o(i._ZN41_INTERNAL_19_stm32f4xx_hal_i2c_c_0eb271f415I2C_DMAXferCpltEP19__DMA_HandleTypeDef)
    [local to stm32f4xx_hal_i2c_c]::I2C_DMAXferCplt(__DMA_HandleTypeDef*) 0x080054d1   Thumb Code   266  stm32f4xx_hal_i2c.o(i._ZN41_INTERNAL_19_stm32f4xx_hal_i2c_c_0eb271f415I2C_DMAXferCpltEP19__DMA_HandleTypeDef)
    i._ZN41_INTERNAL_19_stm32f4xx_hal_i2c_c_0eb271f415I2C_Master_ADDREP19__I2C_HandleTypeDef 0x080055dc   Section        0  stm32f4xx_hal_i2c.o(i._ZN41_INTERNAL_19_stm32f4xx_hal_i2c_c_0eb271f415I2C_Master_ADDREP19__I2C_HandleTypeDef)
    [local to stm32f4xx_hal_i2c_c]::I2C_Master_ADDR(__I2C_HandleTypeDef*) 0x080055dd   Thumb Code   276  stm32f4xx_hal_i2c.o(i._ZN41_INTERNAL_19_stm32f4xx_hal_i2c_c_0eb271f415I2C_Master_ADDREP19__I2C_HandleTypeDef)
    i._ZN41_INTERNAL_19_stm32f4xx_hal_i2c_c_0eb271f415I2C_Slave_STOPFEP19__I2C_HandleTypeDef 0x080056f4   Section        0  stm32f4xx_hal_i2c.o(i._ZN41_INTERNAL_19_stm32f4xx_hal_i2c_c_0eb271f415I2C_Slave_STOPFEP19__I2C_HandleTypeDef)
    [local to stm32f4xx_hal_i2c_c]::I2C_Slave_STOPF(__I2C_HandleTypeDef*) 0x080056f5   Thumb Code   338  stm32f4xx_hal_i2c.o(i._ZN41_INTERNAL_19_stm32f4xx_hal_i2c_c_0eb271f415I2C_Slave_STOPFEP19__I2C_HandleTypeDef)
    i._ZN41_INTERNAL_19_stm32f4xx_hal_i2c_c_0eb271f421I2C_MasterReceive_BTFEP19__I2C_HandleTypeDef 0x08005850   Section        0  stm32f4xx_hal_i2c.o(i._ZN41_INTERNAL_19_stm32f4xx_hal_i2c_c_0eb271f421I2C_MasterReceive_BTFEP19__I2C_HandleTypeDef)
    [local to stm32f4xx_hal_i2c_c]::I2C_MasterReceive_BTF(__I2C_HandleTypeDef*) 0x08005851   Thumb Code   210  stm32f4xx_hal_i2c.o(i._ZN41_INTERNAL_19_stm32f4xx_hal_i2c_c_0eb271f421I2C_MasterReceive_BTFEP19__I2C_HandleTypeDef)
    i._ZN41_INTERNAL_19_stm32f4xx_hal_i2c_c_0eb271f421I2C_MasterRequestReadEP19__I2C_HandleTypeDeftjj 0x08005924   Section        0  stm32f4xx_hal_i2c.o(i._ZN41_INTERNAL_19_stm32f4xx_hal_i2c_c_0eb271f421I2C_MasterRequestReadEP19__I2C_HandleTypeDeftjj)
    [local to stm32f4xx_hal_i2c_c]::I2C_MasterRequestRead(__I2C_HandleTypeDef*, unsigned short, unsigned, unsigned) 0x08005925   Thumb Code   230  stm32f4xx_hal_i2c.o(i._ZN41_INTERNAL_19_stm32f4xx_hal_i2c_c_0eb271f421I2C_MasterRequestReadEP19__I2C_HandleTypeDeftjj)
    i._ZN41_INTERNAL_19_stm32f4xx_hal_i2c_c_0eb271f421I2C_RequestMemoryReadEP19__I2C_HandleTypeDeftttjj 0x08005a10   Section        0  stm32f4xx_hal_i2c.o(i._ZN41_INTERNAL_19_stm32f4xx_hal_i2c_c_0eb271f421I2C_RequestMemoryReadEP19__I2C_HandleTypeDeftttjj)
    [local to stm32f4xx_hal_i2c_c]::I2C_RequestMemoryRead(__I2C_HandleTypeDef*, unsigned short, unsigned short, unsigned short, unsigned, unsigned) 0x08005a11   Thumb Code   252  stm32f4xx_hal_i2c.o(i._ZN41_INTERNAL_19_stm32f4xx_hal_i2c_c_0eb271f421I2C_RequestMemoryReadEP19__I2C_HandleTypeDeftttjj)
    i._ZN41_INTERNAL_19_stm32f4xx_hal_i2c_c_0eb271f422I2C_MasterReceive_RXNEEP19__I2C_HandleTypeDef 0x08005b10   Section        0  stm32f4xx_hal_i2c.o(i._ZN41_INTERNAL_19_stm32f4xx_hal_i2c_c_0eb271f422I2C_MasterReceive_RXNEEP19__I2C_HandleTypeDef)
    [local to stm32f4xx_hal_i2c_c]::I2C_MasterReceive_RXNE(__I2C_HandleTypeDef*) 0x08005b11   Thumb Code   146  stm32f4xx_hal_i2c.o(i._ZN41_INTERNAL_19_stm32f4xx_hal_i2c_c_0eb271f422I2C_MasterReceive_RXNEEP19__I2C_HandleTypeDef)
    i._ZN41_INTERNAL_19_stm32f4xx_hal_i2c_c_0eb271f422I2C_MasterRequestWriteEP19__I2C_HandleTypeDeftjj 0x08005ba4   Section        0  stm32f4xx_hal_i2c.o(i._ZN41_INTERNAL_19_stm32f4xx_hal_i2c_c_0eb271f422I2C_MasterRequestWriteEP19__I2C_HandleTypeDeftjj)
    [local to stm32f4xx_hal_i2c_c]::I2C_MasterRequestWrite(__I2C_HandleTypeDef*, unsigned short, unsigned, unsigned) 0x08005ba5   Thumb Code   150  stm32f4xx_hal_i2c.o(i._ZN41_INTERNAL_19_stm32f4xx_hal_i2c_c_0eb271f422I2C_MasterRequestWriteEP19__I2C_HandleTypeDeftjj)
    i._ZN41_INTERNAL_19_stm32f4xx_hal_i2c_c_0eb271f422I2C_MasterTransmit_BTFEP19__I2C_HandleTypeDef 0x08005c40   Section        0  stm32f4xx_hal_i2c.o(i._ZN41_INTERNAL_19_stm32f4xx_hal_i2c_c_0eb271f422I2C_MasterTransmit_BTFEP19__I2C_HandleTypeDef)
    [local to stm32f4xx_hal_i2c_c]::I2C_MasterTransmit_BTF(__I2C_HandleTypeDef*) 0x08005c41   Thumb Code   146  stm32f4xx_hal_i2c.o(i._ZN41_INTERNAL_19_stm32f4xx_hal_i2c_c_0eb271f422I2C_MasterTransmit_BTFEP19__I2C_HandleTypeDef)
    i._ZN41_INTERNAL_19_stm32f4xx_hal_i2c_c_0eb271f422I2C_MasterTransmit_TXEEP19__I2C_HandleTypeDef 0x08005cd4   Section        0  stm32f4xx_hal_i2c.o(i._ZN41_INTERNAL_19_stm32f4xx_hal_i2c_c_0eb271f422I2C_MasterTransmit_TXEEP19__I2C_HandleTypeDef)
    [local to stm32f4xx_hal_i2c_c]::I2C_MasterTransmit_TXE(__I2C_HandleTypeDef*) 0x08005cd5   Thumb Code   182  stm32f4xx_hal_i2c.o(i._ZN41_INTERNAL_19_stm32f4xx_hal_i2c_c_0eb271f422I2C_MasterTransmit_TXEEP19__I2C_HandleTypeDef)
    i._ZN41_INTERNAL_19_stm32f4xx_hal_i2c_c_0eb271f422I2C_RequestMemoryWriteEP19__I2C_HandleTypeDeftttjj 0x08005d8c   Section        0  stm32f4xx_hal_i2c.o(i._ZN41_INTERNAL_19_stm32f4xx_hal_i2c_c_0eb271f422I2C_RequestMemoryWriteEP19__I2C_HandleTypeDeftttjj)
    [local to stm32f4xx_hal_i2c_c]::I2C_RequestMemoryWrite(__I2C_HandleTypeDef*, unsigned short, unsigned short, unsigned short, unsigned, unsigned) 0x08005d8d   Thumb Code   162  stm32f4xx_hal_i2c.o(i._ZN41_INTERNAL_19_stm32f4xx_hal_i2c_c_0eb271f422I2C_RequestMemoryWriteEP19__I2C_HandleTypeDeftttjj)
    i._ZN41_INTERNAL_19_stm32f4xx_hal_i2c_c_0eb271f423I2C_IsAcknowledgeFailedEP19__I2C_HandleTypeDef 0x08005e34   Section        0  stm32f4xx_hal_i2c.o(i._ZN41_INTERNAL_19_stm32f4xx_hal_i2c_c_0eb271f423I2C_IsAcknowledgeFailedEP19__I2C_HandleTypeDef)
    [local to stm32f4xx_hal_i2c_c]::I2C_IsAcknowledgeFailed(__I2C_HandleTypeDef*) 0x08005e35   Thumb Code    46  stm32f4xx_hal_i2c.o(i._ZN41_INTERNAL_19_stm32f4xx_hal_i2c_c_0eb271f423I2C_IsAcknowledgeFailedEP19__I2C_HandleTypeDef)
    i._ZN41_INTERNAL_19_stm32f4xx_hal_i2c_c_0eb271f426I2C_MemoryTransmit_TXE_BTFEP19__I2C_HandleTypeDef 0x08005e62   Section        0  stm32f4xx_hal_i2c.o(i._ZN41_INTERNAL_19_stm32f4xx_hal_i2c_c_0eb271f426I2C_MemoryTransmit_TXE_BTFEP19__I2C_HandleTypeDef)
    [local to stm32f4xx_hal_i2c_c]::I2C_MemoryTransmit_TXE_BTF(__I2C_HandleTypeDef*) 0x08005e63   Thumb Code   108  stm32f4xx_hal_i2c.o(i._ZN41_INTERNAL_19_stm32f4xx_hal_i2c_c_0eb271f426I2C_MemoryTransmit_TXE_BTFEP19__I2C_HandleTypeDef)
    i._ZN41_INTERNAL_19_stm32f4xx_hal_i2c_c_0eb271f426I2C_WaitOnFlagUntilTimeoutEP19__I2C_HandleTypeDefj10FlagStatusjj 0x08005ed0   Section        0  stm32f4xx_hal_i2c.o(i._ZN41_INTERNAL_19_stm32f4xx_hal_i2c_c_0eb271f426I2C_WaitOnFlagUntilTimeoutEP19__I2C_HandleTypeDefj10FlagStatusjj)
    [local to stm32f4xx_hal_i2c_c]::I2C_WaitOnFlagUntilTimeout(__I2C_HandleTypeDef*, unsigned, FlagStatus, unsigned, unsigned) 0x08005ed1   Thumb Code   112  stm32f4xx_hal_i2c.o(i._ZN41_INTERNAL_19_stm32f4xx_hal_i2c_c_0eb271f426I2C_WaitOnFlagUntilTimeoutEP19__I2C_HandleTypeDefj10FlagStatusjj)
    i._ZN41_INTERNAL_19_stm32f4xx_hal_i2c_c_0eb271f429I2C_WaitOnBTFFlagUntilTimeoutEP19__I2C_HandleTypeDefjj 0x08005f40   Section        0  stm32f4xx_hal_i2c.o(i._ZN41_INTERNAL_19_stm32f4xx_hal_i2c_c_0eb271f429I2C_WaitOnBTFFlagUntilTimeoutEP19__I2C_HandleTypeDefjj)
    [local to stm32f4xx_hal_i2c_c]::I2C_WaitOnBTFFlagUntilTimeout(__I2C_HandleTypeDef*, unsigned, unsigned) 0x08005f41   Thumb Code    76  stm32f4xx_hal_i2c.o(i._ZN41_INTERNAL_19_stm32f4xx_hal_i2c_c_0eb271f429I2C_WaitOnBTFFlagUntilTimeoutEP19__I2C_HandleTypeDefjj)
    i._ZN41_INTERNAL_19_stm32f4xx_hal_i2c_c_0eb271f429I2C_WaitOnTXEFlagUntilTimeoutEP19__I2C_HandleTypeDefjj 0x08005f8c   Section        0  stm32f4xx_hal_i2c.o(i._ZN41_INTERNAL_19_stm32f4xx_hal_i2c_c_0eb271f429I2C_WaitOnTXEFlagUntilTimeoutEP19__I2C_HandleTypeDefjj)
    [local to stm32f4xx_hal_i2c_c]::I2C_WaitOnTXEFlagUntilTimeout(__I2C_HandleTypeDef*, unsigned, unsigned) 0x08005f8d   Thumb Code    76  stm32f4xx_hal_i2c.o(i._ZN41_INTERNAL_19_stm32f4xx_hal_i2c_c_0eb271f429I2C_WaitOnTXEFlagUntilTimeoutEP19__I2C_HandleTypeDefjj)
    i._ZN41_INTERNAL_19_stm32f4xx_hal_i2c_c_0eb271f430I2C_WaitOnRXNEFlagUntilTimeoutEP19__I2C_HandleTypeDefjj 0x08005fd8   Section        0  stm32f4xx_hal_i2c.o(i._ZN41_INTERNAL_19_stm32f4xx_hal_i2c_c_0eb271f430I2C_WaitOnRXNEFlagUntilTimeoutEP19__I2C_HandleTypeDefjj)
    [local to stm32f4xx_hal_i2c_c]::I2C_WaitOnRXNEFlagUntilTimeout(__I2C_HandleTypeDef*, unsigned, unsigned) 0x08005fd9   Thumb Code   102  stm32f4xx_hal_i2c.o(i._ZN41_INTERNAL_19_stm32f4xx_hal_i2c_c_0eb271f430I2C_WaitOnRXNEFlagUntilTimeoutEP19__I2C_HandleTypeDefjj)
    i._ZN41_INTERNAL_19_stm32f4xx_hal_i2c_c_0eb271f439I2C_WaitOnMasterAddressFlagUntilTimeoutEP19__I2C_HandleTypeDefjjj 0x0800603e   Section        0  stm32f4xx_hal_i2c.o(i._ZN41_INTERNAL_19_stm32f4xx_hal_i2c_c_0eb271f439I2C_WaitOnMasterAddressFlagUntilTimeoutEP19__I2C_HandleTypeDefjjj)
    [local to stm32f4xx_hal_i2c_c]::I2C_WaitOnMasterAddressFlagUntilTimeout(__I2C_HandleTypeDef*, unsigned, unsigned, unsigned) 0x0800603f   Thumb Code   150  stm32f4xx_hal_i2c.o(i._ZN41_INTERNAL_19_stm32f4xx_hal_i2c_c_0eb271f439I2C_WaitOnMasterAddressFlagUntilTimeoutEP19__I2C_HandleTypeDefjjj)
    i._ZN44_INTERNAL_22_stm32f4xx_hal_cortex_c_2992dbc018__NVIC_SetPriorityE9IRQn_Typej 0x080060d4   Section        0  stm32f4xx_hal_cortex.o(i._ZN44_INTERNAL_22_stm32f4xx_hal_cortex_c_2992dbc018__NVIC_SetPriorityE9IRQn_Typej)
    [local to stm32f4xx_hal_cortex_c]::__NVIC_SetPriority(IRQn_Type, unsigned) 0x080060d5   Thumb Code    32  stm32f4xx_hal_cortex.o(i._ZN44_INTERNAL_22_stm32f4xx_hal_cortex_c_2992dbc018__NVIC_SetPriorityE9IRQn_Typej)
    i._ZNK12Adafruit_GFX11getRotationEv      0x080060f4   Section        0  adafruit_gfx.o(i._ZNK12Adafruit_GFX11getRotationEv)
    i._ZNK12Adafruit_GFX5widthEv             0x080060f8   Section        0  adafruit_gfx.o(i._ZNK12Adafruit_GFX5widthEv)
    i._ZNK12Adafruit_GFX6heightEv            0x080060fe   Section        0  adafruit_gfx.o(i._ZNK12Adafruit_GFX6heightEv)
    i._ZNKSt9type_infoeqERKS_                0x08006104   Section        0  type_info_eq.o(i._ZNKSt9type_infoeqERKS_)
    i._ZNKSt9type_infoneERKS_                0x08006124   Section        0  type_info_ne.o(i._ZNKSt9type_infoneERKS_)
    i._ZNSt10bad_typeidC1ERKS_               0x08006144   Section        0  bad_typeid.o(i._ZNSt10bad_typeidC1ERKS_)
    i._ZNSt10bad_typeidC1Ev                  0x08006154   Section        0  bad_typeid.o(i._ZNSt10bad_typeidC1Ev)
    i._ZNSt10bad_typeidD0Ev                  0x08006164   Section        0  bad_typeid.o(i._ZNSt10bad_typeidD0Ev)
    i._ZNSt10bad_typeidD1Ev                  0x08006172   Section        0  bad_typeid.o(i._ZNSt10bad_typeidD1Ev)
    i._ZNSt13bad_exceptionC1ERKS_            0x0800617c   Section        0  bad_exception_cctor.o(i._ZNSt13bad_exceptionC1ERKS_)
    i._ZNSt13bad_exceptionC1Ev               0x0800618c   Section        0  bad_exception_ctor.o(i._ZNSt13bad_exceptionC1Ev)
    i._ZNSt13bad_exceptionD0Ev               0x0800619c   Section        0  bad_exception_dtor.o(i._ZNSt13bad_exceptionD0Ev)
    i._ZNSt13bad_exceptionD1Ev               0x080061aa   Section        0  bad_exception_dtor.o(i._ZNSt13bad_exceptionD1Ev)
    i._ZNSt9bad_allocC1ERKS_                 0x080061b4   Section        0  bad_alloc_cctor.o(i._ZNSt9bad_allocC1ERKS_)
    i._ZNSt9bad_allocC1Ev                    0x080061c4   Section        0  bad_alloc_ctor.o(i._ZNSt9bad_allocC1Ev)
    i._ZNSt9bad_allocD0Ev                    0x080061d4   Section        0  bad_alloc_dtor.o(i._ZNSt9bad_allocD0Ev)
    i._ZNSt9bad_allocD1Ev                    0x080061e2   Section        0  bad_alloc_dtor.o(i._ZNSt9bad_allocD1Ev)
    i._ZNSt9exceptionC1ERKS_                 0x080061ec   Section        0  exception_cctor.o(i._ZNSt9exceptionC1ERKS_)
    i._ZNSt9exceptionC1Ev                    0x080061f8   Section        0  exception_ctor.o(i._ZNSt9exceptionC1Ev)
    i._ZdaPv                                 0x08006204   Section        0  array_del.o(i._ZdaPv)
    i._ZdlPv                                 0x0800620c   Section        0  delete.o(i._ZdlPv)
    i._Znaj                                  0x08006214   Section        0  array_new.o(i._Znaj)
    i._Znwj                                  0x0800621c   Section        0  new.o(i._Znwj)
    i.__ARM_array_new_general                0x08006244   Section        0  array_new_general.o(i.__ARM_array_new_general)
    i.__ARM_array_new_general.clean          0x080062d6   Section        0  array_new_general.o(i.__ARM_array_new_general.clean)
    i.__ARM_common_get_typeid                0x080062e2   Section        0  arm_exceptions_throw.o(i.__ARM_common_get_typeid)
    i.__ARM_vec_cleanup                      0x08006302   Section        0  ARM_vec_cleanup.o(i.__ARM_vec_cleanup)
    i.__ARM_vec_cleanup.clean                0x0800632e   Section        0  ARM_vec_cleanup.o(i.__ARM_vec_cleanup.clean)
    i.__ARM_vec_cleanup_rethrow              0x08006336   Section        0  ARM_vec_cleanup_rethrow.o(i.__ARM_vec_cleanup_rethrow)
    i.__ARM_vec_cleanup_rethrow.clean        0x08006362   Section        0  ARM_vec_cleanup_rethrow.o(i.__ARM_vec_cleanup_rethrow.clean)
    i.__aeabi_vec_delete                     0x0800636a   Section        0  aeabi_vec_delete.o(i.__aeabi_vec_delete)
    i.__aeabi_vec_delete.clean               0x0800638c   Section        0  aeabi_vec_delete.o(i.__aeabi_vec_delete.clean)
    i.__aeabi_vec_dtor                       0x08006394   Section        0  aeabi_vec_dtor.o(i.__aeabi_vec_dtor)
    i.__aeabi_vec_dtor.clean                 0x080063ce   Section        0  aeabi_vec_dtor.o(i.__aeabi_vec_dtor.clean)
    i.__aeabi_vec_dtor_cookie                0x080063d6   Section        0  aeabi_vec_dtor_cookie.o(i.__aeabi_vec_dtor_cookie)
    i.__aeabi_vec_new_cookie                 0x080063e6   Section        0  aeabi_vec_new_cookie.o(i.__aeabi_vec_new_cookie)
    i.__cxa_pure_virtual                     0x080063fa   Section        0  pure_virt.o(i.__cxa_pure_virtual)
    i.__cxa_vec_new                          0x08006400   Section        0  cxa_vec_new.o(i.__cxa_vec_new)
    i.__derived_to_base_conversion           0x08006418   Section        0  rtti.o(i.__derived_to_base_conversion)
    i.__dynamic_cast                         0x08006488   Section        0  rtti.o(i.__dynamic_cast)
    i.__sti___17_Double_screen_cpp_lcd_top   0x0800653c   Section        0  double_screen.o(i.__sti___17_Double_screen_cpp_lcd_top)
    __sti___17_Double_screen_cpp_lcd_top     0x0800653d   Thumb Code    26  double_screen.o(i.__sti___17_Double_screen_cpp_lcd_top)
    i.__sti___8_main_cpp_6a9831bd            0x08006568   Section        0  main.o(i.__sti___8_main_cpp_6a9831bd)
    __sti___8_main_cpp_6a9831bd              0x08006569   Thumb Code     6  main.o(i.__sti___8_main_cpp_6a9831bd)
    i.main                                   0x08006574   Section        0  main.o(i.main)
    i.main.clean                             0x08006618   Section        0  main.o(i.main.clean)
    t._ZN6VectorIS_IiEE2atEi                 0x08006624   Section        0  snake_game.o(t._ZN6VectorIS_IiEE2atEi)
    t._ZN6VectorIS_IiEE7reserveEi            0x08006650   Section        0  snake_game.o(t._ZN6VectorIS_IiEE7reserveEi)
    t._ZN6VectorIS_IiEED1Ev                  0x080066b4   Section        0  main.o(t._ZN6VectorIS_IiEED1Ev)
    t._ZN6VectorIiE4backEv                   0x080066c8   Section        0  snake_game.o(t._ZN6VectorIiE4backEv)
    t._ZN6VectorIiE7reserveEi                0x080066d6   Section        0  snake_game.o(t._ZN6VectorIiE7reserveEi)
    t._ZN6VectorIiE9push_backERKi            0x08006716   Section        0  snake_game.o(t._ZN6VectorIiE9push_backERKi)
    t._ZN6VectorIiEC1Ev                      0x08006744   Section        0  snake_game.o(t._ZN6VectorIiEC1Ev)
    t._ZN6VectorIiED1Ev                      0x0800674e   Section        0  main.o(t._ZN6VectorIiED1Ev)
    t._ZN6VectorIiEaSERKS0_                  0x0800675c   Section        0  snake_game.o(t._ZN6VectorIiEaSERKS0_)
    x$fpl$fpinit                             0x080067bc   Section       10  fpinit.o(x$fpl$fpinit)
    $v0                                      0x080067bc   Number         0  fpinit.o(x$fpl$fpinit)
    .extab._ZN12Adafruit_GFX8drawLineEsssst  0x080067c8   Data           0  adafruit_gfx.o(.ARM.extab)
    .extab.main                              0x080067d4   Data           0  main.o(.ARM.extab)
    .extab._ZN6VectorIS_IiEED1Ev             0x080067e4   Data           0  main.o(.ARM.extab)
    .extab._ZN10Snake_game10addNewHeadEii    0x080067f4   Data           0  snake_game.o(.ARM.extab)
    .extab._ZN10Snake_gameC1Essss            0x08006804   Data           0  snake_game.o(.ARM.extab)
    .extab._Znaj                             0x08006814   Data           0  array_new.o(.ARM.extab)
    .extab.__aeabi_vec_delete                0x08006828   Data           0  aeabi_vec_delete.o(.ARM.extab)
    .extab.__cxa_call_unexpected             0x08006844   Data           0  arm_exceptions_callunex.o(.ARM.extab)
    .extab._ZN38_INTERNAL_16_arm_exceptions_c_8b2d39d624armcpp_exception_cleanupE19_Unwind_Reason_CodeP21_Unwind_Control_Block 0x0800687c   Data           0  arm_exceptions_throw.o(.ARM.extab)
    .extab._Znwj                             0x08006898   Data           0  new.o(.ARM.extab)
    .extab.__ARM_array_new_general           0x080068ac   Data           0  array_new_general.o(.ARM.extab)
    .extab.__aeabi_vec_dtor                  0x080068dc   Data           0  aeabi_vec_dtor.o(.ARM.extab)
    .extab.__ARM_vec_cleanup                 0x080068f8   Data           0  ARM_vec_cleanup.o(.ARM.extab)
    .extab.__ARM_vec_cleanup_rethrow         0x0800691c   Data           0  ARM_vec_cleanup_rethrow.o(.ARM.extab)
    .constdata                               0x08006938   Section     1520  adafruit_ssd1306.o(.constdata)
    FONT_8X16                                0x08006938   Data        1520  adafruit_ssd1306.o(.constdata)
    .constdata                               0x08006f28   Section       16  system_stm32f4xx.o(.constdata)
    .constdata                               0x08006f38   Section        8  system_stm32f4xx.o(.constdata)
    .constdata                               0x08006f40   Section       12  arm_exceptions_support.o(.constdata)
    __ARM::is_foreign_exception(_Unwind_Control_Block*)::is_foreign_exception_static 0x08006f40   Data          12  arm_exceptions_support.o(.constdata)
    .constdata__ZTI12out_of_range            0x08006f4c   Section        8  snake_game.o(.constdata__ZTI12out_of_range)
    .constdata__ZTIN10__cxxabiv117__class_type_infoE 0x08006f54   Section       12  lib_rtti_impl.o(.constdata__ZTIN10__cxxabiv117__class_type_infoE)
    .constdata__ZTIN10__cxxabiv117__pbase_type_infoE 0x08006f60   Section       12  lib_rtti_impl.o(.constdata__ZTIN10__cxxabiv117__pbase_type_infoE)
    .constdata__ZTIN10__cxxabiv119__pointer_type_infoE 0x08006f6c   Section       12  lib_rtti_impl.o(.constdata__ZTIN10__cxxabiv119__pointer_type_infoE)
    .constdata__ZTIN10__cxxabiv120__si_class_type_infoE 0x08006f78   Section       12  lib_rtti_impl.o(.constdata__ZTIN10__cxxabiv120__si_class_type_infoE)
    .constdata__ZTIN10__cxxabiv121__vmi_class_type_infoE 0x08006f84   Section       12  lib_rtti_impl.o(.constdata__ZTIN10__cxxabiv121__vmi_class_type_infoE)
    .constdata__ZTIN10__cxxabiv123__fundamental_type_infoE 0x08006f90   Section       12  lib_rtti_impl.o(.constdata__ZTIN10__cxxabiv123__fundamental_type_infoE)
    .constdata__ZTISt10bad_typeid            0x08006f9c   Section       12  bad_typeid.o(.constdata__ZTISt10bad_typeid)
    .constdata__ZTISt13bad_exception         0x08006fa8   Section       12  bad_exception_dtor.o(.constdata__ZTISt13bad_exception)
    .constdata__ZTISt9bad_alloc              0x08006fb4   Section       12  bad_alloc_dtor.o(.constdata__ZTISt9bad_alloc)
    .constdata__ZTISt9exception              0x08006fc0   Section        8  exception_dtor.o(.constdata__ZTISt9exception)
    .constdata__ZTISt9type_info              0x08006fc8   Section        8  type_info_dtor.o(.constdata__ZTISt9type_info)
    .constdata__ZTIv                         0x08006fd0   Section        8  arm_exceptions_throw.o(.constdata__ZTIv)
    .constdata__ZTS12out_of_range            0x08006fd8   Section       15  snake_game.o(.constdata__ZTS12out_of_range)
    .constdata__ZTSN10__cxxabiv117__class_type_infoE 0x08006fe7   Section       34  lib_rtti_impl.o(.constdata__ZTSN10__cxxabiv117__class_type_infoE)
    .constdata__ZTSN10__cxxabiv117__pbase_type_infoE 0x08007009   Section       34  lib_rtti_impl.o(.constdata__ZTSN10__cxxabiv117__pbase_type_infoE)
    .constdata__ZTSN10__cxxabiv119__pointer_type_infoE 0x0800702b   Section       36  lib_rtti_impl.o(.constdata__ZTSN10__cxxabiv119__pointer_type_infoE)
    .constdata__ZTSN10__cxxabiv120__si_class_type_infoE 0x0800704f   Section       37  lib_rtti_impl.o(.constdata__ZTSN10__cxxabiv120__si_class_type_infoE)
    .constdata__ZTSN10__cxxabiv121__vmi_class_type_infoE 0x08007074   Section       38  lib_rtti_impl.o(.constdata__ZTSN10__cxxabiv121__vmi_class_type_infoE)
    .constdata__ZTSN10__cxxabiv123__fundamental_type_infoE 0x0800709a   Section       40  lib_rtti_impl.o(.constdata__ZTSN10__cxxabiv123__fundamental_type_infoE)
    .constdata__ZTSSt10bad_typeid            0x080070c2   Section       15  bad_typeid.o(.constdata__ZTSSt10bad_typeid)
    .constdata__ZTSSt13bad_exception         0x080070d1   Section       18  bad_exception_dtor.o(.constdata__ZTSSt13bad_exception)
    .constdata__ZTSSt9bad_alloc              0x080070e3   Section       13  bad_alloc_dtor.o(.constdata__ZTSSt9bad_alloc)
    .constdata__ZTSSt9exception              0x080070f0   Section       13  exception_dtor.o(.constdata__ZTSSt9exception)
    .constdata__ZTSSt9type_info              0x080070fd   Section       13  type_info_dtor.o(.constdata__ZTSSt9type_info)
    .constdata__ZTSv                         0x0800710a   Section        2  arm_exceptions_throw.o(.constdata__ZTSv)
    .constdata__ZTV12Adafruit_GFX            0x0800710c   Section       40  adafruit_gfx.o(.constdata__ZTV12Adafruit_GFX)
    .constdata__ZTV16Adafruit_SSD1306        0x08007134   Section       40  adafruit_ssd1306.o(.constdata__ZTV16Adafruit_SSD1306)
    .constdata__ZTVN10__cxxabiv117__class_type_infoE 0x0800715c   Section       16  lib_rtti_impl.o(.constdata__ZTVN10__cxxabiv117__class_type_infoE)
    .constdata__ZTVN10__cxxabiv120__si_class_type_infoE 0x0800716c   Section       16  lib_rtti_impl.o(.constdata__ZTVN10__cxxabiv120__si_class_type_infoE)
    .constdata__ZTVN10__cxxabiv123__fundamental_type_infoE 0x0800717c   Section       16  lib_rtti_impl.o(.constdata__ZTVN10__cxxabiv123__fundamental_type_infoE)
    .constdata__ZTVSt10bad_typeid            0x0800718c   Section       20  bad_typeid.o(.constdata__ZTVSt10bad_typeid)
    .constdata__ZTVSt13bad_exception         0x080071a0   Section       20  bad_exception_dtor.o(.constdata__ZTVSt13bad_exception)
    .constdata__ZTVSt9bad_alloc              0x080071b4   Section       20  bad_alloc_dtor.o(.constdata__ZTVSt9bad_alloc)
    .constdata__ZTVSt9exception              0x080071c8   Section       20  exception_dtor.o(.constdata__ZTVSt9exception)
    .init_array                              0x080071fc   Section        4  main.o(.init_array)
    .init_array                              0x08007200   Section        4  double_screen.o(.init_array)
    .init_array                              0x08007204   Section        0  init_aeabi.o(.init_array)
    .data                                    0x20000000   Section      643  adafruit_ssd1306.o(.data)
    buffer_start                             0x20000083   Data         512  adafruit_ssd1306.o(.data)
    .data                                    0x20000284   Section       12  stm32f4xx_hal.o(.data)
    .data                                    0x20000290   Section        4  system_stm32f4xx.o(.data)
    .data__ZZN16Adafruit_SSD130621drawFastVLineInternalEssstE7premask 0x20000294   Section        8  adafruit_ssd1306.o(.data__ZZN16Adafruit_SSD130621drawFastVLineInternalEssstE7premask)
    .data__ZZN16Adafruit_SSD130621drawFastVLineInternalEssstE8postmask 0x2000029c   Section        8  adafruit_ssd1306.o(.data__ZZN16Adafruit_SSD130621drawFastVLineInternalEssstE8postmask)
    .bss                                     0x200002a4   Section      194  main.o(.bss)
    .bss                                     0x20000368   Section     1096  double_screen.o(.bss)
    .bss                                     0x200007b0   Section       96  libspace.o(.bss)
    HEAP                                     0x20000810   Section      512  startup_stm32f407xx.o(HEAP)
    Heap_Mem                                 0x20000810   Data         512  startup_stm32f407xx.o(HEAP)
    STACK                                    0x20000a10   Section     1024  startup_stm32f407xx.o(STACK)
    Stack_Mem                                0x20000a10   Data        1024  startup_stm32f407xx.o(STACK)
    __initial_sp                             0x20000e10   Data           0  startup_stm32f407xx.o(STACK)

    Global Symbols

    Symbol Name                              Value     Ov Type        Size  Object(Section)

    BuildAttributes$$THM_ISAv4$E$P$D$K$B$S$7EM$VFPi3$EXTD16$VFPS$VFMA$PE$A:L22UL41UL21$X:L11$S22US41US21$IEEE1$IW$USESV6$~STKCKD$USESV7$~SHL$OTIME$ROPI$EBA8$UX$STANDARDLIB$REQ8$PRES8$EABIv2 0x00000000   Number         0  anon$$obj.o ABSOLUTE
    __ARM_use_no_argv                        0x00000000   Number         0  main.o ABSOLUTE
    __ARM_exceptions_buffer_required          - Undefined Weak Reference
    __ARM_exceptions_init                     - Undefined Weak Reference
    __aeabi_unwind_cpp_pr2                    - Undefined Weak Reference
    __alloca_initialize                       - Undefined Weak Reference
    __arm_preinit_                            - Undefined Weak Reference
    __cxa_finalize                            - Undefined Weak Reference
    __rt_locale                               - Undefined Weak Reference
    __sigvec_lookup                           - Undefined Weak Reference
    __user_heap_extent                        - Undefined Weak Reference
    _atexit_init                              - Undefined Weak Reference
    _call_atexit_fns                          - Undefined Weak Reference
    _clock_init                               - Undefined Weak Reference
    _fp_trap_init                             - Undefined Weak Reference
    _fp_trap_shutdown                         - Undefined Weak Reference
    _get_lc_collate                           - Undefined Weak Reference
    _get_lc_ctype                             - Undefined Weak Reference
    _get_lc_monetary                          - Undefined Weak Reference
    _get_lc_numeric                           - Undefined Weak Reference
    _get_lc_time                              - Undefined Weak Reference
    _getenv_init                              - Undefined Weak Reference
    _handle_redirection                       - Undefined Weak Reference
    _initio                                   - Undefined Weak Reference
    _mutex_acquire                            - Undefined Weak Reference
    _mutex_free                               - Undefined Weak Reference
    _mutex_release                            - Undefined Weak Reference
    _rand_init                                - Undefined Weak Reference
    _signal_finish                            - Undefined Weak Reference
    _signal_init                              - Undefined Weak Reference
    _terminateio                              - Undefined Weak Reference
    __Vectors_Size                           0x00000188   Number         0  startup_stm32f407xx.o ABSOLUTE
    __Vectors                                0x08000000   Data           4  startup_stm32f407xx.o(RESET)
    __Vectors_End                            0x08000188   Data           0  startup_stm32f407xx.o(RESET)
    __main                                   0x08000189   Thumb Code     8  __main.o(!!!main)
    __scatterload                            0x08000191   Thumb Code     0  __scatter.o(!!!scatter)
    __scatterload_rt2                        0x08000191   Thumb Code    44  __scatter.o(!!!scatter)
    __scatterload_rt2_thumb_only             0x08000191   Thumb Code     0  __scatter.o(!!!scatter)
    __scatterload_null                       0x0800019f   Thumb Code     0  __scatter.o(!!!scatter)
    __decompress                             0x080001c5   Thumb Code    90  __dczerorl2.o(!!dczerorl2)
    __decompress1                            0x080001c5   Thumb Code     0  __dczerorl2.o(!!dczerorl2)
    __scatterload_zeroinit                   0x08000221   Thumb Code    28  __scatter_zi.o(!!handler_zi)
    __rt_lib_init                            0x0800023d   Thumb Code     0  libinit.o(.ARM.Collect$$libinit$$00000000)
    __rt_lib_init_fp_1                       0x0800023f   Thumb Code     0  libinit2.o(.ARM.Collect$$libinit$$00000001)
    __rt_lib_init_heap_2                     0x08000243   Thumb Code     0  libinit2.o(.ARM.Collect$$libinit$$00000005)
    __rt_lib_init_preinit_1                  0x08000243   Thumb Code     0  libinit2.o(.ARM.Collect$$libinit$$00000004)
    __rt_lib_init_alloca_1                   0x0800024b   Thumb Code     0  libinit2.o(.ARM.Collect$$libinit$$0000002E)
    __rt_lib_init_argv_1                     0x0800024b   Thumb Code     0  libinit2.o(.ARM.Collect$$libinit$$0000002C)
    __rt_lib_init_atexit_1                   0x0800024b   Thumb Code     0  libinit2.o(.ARM.Collect$$libinit$$0000001B)
    __rt_lib_init_clock_1                    0x0800024b   Thumb Code     0  libinit2.o(.ARM.Collect$$libinit$$00000021)
    __rt_lib_init_cpp_2                      0x0800024b   Thumb Code     0  libinit2.o(.ARM.Collect$$libinit$$00000031)
    __rt_lib_init_exceptions_1               0x0800024b   Thumb Code     0  libinit2.o(.ARM.Collect$$libinit$$00000030)
    __rt_lib_init_fp_trap_1                  0x0800024b   Thumb Code     0  libinit2.o(.ARM.Collect$$libinit$$0000001F)
    __rt_lib_init_getenv_1                   0x0800024b   Thumb Code     0  libinit2.o(.ARM.Collect$$libinit$$00000023)
    __rt_lib_init_heap_1                     0x0800024b   Thumb Code     0  libinit2.o(.ARM.Collect$$libinit$$0000000A)
    __rt_lib_init_lc_collate_1               0x0800024b   Thumb Code     0  libinit2.o(.ARM.Collect$$libinit$$00000011)
    __rt_lib_init_lc_ctype_1                 0x0800024b   Thumb Code     0  libinit2.o(.ARM.Collect$$libinit$$00000013)
    __rt_lib_init_lc_monetary_1              0x0800024b   Thumb Code     0  libinit2.o(.ARM.Collect$$libinit$$00000015)
    __rt_lib_init_lc_numeric_1               0x0800024b   Thumb Code     0  libinit2.o(.ARM.Collect$$libinit$$00000017)
    __rt_lib_init_lc_time_1                  0x0800024b   Thumb Code     0  libinit2.o(.ARM.Collect$$libinit$$00000019)
    __rt_lib_init_rand_1                     0x0800024b   Thumb Code     0  libinit2.o(.ARM.Collect$$libinit$$0000000E)
    __rt_lib_init_signal_1                   0x0800024b   Thumb Code     0  libinit2.o(.ARM.Collect$$libinit$$0000001D)
    __rt_lib_init_stdio_1                    0x0800024b   Thumb Code     0  libinit2.o(.ARM.Collect$$libinit$$00000025)
    __rt_lib_init_user_alloc_1               0x0800024b   Thumb Code     0  libinit2.o(.ARM.Collect$$libinit$$0000000C)
    __rt_lib_init_cpp_1                      0x0800024f   Thumb Code     0  libinit2.o(.ARM.Collect$$libinit$$00000032)
    __rt_lib_init_return                     0x0800024f   Thumb Code     0  libinit2.o(.ARM.Collect$$libinit$$00000033)
    __rt_lib_shutdown                        0x08000251   Thumb Code     0  libshutdown.o(.ARM.Collect$$libshutdown$$00000000)
    __rt_lib_shutdown_cpp_1                  0x08000253   Thumb Code     0  libshutdown2.o(.ARM.Collect$$libshutdown$$00000002)
    __rt_lib_shutdown_fp_trap_1              0x08000253   Thumb Code     0  libshutdown2.o(.ARM.Collect$$libshutdown$$00000007)
    __rt_lib_shutdown_heap_1                 0x08000253   Thumb Code     0  libshutdown2.o(.ARM.Collect$$libshutdown$$0000000F)
    __rt_lib_shutdown_return                 0x08000253   Thumb Code     0  libshutdown2.o(.ARM.Collect$$libshutdown$$00000010)
    __rt_lib_shutdown_signal_1               0x08000253   Thumb Code     0  libshutdown2.o(.ARM.Collect$$libshutdown$$0000000A)
    __rt_lib_shutdown_stdio_1                0x08000253   Thumb Code     0  libshutdown2.o(.ARM.Collect$$libshutdown$$00000004)
    __rt_lib_shutdown_user_alloc_1           0x08000253   Thumb Code     0  libshutdown2.o(.ARM.Collect$$libshutdown$$0000000C)
    __rt_entry                               0x08000255   Thumb Code     0  __rtentry.o(.ARM.Collect$$rtentry$$00000000)
    __rt_entry_presh_1                       0x08000255   Thumb Code     0  __rtentry2.o(.ARM.Collect$$rtentry$$00000002)
    __rt_entry_sh                            0x08000255   Thumb Code     0  __rtentry4.o(.ARM.Collect$$rtentry$$00000004)
    __rt_entry_li                            0x0800025b   Thumb Code     0  __rtentry2.o(.ARM.Collect$$rtentry$$0000000A)
    __rt_entry_postsh_1                      0x0800025b   Thumb Code     0  __rtentry2.o(.ARM.Collect$$rtentry$$00000009)
    __rt_entry_main                          0x0800025f   Thumb Code     0  __rtentry2.o(.ARM.Collect$$rtentry$$0000000D)
    __rt_entry_postli_1                      0x0800025f   Thumb Code     0  __rtentry2.o(.ARM.Collect$$rtentry$$0000000C)
    __rt_exit                                0x08000267   Thumb Code     0  rtexit.o(.ARM.Collect$$rtexit$$00000000)
    __rt_exit_ls                             0x08000269   Thumb Code     0  rtexit2.o(.ARM.Collect$$rtexit$$00000003)
    __rt_exit_prels_1                        0x08000269   Thumb Code     0  rtexit2.o(.ARM.Collect$$rtexit$$00000002)
    __rt_exit_exit                           0x0800026d   Thumb Code     0  rtexit2.o(.ARM.Collect$$rtexit$$00000004)
    __cxa_end_cleanup                        0x08000275   Thumb Code    32  arm_exceptions_cleanup.o(.emb_text)
    __ARM_Unwind_VRS_VFPpreserve_low         0x08000295   Thumb Code     6  unwinder.o(.emb_text)
    __ARM_Unwind_VRS_VFPpreserve_high        0x0800029b   Thumb Code     6  unwinder.o(.emb_text)
    __ARM_Unwind_VRS_VFPrestore_low          0x080002a1   Thumb Code     6  unwinder.o(.emb_text)
    __ARM_Unwind_VRS_VFPrestore_high         0x080002a7   Thumb Code     6  unwinder.o(.emb_text)
    __ARM_Unwind_VRS_corerestore             0x080002ad   Thumb Code    26  unwinder.o(.emb_text)
    _Unwind_RaiseException                   0x080002c7   Thumb Code    46  unwinder.o(.emb_text)
    __ARM_ETInfo                             0x080002ec   Data           0  unwinder.o(.emb_text)
    _Unwind_Resume                           0x080002f5   Thumb Code    28  unwinder.o(.emb_text)
    _Unwind_Activity                         0x08000311   Thumb Code     4  unwind_activity.o(.emb_text)
    Reset_Handler                            0x08000315   Thumb Code     8  startup_stm32f407xx.o(.text)
    _maybe_terminate_alloc                   0x08000315   Thumb Code     0  maybetermalloc1.o(.emb_text)
    ADC_IRQHandler                           0x0800032f   Thumb Code     0  startup_stm32f407xx.o(.text)
    CAN1_RX0_IRQHandler                      0x0800032f   Thumb Code     0  startup_stm32f407xx.o(.text)
    CAN1_RX1_IRQHandler                      0x0800032f   Thumb Code     0  startup_stm32f407xx.o(.text)
    CAN1_SCE_IRQHandler                      0x0800032f   Thumb Code     0  startup_stm32f407xx.o(.text)
    CAN1_TX_IRQHandler                       0x0800032f   Thumb Code     0  startup_stm32f407xx.o(.text)
    CAN2_RX0_IRQHandler                      0x0800032f   Thumb Code     0  startup_stm32f407xx.o(.text)
    CAN2_RX1_IRQHandler                      0x0800032f   Thumb Code     0  startup_stm32f407xx.o(.text)
    CAN2_SCE_IRQHandler                      0x0800032f   Thumb Code     0  startup_stm32f407xx.o(.text)
    CAN2_TX_IRQHandler                       0x0800032f   Thumb Code     0  startup_stm32f407xx.o(.text)
    DCMI_IRQHandler                          0x0800032f   Thumb Code     0  startup_stm32f407xx.o(.text)
    DMA1_Stream0_IRQHandler                  0x0800032f   Thumb Code     0  startup_stm32f407xx.o(.text)
    DMA1_Stream1_IRQHandler                  0x0800032f   Thumb Code     0  startup_stm32f407xx.o(.text)
    DMA1_Stream2_IRQHandler                  0x0800032f   Thumb Code     0  startup_stm32f407xx.o(.text)
    DMA1_Stream3_IRQHandler                  0x0800032f   Thumb Code     0  startup_stm32f407xx.o(.text)
    DMA1_Stream4_IRQHandler                  0x0800032f   Thumb Code     0  startup_stm32f407xx.o(.text)
    DMA1_Stream5_IRQHandler                  0x0800032f   Thumb Code     0  startup_stm32f407xx.o(.text)
    DMA1_Stream6_IRQHandler                  0x0800032f   Thumb Code     0  startup_stm32f407xx.o(.text)
    DMA1_Stream7_IRQHandler                  0x0800032f   Thumb Code     0  startup_stm32f407xx.o(.text)
    DMA2_Stream0_IRQHandler                  0x0800032f   Thumb Code     0  startup_stm32f407xx.o(.text)
    DMA2_Stream1_IRQHandler                  0x0800032f   Thumb Code     0  startup_stm32f407xx.o(.text)
    DMA2_Stream2_IRQHandler                  0x0800032f   Thumb Code     0  startup_stm32f407xx.o(.text)
    DMA2_Stream3_IRQHandler                  0x0800032f   Thumb Code     0  startup_stm32f407xx.o(.text)
    DMA2_Stream4_IRQHandler                  0x0800032f   Thumb Code     0  startup_stm32f407xx.o(.text)
    DMA2_Stream5_IRQHandler                  0x0800032f   Thumb Code     0  startup_stm32f407xx.o(.text)
    DMA2_Stream6_IRQHandler                  0x0800032f   Thumb Code     0  startup_stm32f407xx.o(.text)
    DMA2_Stream7_IRQHandler                  0x0800032f   Thumb Code     0  startup_stm32f407xx.o(.text)
    ETH_IRQHandler                           0x0800032f   Thumb Code     0  startup_stm32f407xx.o(.text)
    ETH_WKUP_IRQHandler                      0x0800032f   Thumb Code     0  startup_stm32f407xx.o(.text)
    EXTI0_IRQHandler                         0x0800032f   Thumb Code     0  startup_stm32f407xx.o(.text)
    EXTI15_10_IRQHandler                     0x0800032f   Thumb Code     0  startup_stm32f407xx.o(.text)
    EXTI1_IRQHandler                         0x0800032f   Thumb Code     0  startup_stm32f407xx.o(.text)
    EXTI2_IRQHandler                         0x0800032f   Thumb Code     0  startup_stm32f407xx.o(.text)
    EXTI3_IRQHandler                         0x0800032f   Thumb Code     0  startup_stm32f407xx.o(.text)
    EXTI4_IRQHandler                         0x0800032f   Thumb Code     0  startup_stm32f407xx.o(.text)
    EXTI9_5_IRQHandler                       0x0800032f   Thumb Code     0  startup_stm32f407xx.o(.text)
    FLASH_IRQHandler                         0x0800032f   Thumb Code     0  startup_stm32f407xx.o(.text)
    FMC_IRQHandler                           0x0800032f   Thumb Code     0  startup_stm32f407xx.o(.text)
    FPU_IRQHandler                           0x0800032f   Thumb Code     0  startup_stm32f407xx.o(.text)
    HASH_RNG_IRQHandler                      0x0800032f   Thumb Code     0  startup_stm32f407xx.o(.text)
    I2C1_ER_IRQHandler                       0x0800032f   Thumb Code     0  startup_stm32f407xx.o(.text)
    I2C1_EV_IRQHandler                       0x0800032f   Thumb Code     0  startup_stm32f407xx.o(.text)
    I2C2_ER_IRQHandler                       0x0800032f   Thumb Code     0  startup_stm32f407xx.o(.text)
    I2C2_EV_IRQHandler                       0x0800032f   Thumb Code     0  startup_stm32f407xx.o(.text)
    I2C3_ER_IRQHandler                       0x0800032f   Thumb Code     0  startup_stm32f407xx.o(.text)
    I2C3_EV_IRQHandler                       0x0800032f   Thumb Code     0  startup_stm32f407xx.o(.text)
    OTG_FS_IRQHandler                        0x0800032f   Thumb Code     0  startup_stm32f407xx.o(.text)
    OTG_FS_WKUP_IRQHandler                   0x0800032f   Thumb Code     0  startup_stm32f407xx.o(.text)
    OTG_HS_EP1_IN_IRQHandler                 0x0800032f   Thumb Code     0  startup_stm32f407xx.o(.text)
    OTG_HS_EP1_OUT_IRQHandler                0x0800032f   Thumb Code     0  startup_stm32f407xx.o(.text)
    OTG_HS_IRQHandler                        0x0800032f   Thumb Code     0  startup_stm32f407xx.o(.text)
    OTG_HS_WKUP_IRQHandler                   0x0800032f   Thumb Code     0  startup_stm32f407xx.o(.text)
    PVD_IRQHandler                           0x0800032f   Thumb Code     0  startup_stm32f407xx.o(.text)
    RCC_IRQHandler                           0x0800032f   Thumb Code     0  startup_stm32f407xx.o(.text)
    RTC_Alarm_IRQHandler                     0x0800032f   Thumb Code     0  startup_stm32f407xx.o(.text)
    RTC_WKUP_IRQHandler                      0x0800032f   Thumb Code     0  startup_stm32f407xx.o(.text)
    SDIO_IRQHandler                          0x0800032f   Thumb Code     0  startup_stm32f407xx.o(.text)
    SPI1_IRQHandler                          0x0800032f   Thumb Code     0  startup_stm32f407xx.o(.text)
    SPI2_IRQHandler                          0x0800032f   Thumb Code     0  startup_stm32f407xx.o(.text)
    SPI3_IRQHandler                          0x0800032f   Thumb Code     0  startup_stm32f407xx.o(.text)
    TAMP_STAMP_IRQHandler                    0x0800032f   Thumb Code     0  startup_stm32f407xx.o(.text)
    TIM1_BRK_TIM9_IRQHandler                 0x0800032f   Thumb Code     0  startup_stm32f407xx.o(.text)
    TIM1_CC_IRQHandler                       0x0800032f   Thumb Code     0  startup_stm32f407xx.o(.text)
    TIM1_TRG_COM_TIM11_IRQHandler            0x0800032f   Thumb Code     0  startup_stm32f407xx.o(.text)
    TIM1_UP_TIM10_IRQHandler                 0x0800032f   Thumb Code     0  startup_stm32f407xx.o(.text)
    TIM2_IRQHandler                          0x0800032f   Thumb Code     0  startup_stm32f407xx.o(.text)
    TIM3_IRQHandler                          0x0800032f   Thumb Code     0  startup_stm32f407xx.o(.text)
    TIM4_IRQHandler                          0x0800032f   Thumb Code     0  startup_stm32f407xx.o(.text)
    TIM5_IRQHandler                          0x0800032f   Thumb Code     0  startup_stm32f407xx.o(.text)
    TIM6_DAC_IRQHandler                      0x0800032f   Thumb Code     0  startup_stm32f407xx.o(.text)
    TIM7_IRQHandler                          0x0800032f   Thumb Code     0  startup_stm32f407xx.o(.text)
    TIM8_BRK_TIM12_IRQHandler                0x0800032f   Thumb Code     0  startup_stm32f407xx.o(.text)
    TIM8_CC_IRQHandler                       0x0800032f   Thumb Code     0  startup_stm32f407xx.o(.text)
    TIM8_TRG_COM_TIM14_IRQHandler            0x0800032f   Thumb Code     0  startup_stm32f407xx.o(.text)
    TIM8_UP_TIM13_IRQHandler                 0x0800032f   Thumb Code     0  startup_stm32f407xx.o(.text)
    UART4_IRQHandler                         0x0800032f   Thumb Code     0  startup_stm32f407xx.o(.text)
    UART5_IRQHandler                         0x0800032f   Thumb Code     0  startup_stm32f407xx.o(.text)
    USART1_IRQHandler                        0x0800032f   Thumb Code     0  startup_stm32f407xx.o(.text)
    USART2_IRQHandler                        0x0800032f   Thumb Code     0  startup_stm32f407xx.o(.text)
    USART3_IRQHandler                        0x0800032f   Thumb Code     0  startup_stm32f407xx.o(.text)
    USART6_IRQHandler                        0x0800032f   Thumb Code     0  startup_stm32f407xx.o(.text)
    WWDG_IRQHandler                          0x0800032f   Thumb Code     0  startup_stm32f407xx.o(.text)
    __user_initial_stackheap                 0x08000331   Thumb Code     0  startup_stm32f407xx.o(.text)
    __aeabi_uldivmod                         0x08000355   Thumb Code     0  lludivv7m.o(.text)
    _ll_udiv                                 0x08000355   Thumb Code   238  lludivv7m.o(.text)
    __aeabi_memclr4                          0x08000443   Thumb Code     0  rt_memclr_w.o(.text)
    __aeabi_memclr8                          0x08000443   Thumb Code     0  rt_memclr_w.o(.text)
    __rt_memclr_w                            0x08000443   Thumb Code    78  rt_memclr_w.o(.text)
    _memset_w                                0x08000447   Thumb Code     0  rt_memclr_w.o(.text)
    __use_two_region_memory                  0x08000491   Thumb Code     2  heapauxi.o(.text)
    __rt_heap_escrow                         0x08000493   Thumb Code     2  heapauxi.o(.text)
    __rt_heap_expand                         0x08000495   Thumb Code     2  heapauxi.o(.text)
    __cpp_initialize__aeabi_                 0x08000499   Thumb Code    26  init_aeabi.o(.text)
    __cxa_allocate_exception                 0x080004bd   Thumb Code    82  arm_exceptions_alloc.o(.text)
    __cxa_call_unexpected                    0x0800051d   Thumb Code   200  arm_exceptions_callunex.o(.text)
    __ARM::call_terminate_handler(_Unwind_Control_Block*) 0x080005ed   Thumb Code    42  arm_exceptions_callterm.o(.text)
    __cxa_call_terminate                     0x08000617   Thumb Code    14  arm_exceptions_callterm.o(.text)
    __cxa_begin_cleanup                      0x08000625   Thumb Code    54  arm_exceptions_cleanup.o(.text)
    __ARM_cxa_end_cleanup                    0x0800065b   Thumb Code    70  arm_exceptions_cleanup.o(.text)
    __cxa_throw                              0x080006e3   Thumb Code    54  arm_exceptions_throw.o(.text)
    __cxa_type_match                         0x08000719   Thumb Code   260  arm_exceptions_throw.o(.text)
    __aeabi_unwind_cpp_pr0                   0x08000831   Thumb Code     6  unwind_pr0.o(.text)
    __aeabi_unwind_cpp_pr1                   0x08000837   Thumb Code     6  unwind_pr1.o(.text)
    malloc                                   0x0800083d   Thumb Code    94  h1_alloc.o(.text)
    __rt_SIGPVFN                             0x0800089b   Thumb Code    14  defsig_pvfn_outer.o(.text)
    __cxa_free_exception                     0x080008a9   Thumb Code    34  arm_exceptions_free.o(.text)
    std::terminate()                         0x080008cb   Thumb Code    26  arm_exceptions_terminate.o(.text)
    __ARM_exceptions_buffer_init             0x080008e5   Thumb Code    18  arm_exceptions_mem.o(.text)
    __ARM_exceptions_buffer_allocate         0x080008f7   Thumb Code    22  arm_exceptions_mem.o(.text)
    __ARM_exceptions_buffer_free             0x0800090d   Thumb Code    20  arm_exceptions_mem.o(.text)
    __ARM::same_exceptions_class(const void*, const void*) 0x08000921   Thumb Code    24  arm_exceptions_support.o(.text)
    __ARM::is_foreign_exception(_Unwind_Control_Block*) 0x08000939   Thumb Code    14  arm_exceptions_support.o(.text)
    __cxa_rethrow                            0x0800094d   Thumb Code    82  arm_exceptions_rethrow.o(.text)
    __cxa_end_catch                          0x0800099f   Thumb Code    74  arm_exceptions_endcatch.o(.text)
    __cxa_begin_catch                        0x080009e9   Thumb Code    72  arm_exceptions_begincatch.o(.text)
    __cxa_bad_typeid                         0x08000a31   Thumb Code    38  arm_exceptions_bad_typeid.o(.text)
    std::unexpected()                        0x08000a61   Thumb Code    26  arm_exceptions_unexpected.o(.text)
    __ARM::default_unexpected_handler()      0x08000a7b   Thumb Code     4  arm_exceptions_unexpected.o(.text)
    __ARM::get_foreign_intermediary(__cxa_exception*, _Unwind_Control_Block*) 0x08000a7f   Thumb Code    66  arm_exceptions_foreign.o(.text)
    __cxa_get_globals                        0x08000ac7   Thumb Code    62  arm_exceptions_globs.o(.text)
    _Unwind_VRS_Set                          0x08000b11   Thumb Code    46  unwinder.o(.text)
    _Unwind_VRS_Get                          0x08000b3f   Thumb Code    46  unwinder.o(.text)
    _Unwind_VRS_Pop                          0x08000b6d   Thumb Code   272  unwinder.o(.text)
    __ARM_unwind_next_frame                  0x08000d55   Thumb Code    46  unwinder.o(.text)
    __ARM_Unwind_RaiseException              0x08000d83   Thumb Code   206  unwinder.o(.text)
    __ARM_Unwind_Resume                      0x08000e51   Thumb Code    44  unwinder.o(.text)
    _Unwind_Complete                         0x08000e7d   Thumb Code    72  unwinder.o(.text)
    __ARM_unwind_cpp_prcommon                0x08000f0d   Thumb Code  1474  unwind_prcommon.o(.text)
    __rt_heap_descriptor                     0x080014d5   Thumb Code     8  rt_heap_descriptor_intlibspace.o(.text)
    __rt_new_handler_addr                    0x080014dd   Thumb Code     8  rt_new_handler_addr_intlibspace.o(.text)
    __rt_eh_globals_addr                     0x080014e5   Thumb Code     8  rt_eh_globals_addr_intlibspace.o(.text)
    __use_no_heap                            0x080014ed   Thumb Code     2  hguard.o(.text)
    __heap$guard                             0x080014ef   Thumb Code     2  hguard.o(.text)
    _terminate_user_alloc                    0x080014f1   Thumb Code     2  init_alloc.o(.text)
    _init_user_alloc                         0x080014f3   Thumb Code     2  init_alloc.o(.text)
    __Heap_Full                              0x080014f5   Thumb Code    34  init_alloc.o(.text)
    __Heap_Broken                            0x08001517   Thumb Code     6  init_alloc.o(.text)
    _init_alloc                              0x0800151d   Thumb Code    94  init_alloc.o(.text)
    __Heap_Initialize                        0x0800157b   Thumb Code    10  h1_init.o(.text)
    __Heap_DescSize                          0x08001585   Thumb Code     4  h1_init.o(.text)
    free                                     0x08001589   Thumb Code    78  h1_free.o(.text)
    abort                                    0x080015d7   Thumb Code    22  abort.o(.text)
    bsearch                                  0x080015ed   Thumb Code    80  bsearch.o(.text)
    __sig_exit                               0x0800163d   Thumb Code    10  defsig_exit.o(.text)
    __rt_SIGPVFN_inner                       0x08001649   Thumb Code    14  defsig_pvfn_inner.o(.text)
    __aeabi_memcpy4                          0x08001679   Thumb Code     0  rt_memcpy_w.o(.text)
    __aeabi_memcpy8                          0x08001679   Thumb Code     0  rt_memcpy_w.o(.text)
    __rt_memcpy_w                            0x08001679   Thumb Code   100  rt_memcpy_w.o(.text)
    _memcpy_lastbytes_aligned                0x080016c1   Thumb Code     0  rt_memcpy_w.o(.text)
    _Unwind_DeleteException                  0x080016dd   Thumb Code    14  unwind_delete.o(.text)
    _sys_exit                                0x080016ed   Thumb Code     8  sys_exit.o(.text)
    __user_libspace                          0x080016f9   Thumb Code     8  libspace.o(.text)
    __user_perproc_libspace                  0x080016f9   Thumb Code     0  libspace.o(.text)
    __user_perthread_libspace                0x080016f9   Thumb Code     0  libspace.o(.text)
    __user_setup_stackheap                   0x08001701   Thumb Code    74  sys_stackheap_outer.o(.text)
    __Heap_ProvideMemory                     0x0800174b   Thumb Code    52  h1_extend.o(.text)
    exit                                     0x0800177f   Thumb Code    18  exit.o(.text)
    __default_signal_display                 0x08001791   Thumb Code    50  defsig_general.o(.text)
    __rt_SIGABRT                             0x080017c3   Thumb Code    14  defsig_abrt_outer.o(.text)
    __rt_SIGRTMEM                            0x080017d1   Thumb Code    14  defsig_rtmem_outer.o(.text)
    _ttywrch                                 0x080017df   Thumb Code    14  sys_wrch.o(.text)
    __I$use$semihosting                      0x080017ed   Thumb Code     0  use_no_semi.o(.text)
    __use_no_semihosting_swi                 0x080017ed   Thumb Code     2  use_no_semi.o(.text)
    __semihosting_library_function           0x080017ef   Thumb Code     0  indicate_semi.o(.text)
    __rt_SIGABRT_inner                       0x080017f1   Thumb Code    14  defsig_abrt_inner.o(.text)
    __rt_SIGRTMEM_inner                      0x08001821   Thumb Code    22  defsig_rtmem_inner.o(.text)
    BusFault_Handler                         0x08001885   Thumb Code     2  stm32f4xx_it.o(i.BusFault_Handler)
    DebugMon_Handler                         0x08001887   Thumb Code     2  stm32f4xx_it.o(i.DebugMon_Handler)
    HAL_DMA_Abort_IT                         0x08001889   Thumb Code    36  stm32f4xx_hal_dma.o(i.HAL_DMA_Abort_IT)
    HAL_DMA_GetError                         0x080018ad   Thumb Code     4  stm32f4xx_hal_dma.o(i.HAL_DMA_GetError)
    HAL_DMA_GetState                         0x080018b1   Thumb Code     6  stm32f4xx_hal_dma.o(i.HAL_DMA_GetState)
    HAL_DMA_Start                            0x080018b7   Thumb Code    70  stm32f4xx_hal_dma.o(i.HAL_DMA_Start)
    HAL_DMA_Start_IT                         0x080018fd   Thumb Code   110  stm32f4xx_hal_dma.o(i.HAL_DMA_Start_IT)
    HAL_Delay                                0x0800196d   Thumb Code    32  stm32f4xx_hal.o(i.HAL_Delay)
    HAL_GPIO_Init                            0x08001991   Thumb Code   394  stm32f4xx_hal_gpio.o(i.HAL_GPIO_Init)
    HAL_GPIO_TogglePin                       0x08001b49   Thumb Code    14  stm32f4xx_hal_gpio.o(i.HAL_GPIO_TogglePin)
    HAL_GPIO_WritePin                        0x08001b57   Thumb Code    10  stm32f4xx_hal_gpio.o(i.HAL_GPIO_WritePin)
    HAL_GetTick                              0x08001b61   Thumb Code     6  stm32f4xx_hal.o(i.HAL_GetTick)
    HAL_GetTickFreq                          0x08001b6d   Thumb Code     6  stm32f4xx_hal.o(i.HAL_GetTickFreq)
    HAL_GetTickPrio                          0x08001b79   Thumb Code     6  stm32f4xx_hal.o(i.HAL_GetTickPrio)
    HAL_I2C_AbortCpltCallback                0x08001b85   Thumb Code     2  stm32f4xx_hal_i2c.o(i.HAL_I2C_AbortCpltCallback)
    HAL_I2C_AddrCallback                     0x08001b87   Thumb Code     2  stm32f4xx_hal_i2c.o(i.HAL_I2C_AddrCallback)
    HAL_I2C_ER_IRQHandler                    0x08001b89   Thumb Code   186  stm32f4xx_hal_i2c.o(i.HAL_I2C_ER_IRQHandler)
    HAL_I2C_EV_IRQHandler                    0x08001c43   Thumb Code   602  stm32f4xx_hal_i2c.o(i.HAL_I2C_EV_IRQHandler)
    HAL_I2C_ErrorCallback                    0x08001e9d   Thumb Code     2  stm32f4xx_hal_i2c.o(i.HAL_I2C_ErrorCallback)
    HAL_I2C_Init                             0x08001ea1   Thumb Code   376  stm32f4xx_hal_i2c.o(i.HAL_I2C_Init)
    HAL_I2C_IsDeviceReady                    0x08002029   Thumb Code   342  stm32f4xx_hal_i2c.o(i.HAL_I2C_IsDeviceReady)
    HAL_I2C_ListenCpltCallback               0x08002189   Thumb Code     2  stm32f4xx_hal_i2c.o(i.HAL_I2C_ListenCpltCallback)
    HAL_I2C_MasterRxCpltCallback             0x0800218b   Thumb Code     2  stm32f4xx_hal_i2c.o(i.HAL_I2C_MasterRxCpltCallback)
    HAL_I2C_MasterTxCpltCallback             0x0800218d   Thumb Code     2  stm32f4xx_hal_i2c.o(i.HAL_I2C_MasterTxCpltCallback)
    HAL_I2C_Master_Abort_IT                  0x0800218f   Thumb Code    86  stm32f4xx_hal_i2c.o(i.HAL_I2C_Master_Abort_IT)
    HAL_I2C_Master_Receive                   0x080021e5   Thumb Code   470  stm32f4xx_hal_i2c.o(i.HAL_I2C_Master_Receive)
    HAL_I2C_Master_Receive_DMA               0x080023c9   Thumb Code   314  stm32f4xx_hal_i2c.o(i.HAL_I2C_Master_Receive_DMA)
    HAL_I2C_Master_Seq_Receive_DMA           0x08002515   Thumb Code   468  stm32f4xx_hal_i2c.o(i.HAL_I2C_Master_Seq_Receive_DMA)
    HAL_I2C_Master_Seq_Transmit_DMA          0x080026f5   Thumb Code   388  stm32f4xx_hal_i2c.o(i.HAL_I2C_Master_Seq_Transmit_DMA)
    HAL_I2C_Master_Transmit                  0x08002885   Thumb Code   294  stm32f4xx_hal_i2c.o(i.HAL_I2C_Master_Transmit)
    HAL_I2C_Master_Transmit_DMA              0x080029b5   Thumb Code   314  stm32f4xx_hal_i2c.o(i.HAL_I2C_Master_Transmit_DMA)
    HAL_I2C_MemRxCpltCallback                0x08002b01   Thumb Code     2  stm32f4xx_hal_i2c.o(i.HAL_I2C_MemRxCpltCallback)
    HAL_I2C_MemTxCpltCallback                0x08002b03   Thumb Code     2  stm32f4xx_hal_i2c.o(i.HAL_I2C_MemTxCpltCallback)
    HAL_I2C_Mem_Read                         0x08002b05   Thumb Code   492  stm32f4xx_hal_i2c.o(i.HAL_I2C_Mem_Read)
    HAL_I2C_Mem_Read_DMA                     0x08002cfd   Thumb Code   384  stm32f4xx_hal_i2c.o(i.HAL_I2C_Mem_Read_DMA)
    HAL_I2C_Mem_Write                        0x08002e8d   Thumb Code   298  stm32f4xx_hal_i2c.o(i.HAL_I2C_Mem_Write)
    HAL_I2C_Mem_Write_DMA                    0x08002fc1   Thumb Code   328  stm32f4xx_hal_i2c.o(i.HAL_I2C_Mem_Write_DMA)
    HAL_I2C_MspInit                          0x08003119   Thumb Code   154  stm32f4xx_hal_msp.o(i.HAL_I2C_MspInit)
    HAL_I2C_SlaveRxCpltCallback              0x080031c5   Thumb Code     2  stm32f4xx_hal_i2c.o(i.HAL_I2C_SlaveRxCpltCallback)
    HAL_I2C_SlaveTxCpltCallback              0x080031c7   Thumb Code     2  stm32f4xx_hal_i2c.o(i.HAL_I2C_SlaveTxCpltCallback)
    HAL_I2C_Slave_Receive                    0x080031c9   Thumb Code   356  stm32f4xx_hal_i2c.o(i.HAL_I2C_Slave_Receive)
    HAL_I2C_Slave_Receive_DMA                0x08003335   Thumb Code   204  stm32f4xx_hal_i2c.o(i.HAL_I2C_Slave_Receive_DMA)
    HAL_I2C_Slave_Seq_Receive_DMA            0x0800340d   Thumb Code   318  stm32f4xx_hal_i2c.o(i.HAL_I2C_Slave_Seq_Receive_DMA)
    HAL_I2C_Slave_Seq_Transmit_DMA           0x08003559   Thumb Code   318  stm32f4xx_hal_i2c.o(i.HAL_I2C_Slave_Seq_Transmit_DMA)
    HAL_I2C_Slave_Transmit                   0x080036a5   Thumb Code   342  stm32f4xx_hal_i2c.o(i.HAL_I2C_Slave_Transmit)
    HAL_I2C_Slave_Transmit_DMA               0x08003805   Thumb Code   204  stm32f4xx_hal_i2c.o(i.HAL_I2C_Slave_Transmit_DMA)
    HAL_IncTick                              0x080038dd   Thumb Code    12  stm32f4xx_hal.o(i.HAL_IncTick)
    HAL_Init                                 0x080038ed   Thumb Code    48  stm32f4xx_hal.o(i.HAL_Init)
    HAL_InitTick                             0x08003921   Thumb Code    54  stm32f4xx_hal.o(i.HAL_InitTick)
    HAL_MspInit                              0x08003961   Thumb Code    42  stm32f4xx_hal_msp.o(i.HAL_MspInit)
    HAL_NVIC_SetPriority                     0x08003991   Thumb Code    60  stm32f4xx_hal_cortex.o(i.HAL_NVIC_SetPriority)
    HAL_NVIC_SetPriorityGrouping             0x080039d1   Thumb Code    26  stm32f4xx_hal_cortex.o(i.HAL_NVIC_SetPriorityGrouping)
    HAL_RCC_ClockConfig                      0x080039f5   Thumb Code   288  stm32f4xx_hal_rcc.o(i.HAL_RCC_ClockConfig)
    HAL_RCC_GetPCLK1Freq                     0x08003b29   Thumb Code    20  stm32f4xx_hal_rcc.o(i.HAL_RCC_GetPCLK1Freq)
    HAL_RCC_GetSysClockFreq                  0x08003b49   Thumb Code    88  stm32f4xx_hal_rcc.o(i.HAL_RCC_GetSysClockFreq)
    HAL_RCC_OscConfig                        0x08003ba9   Thumb Code   842  stm32f4xx_hal_rcc.o(i.HAL_RCC_OscConfig)
    HAL_SYSTICK_Config                       0x08003f0d   Thumb Code    42  stm32f4xx_hal_cortex.o(i.HAL_SYSTICK_Config)
    HAL_SetTickFreq                          0x08003f39   Thumb Code    30  stm32f4xx_hal.o(i.HAL_SetTickFreq)
    HardFault_Handler                        0x08003f5d   Thumb Code     2  stm32f4xx_it.o(i.HardFault_Handler)
    MemManage_Handler                        0x08003f5f   Thumb Code     2  stm32f4xx_it.o(i.MemManage_Handler)
    NMI_Handler                              0x08003f61   Thumb Code     2  stm32f4xx_it.o(i.NMI_Handler)
    PendSV_Handler                           0x08003f63   Thumb Code     2  stm32f4xx_it.o(i.PendSV_Handler)
    SVC_Handler                              0x08003f65   Thumb Code     2  stm32f4xx_it.o(i.SVC_Handler)
    SysTick_Handler                          0x08003f67   Thumb Code     4  stm32f4xx_it.o(i.SysTick_Handler)
    SystemCoreClockUpdate                    0x08003f6d   Thumb Code   104  system_stm32f4xx.o(i.SystemCoreClockUpdate)
    SystemInit                               0x08003fe5   Thumb Code    22  system_stm32f4xx.o(i.SystemInit)
    UsageFault_Handler                       0x08004001   Thumb Code     2  stm32f4xx_it.o(i.UsageFault_Handler)
    SystemClock_Config()                     0x08004005   Thumb Code   124  main.o(i._Z18SystemClock_Configv)
    __default_new_handler()                  0x08004089   Thumb Code    38  newhandler.o(i._Z21__default_new_handlerv)
    Snake_game::addNewHead(int, int)         0x080040b9   Thumb Code    86  snake_game.o(i._ZN10Snake_game10addNewHeadEii)
    Snake_game::drawCurrentSnake()           0x08004119   Thumb Code   128  snake_game.o(i._ZN10Snake_game16drawCurrentSnakeEv)
    Snake_game::initializeScreen()           0x08004199   Thumb Code    36  snake_game.o(i._ZN10Snake_game16initializeScreenEv)
    Snake_game::getElem()                    0x080041bd   Thumb Code    16  snake_game.o(i._ZN10Snake_game7getElemEv)
    Snake_game::Snake_game(short, short, short, short) 0x080041cd   Thumb Code   116  snake_game.o(i._ZN10Snake_gameC1Essss)
    Snake_game::Snake_game__sub_object(short, short, short, short) 0x080041cd   Thumb Code     0  snake_game.o(i._ZN10Snake_gameC1Essss)
    Snake_game::~Snake_game()                0x0800424b   Thumb Code     8  main.o(i._ZN10Snake_gameD1Ev)
    Snake_game::~Snake_game__sub_object()    0x0800424b   Thumb Code     0  main.o(i._ZN10Snake_gameD1Ev)
    Adafruit_GFX::setTextSize(unsigned char) 0x08004253   Thumb Code     8  adafruit_gfx.o(i._ZN12Adafruit_GFX11setTextSizeEh)
    Adafruit_GFX::setTextColor(unsigned short) 0x0800425b   Thumb Code     6  adafruit_gfx.o(i._ZN12Adafruit_GFX12setTextColorEt)
    Adafruit_GFX::setTextColor(unsigned short, unsigned short) 0x08004261   Thumb Code     6  adafruit_gfx.o(i._ZN12Adafruit_GFX12setTextColorEtt)
    Adafruit_GFX::drawFastHLine(short, short, short, unsigned short) 0x08004267   Thumb Code    22  adafruit_gfx.o(i._ZN12Adafruit_GFX13drawFastHLineEssst)
    Adafruit_GFX::drawFastVLine(short, short, short, unsigned short) 0x0800427d   Thumb Code    24  adafruit_gfx.o(i._ZN12Adafruit_GFX13drawFastVLineEssst)
    Adafruit_GFX::drawLine(short, short, short, short, unsigned short) 0x08004295   Thumb Code   172  adafruit_gfx.o(i._ZN12Adafruit_GFX8drawLineEsssst)
    Adafruit_GFX::fillRect(short, short, short, short, unsigned short) 0x08004341   Thumb Code    48  adafruit_gfx.o(i._ZN12Adafruit_GFX8fillRectEsssst)
    Adafruit_GFX::setCursor(short, short)    0x08004371   Thumb Code     6  adafruit_gfx.o(i._ZN12Adafruit_GFX9setCursorEss)
    Adafruit_GFX::Adafruit_GFX__sub_object(short, short) 0x08004379   Thumb Code    36  adafruit_gfx.o(i._ZN12Adafruit_GFXC2Ess)
    Double_screen::printBottom(const char*)  0x080043a1   Thumb Code     6  double_screen.o(i._ZN13Double_screen11printBottomEPKc)
    Double_screen::setTextSize(unsigned char) 0x080043ad   Thumb Code    28  double_screen.o(i._ZN13Double_screen11setTextSizeEh)
    Double_screen::clearDisplay()            0x080043d1   Thumb Code    18  double_screen.o(i._ZN13Double_screen12clearDisplayEv)
    Double_screen::setTextColor(unsigned short) 0x080043ed   Thumb Code    26  double_screen.o(i._ZN13Double_screen12setTextColorEt)
    Double_screen::setTextColor(unsigned short, unsigned short) 0x08004411   Thumb Code    30  double_screen.o(i._ZN13Double_screen12setTextColorEtt)
    Double_screen::begin(unsigned char, unsigned char, bool) 0x08004439   Thumb Code    30  double_screen.o(i._ZN13Double_screen5beginEhhb)
    Double_screen::display()                 0x08004461   Thumb Code    18  double_screen.o(i._ZN13Double_screen7displayEv)
    Double_screen::drawLine(short, short, short, short, unsigned short) 0x0800447d   Thumb Code    96  double_screen.o(i._ZN13Double_screen8drawLineEsssst)
    Double_screen::printTop(const char*)     0x080044e5   Thumb Code     6  double_screen.o(i._ZN13Double_screen8printTopEPKc)
    Double_screen::drawPixel(short, short, unsigned short) 0x080044f1   Thumb Code    18  double_screen.o(i._ZN13Double_screen9drawPixelEsst)
    Double_screen::setCursor(short, short)   0x0800450d   Thumb Code    30  double_screen.o(i._ZN13Double_screen9setCursorEss)
    Double_screen::Double_screen()           0x08004535   Thumb Code    36  double_screen.o(i._ZN13Double_screenC1Ev)
    Double_screen::Double_screen__sub_object() 0x08004535   Thumb Code     0  double_screen.o(i._ZN13Double_screenC1Ev)
    Adafruit_SSD1306::stopscroll()           0x08004559   Thumb Code     6  adafruit_ssd1306.o(i._ZN16Adafruit_SSD130610stopscrollEv)
    Adafruit_SSD1306::clearDisplay()         0x0800455f   Thumb Code    14  adafruit_ssd1306.o(i._ZN16Adafruit_SSD130612clearDisplayEv)
    Adafruit_SSD1306::ssd1306_data(unsigned short) 0x0800456d   Thumb Code    54  adafruit_ssd1306.o(i._ZN16Adafruit_SSD130612ssd1306_dataEt)
    Adafruit_SSD1306::drawFastHLine(short, short, short, unsigned short) 0x080045a9   Thumb Code   418  adafruit_ssd1306.o(i._ZN16Adafruit_SSD130613drawFastHLineEssst)
    Adafruit_SSD1306::drawFastVLine(short, short, short, unsigned short) 0x08004755   Thumb Code   408  adafruit_ssd1306.o(i._ZN16Adafruit_SSD130613drawFastVLineEssst)
    Adafruit_SSD1306::invertDisplay(unsigned char) 0x080048f5   Thumb Code    12  adafruit_ssd1306.o(i._ZN16Adafruit_SSD130613invertDisplayEh)
    Adafruit_SSD1306::ssd1306_command(unsigned char) 0x08004901   Thumb Code    34  adafruit_ssd1306.o(i._ZN16Adafruit_SSD130615ssd1306_commandEh)
    Adafruit_SSD1306::startscrollleft(unsigned char, unsigned char) 0x08004929   Thumb Code    74  adafruit_ssd1306.o(i._ZN16Adafruit_SSD130615startscrollleftEhh)
    Adafruit_SSD1306::startscrollright(unsigned char, unsigned char) 0x08004973   Thumb Code    74  adafruit_ssd1306.o(i._ZN16Adafruit_SSD130616startscrollrightEhh)
    Adafruit_SSD1306::startscrolldiagleft(unsigned char, unsigned char) 0x080049bd   Thumb Code    90  adafruit_ssd1306.o(i._ZN16Adafruit_SSD130619startscrolldiagleftEhh)
    Adafruit_SSD1306::startscrolldiagright(unsigned char, unsigned char) 0x08004a17   Thumb Code    90  adafruit_ssd1306.o(i._ZN16Adafruit_SSD130620startscrolldiagrightEhh)
    Adafruit_SSD1306::dim(bool)              0x08004a71   Thumb Code    42  adafruit_ssd1306.o(i._ZN16Adafruit_SSD13063dimEb)
    Adafruit_SSD1306::begin(unsigned char, unsigned char, bool) 0x08004a9b   Thumb Code   236  adafruit_ssd1306.o(i._ZN16Adafruit_SSD13065beginEhhb)
    Adafruit_SSD1306::memset(unsigned char*, unsigned short, unsigned short) 0x08004b87   Thumb Code    16  adafruit_ssd1306.o(i._ZN16Adafruit_SSD13066memsetEPhtt)
    Adafruit_SSD1306::printf(const char*)    0x08004b99   Thumb Code   106  adafruit_ssd1306.o(i._ZN16Adafruit_SSD13066printfEPKc)
    Adafruit_SSD1306::display()              0x08004c09   Thumb Code    74  adafruit_ssd1306.o(i._ZN16Adafruit_SSD13067displayEv)
    Adafruit_SSD1306::drawPixel(short, short, unsigned short) 0x08004c53   Thumb Code   208  adafruit_ssd1306.o(i._ZN16Adafruit_SSD13069drawPixelEsst)
    Adafruit_SSD1306::Adafruit_SSD1306(__I2C_HandleTypeDef*, signed char) 0x08004d25   Thumb Code    58  adafruit_ssd1306.o(i._ZN16Adafruit_SSD1306C1EP19__I2C_HandleTypeDefa)
    Adafruit_SSD1306::Adafruit_SSD1306__sub_object(__I2C_HandleTypeDef*, signed char) 0x08004d25   Thumb Code     0  adafruit_ssd1306.o(i._ZN16Adafruit_SSD1306C1EP19__I2C_HandleTypeDefa)
    Adafruit_GFX::getRotation() const        0x080060f5   Thumb Code     4  adafruit_gfx.o(i._ZNK12Adafruit_GFX11getRotationEv)
    Adafruit_GFX::width() const              0x080060f9   Thumb Code     6  adafruit_gfx.o(i._ZNK12Adafruit_GFX5widthEv)
    Adafruit_GFX::height() const             0x080060ff   Thumb Code     6  adafruit_gfx.o(i._ZNK12Adafruit_GFX6heightEv)
    std::type_info::operator ==(const std::type_info&) const 0x08006105   Thumb Code    32  type_info_eq.o(i._ZNKSt9type_infoeqERKS_)
    std::type_info::operator !=(const std::type_info&) const 0x08006125   Thumb Code    32  type_info_ne.o(i._ZNKSt9type_infoneERKS_)
    std::bad_typeid::bad_typeid(const std::bad_typeid&) 0x08006145   Thumb Code    12  bad_typeid.o(i._ZNSt10bad_typeidC1ERKS_)
    std::bad_typeid::bad_typeid__sub_object(const std::bad_typeid&) 0x08006145   Thumb Code     0  bad_typeid.o(i._ZNSt10bad_typeidC1ERKS_)
    std::bad_typeid::bad_typeid()            0x08006155   Thumb Code    12  bad_typeid.o(i._ZNSt10bad_typeidC1Ev)
    std::bad_typeid::bad_typeid__sub_object() 0x08006155   Thumb Code     0  bad_typeid.o(i._ZNSt10bad_typeidC1Ev)
    std::bad_typeid::~bad_typeid__deallocating() 0x08006165   Thumb Code    14  bad_typeid.o(i._ZNSt10bad_typeidD0Ev)
    std::bad_typeid::~bad_typeid()           0x08006173   Thumb Code     8  bad_typeid.o(i._ZNSt10bad_typeidD1Ev)
    std::bad_typeid::~bad_typeid__sub_object() 0x08006173   Thumb Code     0  bad_typeid.o(i._ZNSt10bad_typeidD1Ev)
    std::bad_exception::bad_exception(const std::bad_exception&) 0x0800617d   Thumb Code    12  bad_exception_cctor.o(i._ZNSt13bad_exceptionC1ERKS_)
    std::bad_exception::bad_exception__sub_object(const std::bad_exception&) 0x0800617d   Thumb Code     0  bad_exception_cctor.o(i._ZNSt13bad_exceptionC1ERKS_)
    std::bad_exception::bad_exception()      0x0800618d   Thumb Code    12  bad_exception_ctor.o(i._ZNSt13bad_exceptionC1Ev)
    std::bad_exception::bad_exception__sub_object() 0x0800618d   Thumb Code     0  bad_exception_ctor.o(i._ZNSt13bad_exceptionC1Ev)
    std::bad_exception::~bad_exception__deallocating() 0x0800619d   Thumb Code    14  bad_exception_dtor.o(i._ZNSt13bad_exceptionD0Ev)
    std::bad_exception::~bad_exception()     0x080061ab   Thumb Code     8  bad_exception_dtor.o(i._ZNSt13bad_exceptionD1Ev)
    std::bad_exception::~bad_exception__sub_object() 0x080061ab   Thumb Code     0  bad_exception_dtor.o(i._ZNSt13bad_exceptionD1Ev)
    std::bad_alloc::bad_alloc(const std::bad_alloc&) 0x080061b5   Thumb Code    12  bad_alloc_cctor.o(i._ZNSt9bad_allocC1ERKS_)
    std::bad_alloc::bad_alloc__sub_object(const std::bad_alloc&) 0x080061b5   Thumb Code     0  bad_alloc_cctor.o(i._ZNSt9bad_allocC1ERKS_)
    std::bad_alloc::bad_alloc()              0x080061c5   Thumb Code    12  bad_alloc_ctor.o(i._ZNSt9bad_allocC1Ev)
    std::bad_alloc::bad_alloc__sub_object()  0x080061c5   Thumb Code     0  bad_alloc_ctor.o(i._ZNSt9bad_allocC1Ev)
    std::bad_alloc::~bad_alloc__deallocating() 0x080061d5   Thumb Code    14  bad_alloc_dtor.o(i._ZNSt9bad_allocD0Ev)
    std::bad_alloc::~bad_alloc()             0x080061e3   Thumb Code     8  bad_alloc_dtor.o(i._ZNSt9bad_allocD1Ev)
    std::bad_alloc::~bad_alloc__sub_object() 0x080061e3   Thumb Code     0  bad_alloc_dtor.o(i._ZNSt9bad_allocD1Ev)
    std::exception::exception(const std::exception&) 0x080061ed   Thumb Code     6  exception_cctor.o(i._ZNSt9exceptionC1ERKS_)
    std::exception::exception__sub_object(const std::exception&) 0x080061ed   Thumb Code     0  exception_cctor.o(i._ZNSt9exceptionC1ERKS_)
    std::exception::exception()              0x080061f9   Thumb Code     6  exception_ctor.o(i._ZNSt9exceptionC1Ev)
    std::exception::exception__sub_object()  0x080061f9   Thumb Code     0  exception_ctor.o(i._ZNSt9exceptionC1Ev)
    operator delete[] (void*)                0x08006205   Thumb Code     8  array_del.o(i._ZdaPv)
    operator delete (void*)                  0x0800620d   Thumb Code     8  delete.o(i._ZdlPv)
    operator new[] (unsigned)                0x08006215   Thumb Code     8  array_new.o(i._Znaj)
    operator new(unsigned)                   0x0800621d   Thumb Code    34  new.o(i._Znwj)
    __ARM_array_new_general                  0x08006245   Thumb Code   146  array_new_general.o(i.__ARM_array_new_general)
    __ARM_common_get_typeid                  0x080062e3   Thumb Code    32  arm_exceptions_throw.o(i.__ARM_common_get_typeid)
    __ARM_vec_cleanup                        0x08006303   Thumb Code    44  ARM_vec_cleanup.o(i.__ARM_vec_cleanup)
    __ARM_vec_cleanup_rethrow                0x08006337   Thumb Code    44  ARM_vec_cleanup_rethrow.o(i.__ARM_vec_cleanup_rethrow)
    __aeabi_vec_delete                       0x0800636b   Thumb Code    34  aeabi_vec_delete.o(i.__aeabi_vec_delete)
    __aeabi_vec_dtor                         0x08006395   Thumb Code    58  aeabi_vec_dtor.o(i.__aeabi_vec_dtor)
    __aeabi_vec_dtor_cookie                  0x080063d7   Thumb Code    16  aeabi_vec_dtor_cookie.o(i.__aeabi_vec_dtor_cookie)
    __aeabi_vec_new_cookie                   0x080063e7   Thumb Code    20  aeabi_vec_new_cookie.o(i.__aeabi_vec_new_cookie)
    __cxa_pure_virtual                       0x080063fb   Thumb Code     6  pure_virt.o(i.__cxa_pure_virtual)
    __cxa_vec_new                            0x08006401   Thumb Code    18  cxa_vec_new.o(i.__cxa_vec_new)
    __derived_to_base_conversion             0x08006419   Thumb Code   106  rtti.o(i.__derived_to_base_conversion)
    __dynamic_cast                           0x08006489   Thumb Code   170  rtti.o(i.__dynamic_cast)
    main                                     0x08006575   Thumb Code   142  main.o(i.main)
    Vector<Vector<int>>::at(int)             0x08006625   Thumb Code    38  snake_game.o(t._ZN6VectorIS_IiEE2atEi)
    Vector<Vector<int>>::reserve(int)        0x08006651   Thumb Code    86  snake_game.o(t._ZN6VectorIS_IiEE7reserveEi)
    Vector<Vector<int>>::~Vector()           0x080066b5   Thumb Code    16  main.o(t._ZN6VectorIS_IiEED1Ev)
    Vector<Vector<int>>::~Vector__sub_object() 0x080066b5   Thumb Code     0  main.o(t._ZN6VectorIS_IiEED1Ev)
    Vector<int>::back()                      0x080066c9   Thumb Code    14  snake_game.o(t._ZN6VectorIiE4backEv)
    Vector<int>::reserve(int)                0x080066d7   Thumb Code    64  snake_game.o(t._ZN6VectorIiE7reserveEi)
    Vector<int>::push_back(const int&)       0x08006717   Thumb Code    46  snake_game.o(t._ZN6VectorIiE9push_backERKi)
    Vector<int>::Vector()                    0x08006745   Thumb Code    10  snake_game.o(t._ZN6VectorIiEC1Ev)
    Vector<int>::Vector__sub_object()        0x08006745   Thumb Code     0  snake_game.o(t._ZN6VectorIiEC1Ev)
    Vector<int>::~Vector()                   0x0800674f   Thumb Code    14  main.o(t._ZN6VectorIiED1Ev)
    Vector<int>::~Vector__sub_object()       0x0800674f   Thumb Code     0  main.o(t._ZN6VectorIiED1Ev)
    Vector<int>::operator =(const Vector<int>&) 0x0800675d   Thumb Code    96  snake_game.o(t._ZN6VectorIiEaSERKS0_)
    _fp_init                                 0x080067bd   Thumb Code    10  fpinit.o(x$fpl$fpinit)
    __fplib_config_fpu_vfp                   0x080067c5   Thumb Code     0  fpinit.o(x$fpl$fpinit)
    __fplib_config_pureend_doubles           0x080067c5   Thumb Code     0  fpinit.o(x$fpl$fpinit)
    AHBPrescTable                            0x08006f28   Data          16  system_stm32f4xx.o(.constdata)
    APBPrescTable                            0x08006f38   Data           8  system_stm32f4xx.o(.constdata)
    typeinfo for out_of_range                0x08006f4c   Data           8  snake_game.o(.constdata__ZTI12out_of_range)
    typeinfo for __cxxabiv1::__class_type_info 0x08006f54   Data          12  lib_rtti_impl.o(.constdata__ZTIN10__cxxabiv117__class_type_infoE)
    typeinfo for __cxxabiv1::__pbase_type_info 0x08006f60   Data          12  lib_rtti_impl.o(.constdata__ZTIN10__cxxabiv117__pbase_type_infoE)
    typeinfo for __cxxabiv1::__pointer_type_info 0x08006f6c   Data          12  lib_rtti_impl.o(.constdata__ZTIN10__cxxabiv119__pointer_type_infoE)
    typeinfo for __cxxabiv1::__si_class_type_info 0x08006f78   Data          12  lib_rtti_impl.o(.constdata__ZTIN10__cxxabiv120__si_class_type_infoE)
    typeinfo for __cxxabiv1::__vmi_class_type_info 0x08006f84   Data          12  lib_rtti_impl.o(.constdata__ZTIN10__cxxabiv121__vmi_class_type_infoE)
    typeinfo for __cxxabiv1::__fundamental_type_info 0x08006f90   Data          12  lib_rtti_impl.o(.constdata__ZTIN10__cxxabiv123__fundamental_type_infoE)
    typeinfo for std::bad_typeid             0x08006f9c   Data          12  bad_typeid.o(.constdata__ZTISt10bad_typeid)
    typeinfo for std::bad_exception          0x08006fa8   Data          12  bad_exception_dtor.o(.constdata__ZTISt13bad_exception)
    typeinfo for std::bad_alloc              0x08006fb4   Data          12  bad_alloc_dtor.o(.constdata__ZTISt9bad_alloc)
    typeinfo for std::exception              0x08006fc0   Data           8  exception_dtor.o(.constdata__ZTISt9exception)
    typeinfo for std::type_info              0x08006fc8   Data           8  type_info_dtor.o(.constdata__ZTISt9type_info)
    typeinfo for void                        0x08006fd0   Data           8  arm_exceptions_throw.o(.constdata__ZTIv)
    typeinfo name for out_of_range           0x08006fd8   Data          15  snake_game.o(.constdata__ZTS12out_of_range)
    typeinfo name for __cxxabiv1::__class_type_info 0x08006fe7   Data          34  lib_rtti_impl.o(.constdata__ZTSN10__cxxabiv117__class_type_infoE)
    typeinfo name for __cxxabiv1::__pbase_type_info 0x08007009   Data          34  lib_rtti_impl.o(.constdata__ZTSN10__cxxabiv117__pbase_type_infoE)
    typeinfo name for __cxxabiv1::__pointer_type_info 0x0800702b   Data          36  lib_rtti_impl.o(.constdata__ZTSN10__cxxabiv119__pointer_type_infoE)
    typeinfo name for __cxxabiv1::__si_class_type_info 0x0800704f   Data          37  lib_rtti_impl.o(.constdata__ZTSN10__cxxabiv120__si_class_type_infoE)
    typeinfo name for __cxxabiv1::__vmi_class_type_info 0x08007074   Data          38  lib_rtti_impl.o(.constdata__ZTSN10__cxxabiv121__vmi_class_type_infoE)
    typeinfo name for __cxxabiv1::__fundamental_type_info 0x0800709a   Data          40  lib_rtti_impl.o(.constdata__ZTSN10__cxxabiv123__fundamental_type_infoE)
    typeinfo name for std::bad_typeid        0x080070c2   Data          15  bad_typeid.o(.constdata__ZTSSt10bad_typeid)
    typeinfo name for std::bad_exception     0x080070d1   Data          18  bad_exception_dtor.o(.constdata__ZTSSt13bad_exception)
    typeinfo name for std::bad_alloc         0x080070e3   Data          13  bad_alloc_dtor.o(.constdata__ZTSSt9bad_alloc)
    typeinfo name for std::exception         0x080070f0   Data          13  exception_dtor.o(.constdata__ZTSSt9exception)
    typeinfo name for std::type_info         0x080070fd   Data          13  type_info_dtor.o(.constdata__ZTSSt9type_info)
    typeinfo name for void                   0x0800710a   Data           2  arm_exceptions_throw.o(.constdata__ZTSv)
    vtable for Adafruit_GFX                  0x0800710c   Data          40  adafruit_gfx.o(.constdata__ZTV12Adafruit_GFX)
    vtable for Adafruit_SSD1306              0x08007134   Data          40  adafruit_ssd1306.o(.constdata__ZTV16Adafruit_SSD1306)
    vtable for __cxxabiv1::__class_type_info 0x0800715c   Data          16  lib_rtti_impl.o(.constdata__ZTVN10__cxxabiv117__class_type_infoE)
    vtable for __cxxabiv1::__si_class_type_info 0x0800716c   Data          16  lib_rtti_impl.o(.constdata__ZTVN10__cxxabiv120__si_class_type_infoE)
    vtable for __cxxabiv1::__fundamental_type_info 0x0800717c   Data          16  lib_rtti_impl.o(.constdata__ZTVN10__cxxabiv123__fundamental_type_infoE)
    vtable for std::bad_typeid               0x0800718c   Data          20  bad_typeid.o(.constdata__ZTVSt10bad_typeid)
    vtable for std::bad_exception            0x080071a0   Data          20  bad_exception_dtor.o(.constdata__ZTVSt13bad_exception)
    vtable for std::bad_alloc                0x080071b4   Data          20  bad_alloc_dtor.o(.constdata__ZTVSt9bad_alloc)
    vtable for std::exception                0x080071c8   Data          20  exception_dtor.o(.constdata__ZTVSt9exception)
    Region$$Table$$Base                      0x080071dc   Number         0  anon$$obj.o(Region$$Table)
    Region$$Table$$Limit                     0x080071fc   Number         0  anon$$obj.o(Region$$Table)
    SHT$$INIT_ARRAY$$Base                    0x080071fc   Number         0  main.o(.init_array)
    SHT$$ARM_EXIDX$$Base                     0x08007204   Number         0  __rtentry4.o(.ARM.exidx)
    SHT$$INIT_ARRAY$$Limit                   0x08007204   Number         0  init_aeabi.o(.init_array)
    SHT$$ARM_EXIDX$$Limit                    0x0800761c   Number         0  snake_game.o(.ARM.exidx)
    Buffer_CMD                               0x20000000   Data           2  adafruit_ssd1306.o(.data)
    Buffer_DATA                              0x20000002   Data         129  adafruit_ssd1306.o(.data)
    uwTickFreq                               0x20000284   Data           1  stm32f4xx_hal.o(.data)
    uwTickPrio                               0x20000288   Data           4  stm32f4xx_hal.o(.data)
    uwTick                                   0x2000028c   Data           4  stm32f4xx_hal.o(.data)
    SystemCoreClock                          0x20000290   Data           4  system_stm32f4xx.o(.data)
    Adafruit_SSD1306::drawFastVLineInternal(short, short, short, unsigned short)::premask 0x20000294   Data           8  adafruit_ssd1306.o(.data__ZZN16Adafruit_SSD130621drawFastVLineInternalEssstE7premask)
    Adafruit_SSD1306::drawFastVLineInternal(short, short, short, unsigned short)::postmask 0x2000029c   Data           8  adafruit_ssd1306.o(.data__ZZN16Adafruit_SSD130621drawFastVLineInternalEssstE8postmask)
    hi2c1                                    0x200002a4   Data          84  main.o(.bss)
    hi2c2                                    0x200002f8   Data          84  main.o(.bss)
    mydoubleScreen                           0x2000034c   Data          26  main.o(.bss)
    lcd_top                                  0x20000368   Data         548  double_screen.o(.bss)
    lcd_bottom                               0x2000058c   Data         548  double_screen.o(.bss)
    __libspace_start                         0x200007b0   Data          96  libspace.o(.bss)
    __temporary_stack_top$libspace           0x20000810   Data           0  libspace.o(.bss)



==============================================================================

Memory Map of the image

  Image Entry point : 0x08000189

  Load Region LR_IROM1 (Base: 0x08000000, Size: 0x000078c0, Max: 0x00100000, ABSOLUTE, COMPRESSED[0x00007720])

    Execution Region ER_IROM1 (Exec base: 0x08000000, Load base: 0x08000000, Size: 0x0000761c, Max: 0x00100000, ABSOLUTE)

    Exec Addr    Load Addr    Size         Type   Attr      Idx    E Section Name        Object

    0x08000000   0x08000000   0x00000188   Data   RO            3    RESET               startup_stm32f407xx.o
    0x08000188   0x08000188   0x00000008   Code   RO         3312  * !!!main             c_w.l(__main.o)
    0x08000190   0x08000190   0x00000034   Code   RO         3996    !!!scatter          c_w.l(__scatter.o)
    0x080001c4   0x080001c4   0x0000005a   Code   RO         3994    !!dczerorl2         c_w.l(__dczerorl2.o)
    0x0800021e   0x0800021e   0x00000002   PAD
    0x08000220   0x08000220   0x0000001c   Code   RO         3998    !!handler_zi        c_w.l(__scatter_zi.o)
    0x0800023c   0x0800023c   0x00000002   Code   RO         3910    .ARM.Collect$$libinit$$00000000  c_w.l(libinit.o)
    0x0800023e   0x0800023e   0x00000004   Code   RO         3547    .ARM.Collect$$libinit$$00000001  c_w.l(libinit2.o)
    0x08000242   0x08000242   0x00000000   Code   RO         3550    .ARM.Collect$$libinit$$00000004  c_w.l(libinit2.o)
    0x08000242   0x08000242   0x00000008   Code   RO         3551    .ARM.Collect$$libinit$$00000005  c_w.l(libinit2.o)
    0x0800024a   0x0800024a   0x00000000   Code   RO         3553    .ARM.Collect$$libinit$$0000000A  c_w.l(libinit2.o)
    0x0800024a   0x0800024a   0x00000000   Code   RO         3555    .ARM.Collect$$libinit$$0000000C  c_w.l(libinit2.o)
    0x0800024a   0x0800024a   0x00000000   Code   RO         3557    .ARM.Collect$$libinit$$0000000E  c_w.l(libinit2.o)
    0x0800024a   0x0800024a   0x00000000   Code   RO         3560    .ARM.Collect$$libinit$$00000011  c_w.l(libinit2.o)
    0x0800024a   0x0800024a   0x00000000   Code   RO         3562    .ARM.Collect$$libinit$$00000013  c_w.l(libinit2.o)
    0x0800024a   0x0800024a   0x00000000   Code   RO         3564    .ARM.Collect$$libinit$$00000015  c_w.l(libinit2.o)
    0x0800024a   0x0800024a   0x00000000   Code   RO         3566    .ARM.Collect$$libinit$$00000017  c_w.l(libinit2.o)
    0x0800024a   0x0800024a   0x00000000   Code   RO         3568    .ARM.Collect$$libinit$$00000019  c_w.l(libinit2.o)
    0x0800024a   0x0800024a   0x00000000   Code   RO         3570    .ARM.Collect$$libinit$$0000001B  c_w.l(libinit2.o)
    0x0800024a   0x0800024a   0x00000000   Code   RO         3572    .ARM.Collect$$libinit$$0000001D  c_w.l(libinit2.o)
    0x0800024a   0x0800024a   0x00000000   Code   RO         3574    .ARM.Collect$$libinit$$0000001F  c_w.l(libinit2.o)
    0x0800024a   0x0800024a   0x00000000   Code   RO         3576    .ARM.Collect$$libinit$$00000021  c_w.l(libinit2.o)
    0x0800024a   0x0800024a   0x00000000   Code   RO         3578    .ARM.Collect$$libinit$$00000023  c_w.l(libinit2.o)
    0x0800024a   0x0800024a   0x00000000   Code   RO         3580    .ARM.Collect$$libinit$$00000025  c_w.l(libinit2.o)
    0x0800024a   0x0800024a   0x00000000   Code   RO         3584    .ARM.Collect$$libinit$$0000002C  c_w.l(libinit2.o)
    0x0800024a   0x0800024a   0x00000000   Code   RO         3586    .ARM.Collect$$libinit$$0000002E  c_w.l(libinit2.o)
    0x0800024a   0x0800024a   0x00000000   Code   RO         3588    .ARM.Collect$$libinit$$00000030  c_w.l(libinit2.o)
    0x0800024a   0x0800024a   0x00000004   Code   RO         3589    .ARM.Collect$$libinit$$00000031  c_w.l(libinit2.o)
    0x0800024e   0x0800024e   0x00000000   Code   RO         3590    .ARM.Collect$$libinit$$00000032  c_w.l(libinit2.o)
    0x0800024e   0x0800024e   0x00000002   Code   RO         3591    .ARM.Collect$$libinit$$00000033  c_w.l(libinit2.o)
    0x08000250   0x08000250   0x00000002   Code   RO         3991    .ARM.Collect$$libshutdown$$00000000  c_w.l(libshutdown.o)
    0x08000252   0x08000252   0x00000000   Code   RO         3974    .ARM.Collect$$libshutdown$$00000002  c_w.l(libshutdown2.o)
    0x08000252   0x08000252   0x00000000   Code   RO         3976    .ARM.Collect$$libshutdown$$00000004  c_w.l(libshutdown2.o)
    0x08000252   0x08000252   0x00000000   Code   RO         3979    .ARM.Collect$$libshutdown$$00000007  c_w.l(libshutdown2.o)
    0x08000252   0x08000252   0x00000000   Code   RO         3982    .ARM.Collect$$libshutdown$$0000000A  c_w.l(libshutdown2.o)
    0x08000252   0x08000252   0x00000000   Code   RO         3984    .ARM.Collect$$libshutdown$$0000000C  c_w.l(libshutdown2.o)
    0x08000252   0x08000252   0x00000000   Code   RO         3987    .ARM.Collect$$libshutdown$$0000000F  c_w.l(libshutdown2.o)
    0x08000252   0x08000252   0x00000002   Code   RO         3988    .ARM.Collect$$libshutdown$$00000010  c_w.l(libshutdown2.o)
    0x08000254   0x08000254   0x00000000   Code   RO         3482    .ARM.Collect$$rtentry$$00000000  c_w.l(__rtentry.o)
    0x08000254   0x08000254   0x00000000   Code   RO         3722    .ARM.Collect$$rtentry$$00000002  c_w.l(__rtentry2.o)
    0x08000254   0x08000254   0x00000006   Code   RO         3734    .ARM.Collect$$rtentry$$00000004  c_w.l(__rtentry4.o)
    0x0800025a   0x0800025a   0x00000000   Code   RO         3724    .ARM.Collect$$rtentry$$00000009  c_w.l(__rtentry2.o)
    0x0800025a   0x0800025a   0x00000004   Code   RO         3725    .ARM.Collect$$rtentry$$0000000A  c_w.l(__rtentry2.o)
    0x0800025e   0x0800025e   0x00000000   Code   RO         3727    .ARM.Collect$$rtentry$$0000000C  c_w.l(__rtentry2.o)
    0x0800025e   0x0800025e   0x00000008   Code   RO         3728    .ARM.Collect$$rtentry$$0000000D  c_w.l(__rtentry2.o)
    0x08000266   0x08000266   0x00000002   Code   RO         3940    .ARM.Collect$$rtexit$$00000000  c_w.l(rtexit.o)
    0x08000268   0x08000268   0x00000000   Code   RO         3953    .ARM.Collect$$rtexit$$00000002  c_w.l(rtexit2.o)
    0x08000268   0x08000268   0x00000004   Code   RO         3954    .ARM.Collect$$rtexit$$00000003  c_w.l(rtexit2.o)
    0x0800026c   0x0800026c   0x00000006   Code   RO         3955    .ARM.Collect$$rtexit$$00000004  c_w.l(rtexit2.o)
    0x08000272   0x08000272   0x00000002   PAD
    0x08000274   0x08000274   0x00000020   Code   RO         3457    .emb_text           cpprt_w.l(arm_exceptions_cleanup.o)
    0x08000294   0x08000294   0x0000007c   Code   RO         3709    .emb_text           cpprt_w.l(unwinder.o)
    0x08000310   0x08000310   0x00000004   Code   RO         3717    .emb_text           cpprt_w.l(unwind_activity.o)
    0x08000314   0x08000314   0x00000000   Code   RO         3874    .emb_text           c_w.l(maybetermalloc1.o)
    0x08000314   0x08000314   0x00000040   Code   RO            4    .text               startup_stm32f407xx.o
    0x08000354   0x08000354   0x000000ee   Code   RO         3306    .text               c_w.l(lludivv7m.o)
    0x08000442   0x08000442   0x0000004e   Code   RO         3308    .text               c_w.l(rt_memclr_w.o)
    0x08000490   0x08000490   0x00000006   Code   RO         3310    .text               c_w.l(heapauxi.o)
    0x08000496   0x08000496   0x00000002   PAD
    0x08000498   0x08000498   0x00000024   Code   RO         3317    .text               c_w.l(init_aeabi.o)
    0x080004bc   0x080004bc   0x00000060   Code   RO         3445    .text               cpprt_w.l(arm_exceptions_alloc.o)
    0x0800051c   0x0800051c   0x000000d0   Code   RO         3448    .text               cpprt_w.l(arm_exceptions_callunex.o)
    0x080005ec   0x080005ec   0x00000038   Code   RO         3454    .text               cpprt_w.l(arm_exceptions_callterm.o)
    0x08000624   0x08000624   0x0000007c   Code   RO         3459    .text               cpprt_w.l(arm_exceptions_cleanup.o)
    0x080006a0   0x080006a0   0x00000190   Code   RO         3463    .text               cpprt_w.l(arm_exceptions_throw.o)
    0x08000830   0x08000830   0x00000006   Code   RO         3476    .text               cpprt_w.l(unwind_pr0.o)
    0x08000836   0x08000836   0x00000006   Code   RO         3479    .text               cpprt_w.l(unwind_pr1.o)
    0x0800083c   0x0800083c   0x0000005e   Code   RO         3489    .text               c_w.l(h1_alloc.o)
    0x0800089a   0x0800089a   0x0000000e   Code   RO         3543    .text               c_w.l(defsig_pvfn_outer.o)
    0x080008a8   0x080008a8   0x00000022   Code   RO         3675    .text               cpprt_w.l(arm_exceptions_free.o)
    0x080008ca   0x080008ca   0x0000001a   Code   RO         3678    .text               cpprt_w.l(arm_exceptions_terminate.o)
    0x080008e4   0x080008e4   0x0000003c   Code   RO         3681    .text               cpprt_w.l(arm_exceptions_mem.o)
    0x08000920   0x08000920   0x0000002c   Code   RO         3684    .text               cpprt_w.l(arm_exceptions_support.o)
    0x0800094c   0x0800094c   0x00000052   Code   RO         3688    .text               cpprt_w.l(arm_exceptions_rethrow.o)
    0x0800099e   0x0800099e   0x0000004a   Code   RO         3691    .text               cpprt_w.l(arm_exceptions_endcatch.o)
    0x080009e8   0x080009e8   0x00000048   Code   RO         3694    .text               cpprt_w.l(arm_exceptions_begincatch.o)
    0x08000a30   0x08000a30   0x00000030   Code   RO         3697    .text               cpprt_w.l(arm_exceptions_bad_typeid.o)
    0x08000a60   0x08000a60   0x0000001e   Code   RO         3700    .text               cpprt_w.l(arm_exceptions_unexpected.o)
    0x08000a7e   0x08000a7e   0x00000042   Code   RO         3703    .text               cpprt_w.l(arm_exceptions_foreign.o)
    0x08000ac0   0x08000ac0   0x00000050   Code   RO         3706    .text               cpprt_w.l(arm_exceptions_globs.o)
    0x08000b10   0x08000b10   0x000003cc   Code   RO         3710    .text               cpprt_w.l(unwinder.o)
    0x08000edc   0x08000edc   0x000005f8   Code   RO         3714    .text               cpprt_w.l(unwind_prcommon.o)
    0x080014d4   0x080014d4   0x00000008   Code   RO         3743    .text               c_w.l(rt_heap_descriptor_intlibspace.o)
    0x080014dc   0x080014dc   0x00000008   Code   RO         3748    .text               c_w.l(rt_new_handler_addr_intlibspace.o)
    0x080014e4   0x080014e4   0x00000008   Code   RO         3753    .text               c_w.l(rt_eh_globals_addr_intlibspace.o)
    0x080014ec   0x080014ec   0x00000004   Code   RO         3755    .text               c_w.l(hguard.o)
    0x080014f0   0x080014f0   0x0000008a   Code   RO         3757    .text               c_w.l(init_alloc.o)
    0x0800157a   0x0800157a   0x0000000e   Code   RO         3763    .text               c_w.l(h1_init.o)
    0x08001588   0x08001588   0x0000004e   Code   RO         3765    .text               c_w.l(h1_free.o)
    0x080015d6   0x080015d6   0x00000016   Code   RO         3781    .text               c_w.l(abort.o)
    0x080015ec   0x080015ec   0x00000050   Code   RO         3783    .text               c_w.l(bsearch.o)
    0x0800163c   0x0800163c   0x0000000a   Code   RO         3786    .text               c_w.l(defsig_exit.o)
    0x08001646   0x08001646   0x00000002   PAD
    0x08001648   0x08001648   0x00000030   Code   RO         3788    .text               c_w.l(defsig_pvfn_inner.o)
    0x08001678   0x08001678   0x00000064   Code   RO         3790    .text               c_w.l(rt_memcpy_w.o)
    0x080016dc   0x080016dc   0x0000000e   Code   RO         3858    .text               cpprt_w.l(unwind_delete.o)
    0x080016ea   0x080016ea   0x00000002   PAD
    0x080016ec   0x080016ec   0x0000000c   Code   RO         3865    .text               c_w.l(sys_exit.o)
    0x080016f8   0x080016f8   0x00000008   Code   RO         3867    .text               c_w.l(libspace.o)
    0x08001700   0x08001700   0x0000004a   Code   RO         3870    .text               c_w.l(sys_stackheap_outer.o)
    0x0800174a   0x0800174a   0x00000034   Code   RO         3876    .text               c_w.l(h1_extend.o)
    0x0800177e   0x0800177e   0x00000012   Code   RO         3880    .text               c_w.l(exit.o)
    0x08001790   0x08001790   0x00000032   Code   RO         3884    .text               c_w.l(defsig_general.o)
    0x080017c2   0x080017c2   0x0000000e   Code   RO         3886    .text               c_w.l(defsig_abrt_outer.o)
    0x080017d0   0x080017d0   0x0000000e   Code   RO         3894    .text               c_w.l(defsig_rtmem_outer.o)
    0x080017de   0x080017de   0x0000000e   Code   RO         3935    .text               c_w.l(sys_wrch.o)
    0x080017ec   0x080017ec   0x00000002   Code   RO         3937    .text               c_w.l(use_no_semi.o)
    0x080017ee   0x080017ee   0x00000000   Code   RO         3939    .text               c_w.l(indicate_semi.o)
    0x080017ee   0x080017ee   0x00000002   PAD
    0x080017f0   0x080017f0   0x00000030   Code   RO         3944    .text               c_w.l(defsig_abrt_inner.o)
    0x08001820   0x08001820   0x00000050   Code   RO         3948    .text               c_w.l(defsig_rtmem_inner.o)
    0x08001870   0x08001870   0x0000000c   Code   RO         3449    .text.clean         cpprt_w.l(arm_exceptions_callunex.o)
    0x0800187c   0x0800187c   0x00000008   Code   RO         3464    .text.clean         cpprt_w.l(arm_exceptions_throw.o)
    0x08001884   0x08001884   0x00000002   Code   RO          742    i.BusFault_Handler  stm32f4xx_it.o
    0x08001886   0x08001886   0x00000002   Code   RO          743    i.DebugMon_Handler  stm32f4xx_it.o
    0x08001888   0x08001888   0x00000024   Code   RO         2442    i.HAL_DMA_Abort_IT  stm32f4xx_hal_dma.o
    0x080018ac   0x080018ac   0x00000004   Code   RO         2444    i.HAL_DMA_GetError  stm32f4xx_hal_dma.o
    0x080018b0   0x080018b0   0x00000006   Code   RO         2445    i.HAL_DMA_GetState  stm32f4xx_hal_dma.o
    0x080018b6   0x080018b6   0x00000046   Code   RO         2449    i.HAL_DMA_Start     stm32f4xx_hal_dma.o
    0x080018fc   0x080018fc   0x0000006e   Code   RO         2450    i.HAL_DMA_Start_IT  stm32f4xx_hal_dma.o
    0x0800196a   0x0800196a   0x00000002   PAD
    0x0800196c   0x0800196c   0x00000024   Code   RO         2932    i.HAL_Delay         stm32f4xx_hal.o
    0x08001990   0x08001990   0x000001b8   Code   RO         2319    i.HAL_GPIO_Init     stm32f4xx_hal_gpio.o
    0x08001b48   0x08001b48   0x0000000e   Code   RO         2322    i.HAL_GPIO_TogglePin  stm32f4xx_hal_gpio.o
    0x08001b56   0x08001b56   0x0000000a   Code   RO         2323    i.HAL_GPIO_WritePin  stm32f4xx_hal_gpio.o
    0x08001b60   0x08001b60   0x0000000c   Code   RO         2938    i.HAL_GetTick       stm32f4xx_hal.o
    0x08001b6c   0x08001b6c   0x0000000c   Code   RO         2939    i.HAL_GetTickFreq   stm32f4xx_hal.o
    0x08001b78   0x08001b78   0x0000000c   Code   RO         2940    i.HAL_GetTickPrio   stm32f4xx_hal.o
    0x08001b84   0x08001b84   0x00000002   Code   RO         1382    i.HAL_I2C_AbortCpltCallback  stm32f4xx_hal_i2c.o
    0x08001b86   0x08001b86   0x00000002   Code   RO         1383    i.HAL_I2C_AddrCallback  stm32f4xx_hal_i2c.o
    0x08001b88   0x08001b88   0x000000ba   Code   RO         1386    i.HAL_I2C_ER_IRQHandler  stm32f4xx_hal_i2c.o
    0x08001c42   0x08001c42   0x0000025a   Code   RO         1387    i.HAL_I2C_EV_IRQHandler  stm32f4xx_hal_i2c.o
    0x08001e9c   0x08001e9c   0x00000002   Code   RO         1389    i.HAL_I2C_ErrorCallback  stm32f4xx_hal_i2c.o
    0x08001e9e   0x08001e9e   0x00000002   PAD
    0x08001ea0   0x08001ea0   0x00000188   Code   RO         1393    i.HAL_I2C_Init      stm32f4xx_hal_i2c.o
    0x08002028   0x08002028   0x00000160   Code   RO         1394    i.HAL_I2C_IsDeviceReady  stm32f4xx_hal_i2c.o
    0x08002188   0x08002188   0x00000002   Code   RO         1395    i.HAL_I2C_ListenCpltCallback  stm32f4xx_hal_i2c.o
    0x0800218a   0x0800218a   0x00000002   Code   RO         1396    i.HAL_I2C_MasterRxCpltCallback  stm32f4xx_hal_i2c.o
    0x0800218c   0x0800218c   0x00000002   Code   RO         1397    i.HAL_I2C_MasterTxCpltCallback  stm32f4xx_hal_i2c.o
    0x0800218e   0x0800218e   0x00000056   Code   RO         1398    i.HAL_I2C_Master_Abort_IT  stm32f4xx_hal_i2c.o
    0x080021e4   0x080021e4   0x000001e4   Code   RO         1399    i.HAL_I2C_Master_Receive  stm32f4xx_hal_i2c.o
    0x080023c8   0x080023c8   0x0000014c   Code   RO         1400    i.HAL_I2C_Master_Receive_DMA  stm32f4xx_hal_i2c.o
    0x08002514   0x08002514   0x000001e0   Code   RO         1402    i.HAL_I2C_Master_Seq_Receive_DMA  stm32f4xx_hal_i2c.o
    0x080026f4   0x080026f4   0x00000190   Code   RO         1404    i.HAL_I2C_Master_Seq_Transmit_DMA  stm32f4xx_hal_i2c.o
    0x08002884   0x08002884   0x00000130   Code   RO         1406    i.HAL_I2C_Master_Transmit  stm32f4xx_hal_i2c.o
    0x080029b4   0x080029b4   0x0000014c   Code   RO         1407    i.HAL_I2C_Master_Transmit_DMA  stm32f4xx_hal_i2c.o
    0x08002b00   0x08002b00   0x00000002   Code   RO         1409    i.HAL_I2C_MemRxCpltCallback  stm32f4xx_hal_i2c.o
    0x08002b02   0x08002b02   0x00000002   Code   RO         1410    i.HAL_I2C_MemTxCpltCallback  stm32f4xx_hal_i2c.o
    0x08002b04   0x08002b04   0x000001f8   Code   RO         1411    i.HAL_I2C_Mem_Read  stm32f4xx_hal_i2c.o
    0x08002cfc   0x08002cfc   0x00000190   Code   RO         1412    i.HAL_I2C_Mem_Read_DMA  stm32f4xx_hal_i2c.o
    0x08002e8c   0x08002e8c   0x00000134   Code   RO         1414    i.HAL_I2C_Mem_Write  stm32f4xx_hal_i2c.o
    0x08002fc0   0x08002fc0   0x00000158   Code   RO         1415    i.HAL_I2C_Mem_Write_DMA  stm32f4xx_hal_i2c.o
    0x08003118   0x08003118   0x000000ac   Code   RO          884    i.HAL_I2C_MspInit   stm32f4xx_hal_msp.o
    0x080031c4   0x080031c4   0x00000002   Code   RO         1419    i.HAL_I2C_SlaveRxCpltCallback  stm32f4xx_hal_i2c.o
    0x080031c6   0x080031c6   0x00000002   Code   RO         1420    i.HAL_I2C_SlaveTxCpltCallback  stm32f4xx_hal_i2c.o
    0x080031c8   0x080031c8   0x0000016c   Code   RO         1421    i.HAL_I2C_Slave_Receive  stm32f4xx_hal_i2c.o
    0x08003334   0x08003334   0x000000d8   Code   RO         1422    i.HAL_I2C_Slave_Receive_DMA  stm32f4xx_hal_i2c.o
    0x0800340c   0x0800340c   0x0000014c   Code   RO         1424    i.HAL_I2C_Slave_Seq_Receive_DMA  stm32f4xx_hal_i2c.o
    0x08003558   0x08003558   0x0000014c   Code   RO         1426    i.HAL_I2C_Slave_Seq_Transmit_DMA  stm32f4xx_hal_i2c.o
    0x080036a4   0x080036a4   0x00000160   Code   RO         1428    i.HAL_I2C_Slave_Transmit  stm32f4xx_hal_i2c.o
    0x08003804   0x08003804   0x000000d8   Code   RO         1429    i.HAL_I2C_Slave_Transmit_DMA  stm32f4xx_hal_i2c.o
    0x080038dc   0x080038dc   0x00000010   Code   RO         2944    i.HAL_IncTick       stm32f4xx_hal.o
    0x080038ec   0x080038ec   0x00000034   Code   RO         2945    i.HAL_Init          stm32f4xx_hal.o
    0x08003920   0x08003920   0x00000040   Code   RO         2946    i.HAL_InitTick      stm32f4xx_hal.o
    0x08003960   0x08003960   0x00000030   Code   RO          885    i.HAL_MspInit       stm32f4xx_hal_msp.o
    0x08003990   0x08003990   0x00000040   Code   RO         2779    i.HAL_NVIC_SetPriority  stm32f4xx_hal_cortex.o
    0x080039d0   0x080039d0   0x00000024   Code   RO         2780    i.HAL_NVIC_SetPriorityGrouping  stm32f4xx_hal_cortex.o
    0x080039f4   0x080039f4   0x00000134   Code   RO         1906    i.HAL_RCC_ClockConfig  stm32f4xx_hal_rcc.o
    0x08003b28   0x08003b28   0x00000020   Code   RO         1913    i.HAL_RCC_GetPCLK1Freq  stm32f4xx_hal_rcc.o
    0x08003b48   0x08003b48   0x00000060   Code   RO         1915    i.HAL_RCC_GetSysClockFreq  stm32f4xx_hal_rcc.o
    0x08003ba8   0x08003ba8   0x00000364   Code   RO         1918    i.HAL_RCC_OscConfig  stm32f4xx_hal_rcc.o
    0x08003f0c   0x08003f0c   0x0000002a   Code   RO         2784    i.HAL_SYSTICK_Config  stm32f4xx_hal_cortex.o
    0x08003f36   0x08003f36   0x00000002   PAD
    0x08003f38   0x08003f38   0x00000024   Code   RO         2950    i.HAL_SetTickFreq   stm32f4xx_hal.o
    0x08003f5c   0x08003f5c   0x00000002   Code   RO          744    i.HardFault_Handler  stm32f4xx_it.o
    0x08003f5e   0x08003f5e   0x00000002   Code   RO          745    i.MemManage_Handler  stm32f4xx_it.o
    0x08003f60   0x08003f60   0x00000002   Code   RO          746    i.NMI_Handler       stm32f4xx_it.o
    0x08003f62   0x08003f62   0x00000002   Code   RO          747    i.PendSV_Handler    stm32f4xx_it.o
    0x08003f64   0x08003f64   0x00000002   Code   RO          748    i.SVC_Handler       stm32f4xx_it.o
    0x08003f66   0x08003f66   0x00000004   Code   RO          749    i.SysTick_Handler   stm32f4xx_it.o
    0x08003f6a   0x08003f6a   0x00000002   PAD
    0x08003f6c   0x08003f6c   0x00000078   Code   RO         3267    i.SystemCoreClockUpdate  system_stm32f4xx.o
    0x08003fe4   0x08003fe4   0x0000001c   Code   RO         3268    i.SystemInit        system_stm32f4xx.o
    0x08004000   0x08004000   0x00000002   Code   RO          750    i.UsageFault_Handler  stm32f4xx_it.o
    0x08004002   0x08004002   0x00000002   PAD
    0x08004004   0x08004004   0x00000084   Code   RO          559    i._Z18SystemClock_Configv  main.o
    0x08004088   0x08004088   0x00000030   Code   RO         3796    i._Z21__default_new_handlerv  cpprt_w.l(newhandler.o)
    0x080040b8   0x080040b8   0x00000056   Code   RO         1218    i._ZN10Snake_game10addNewHeadEii  snake_game.o
    0x0800410e   0x0800410e   0x0000000a   Code   RO         1219    i._ZN10Snake_game10addNewHeadEii.clean  snake_game.o
    0x08004118   0x08004118   0x00000080   Code   RO         1220    i._ZN10Snake_game16drawCurrentSnakeEv  snake_game.o
    0x08004198   0x08004198   0x00000024   Code   RO         1221    i._ZN10Snake_game16initializeScreenEv  snake_game.o
    0x080041bc   0x080041bc   0x00000010   Code   RO         1226    i._ZN10Snake_game7getElemEv  snake_game.o
    0x080041cc   0x080041cc   0x00000074   Code   RO         1229    i._ZN10Snake_gameC1Essss  snake_game.o
    0x08004240   0x08004240   0x0000000a   Code   RO         1230    i._ZN10Snake_gameC1Essss.clean  snake_game.o
    0x0800424a   0x0800424a   0x00000008   Code   RO          612    i._ZN10Snake_gameD1Ev  main.o
    0x08004252   0x08004252   0x00000008   Code   RO           23    i._ZN12Adafruit_GFX11setTextSizeEh  adafruit_gfx.o
    0x0800425a   0x0800425a   0x00000006   Code   RO           27    i._ZN12Adafruit_GFX12setTextColorEt  adafruit_gfx.o
    0x08004260   0x08004260   0x00000006   Code   RO           28    i._ZN12Adafruit_GFX12setTextColorEtt  adafruit_gfx.o
    0x08004266   0x08004266   0x00000016   Code   RO           29    i._ZN12Adafruit_GFX13drawFastHLineEssst  adafruit_gfx.o
    0x0800427c   0x0800427c   0x00000018   Code   RO           30    i._ZN12Adafruit_GFX13drawFastVLineEssst  adafruit_gfx.o
    0x08004294   0x08004294   0x000000ac   Code   RO           37    i._ZN12Adafruit_GFX8drawLineEsssst  adafruit_gfx.o
    0x08004340   0x08004340   0x00000030   Code   RO           39    i._ZN12Adafruit_GFX8fillRectEsssst  adafruit_gfx.o
    0x08004370   0x08004370   0x00000006   Code   RO           40    i._ZN12Adafruit_GFX9setCursorEss  adafruit_gfx.o
    0x08004376   0x08004376   0x00000002   PAD
    0x08004378   0x08004378   0x00000028   Code   RO           41    i._ZN12Adafruit_GFXC2Ess  adafruit_gfx.o
    0x080043a0   0x080043a0   0x0000000c   Code   RO          932    i._ZN13Double_screen11printBottomEPKc  double_screen.o
    0x080043ac   0x080043ac   0x00000024   Code   RO          934    i._ZN13Double_screen11setTextSizeEh  double_screen.o
    0x080043d0   0x080043d0   0x0000001c   Code   RO          936    i._ZN13Double_screen12clearDisplayEv  double_screen.o
    0x080043ec   0x080043ec   0x00000024   Code   RO          940    i._ZN13Double_screen12setTextColorEt  double_screen.o
    0x08004410   0x08004410   0x00000028   Code   RO          941    i._ZN13Double_screen12setTextColorEtt  double_screen.o
    0x08004438   0x08004438   0x00000028   Code   RO          954    i._ZN13Double_screen5beginEhhb  double_screen.o
    0x08004460   0x08004460   0x0000001c   Code   RO          957    i._ZN13Double_screen7displayEv  double_screen.o
    0x0800447c   0x0800447c   0x00000068   Code   RO          959    i._ZN13Double_screen8drawLineEsssst  double_screen.o
    0x080044e4   0x080044e4   0x0000000c   Code   RO          962    i._ZN13Double_screen8printTopEPKc  double_screen.o
    0x080044f0   0x080044f0   0x0000001c   Code   RO          963    i._ZN13Double_screen9drawPixelEsst  double_screen.o
    0x0800450c   0x0800450c   0x00000028   Code   RO          964    i._ZN13Double_screen9setCursorEss  double_screen.o
    0x08004534   0x08004534   0x00000024   Code   RO          965    i._ZN13Double_screenC1Ev  double_screen.o
    0x08004558   0x08004558   0x00000006   Code   RO          343    i._ZN16Adafruit_SSD130610stopscrollEv  adafruit_ssd1306.o
    0x0800455e   0x0800455e   0x0000000e   Code   RO          344    i._ZN16Adafruit_SSD130612clearDisplayEv  adafruit_ssd1306.o
    0x0800456c   0x0800456c   0x0000003c   Code   RO          345    i._ZN16Adafruit_SSD130612ssd1306_dataEt  adafruit_ssd1306.o
    0x080045a8   0x080045a8   0x000001ac   Code   RO          346    i._ZN16Adafruit_SSD130613drawFastHLineEssst  adafruit_ssd1306.o
    0x08004754   0x08004754   0x000001a0   Code   RO          347    i._ZN16Adafruit_SSD130613drawFastVLineEssst  adafruit_ssd1306.o
    0x080048f4   0x080048f4   0x0000000c   Code   RO          348    i._ZN16Adafruit_SSD130613invertDisplayEh  adafruit_ssd1306.o
    0x08004900   0x08004900   0x00000028   Code   RO          349    i._ZN16Adafruit_SSD130615ssd1306_commandEh  adafruit_ssd1306.o
    0x08004928   0x08004928   0x0000004a   Code   RO          350    i._ZN16Adafruit_SSD130615startscrollleftEhh  adafruit_ssd1306.o
    0x08004972   0x08004972   0x0000004a   Code   RO          351    i._ZN16Adafruit_SSD130616startscrollrightEhh  adafruit_ssd1306.o
    0x080049bc   0x080049bc   0x0000005a   Code   RO          352    i._ZN16Adafruit_SSD130619startscrolldiagleftEhh  adafruit_ssd1306.o
    0x08004a16   0x08004a16   0x0000005a   Code   RO          353    i._ZN16Adafruit_SSD130620startscrolldiagrightEhh  adafruit_ssd1306.o
    0x08004a70   0x08004a70   0x0000002a   Code   RO          354    i._ZN16Adafruit_SSD13063dimEb  adafruit_ssd1306.o
    0x08004a9a   0x08004a9a   0x000000ec   Code   RO          355    i._ZN16Adafruit_SSD13065beginEhhb  adafruit_ssd1306.o
    0x08004b86   0x08004b86   0x00000010   Code   RO          356    i._ZN16Adafruit_SSD13066memsetEPhtt  adafruit_ssd1306.o
    0x08004b96   0x08004b96   0x00000002   PAD
    0x08004b98   0x08004b98   0x00000070   Code   RO          357    i._ZN16Adafruit_SSD13066printfEPKc  adafruit_ssd1306.o
    0x08004c08   0x08004c08   0x0000004a   Code   RO          358    i._ZN16Adafruit_SSD13067displayEv  adafruit_ssd1306.o
    0x08004c52   0x08004c52   0x000000d0   Code   RO          359    i._ZN16Adafruit_SSD13069drawPixelEsst  adafruit_ssd1306.o
    0x08004d22   0x08004d22   0x00000002   PAD
    0x08004d24   0x08004d24   0x00000044   Code   RO          360    i._ZN16Adafruit_SSD1306C1EP19__I2C_HandleTypeDefa  adafruit_ssd1306.o
    0x08004d68   0x08004d68   0x00000046   Code   RO         3599    i._ZN27_INTERNAL_6_rtti_c_066a44b012tbc_downcastEPvPKSt9type_infoP28a_base_class_traversal_blockPN10__cxxabiv122__base_class_type_infoE  cpprt_w.l(rtti.o)
    0x08004dae   0x08004dae   0x00000016   Code   RO         3600    i._ZN27_INTERNAL_6_rtti_c_066a44b017tbc_post_downcastEPvPKSt9type_infoP28a_base_class_traversal_blockPN10__cxxabiv122__base_class_type_infoE  cpprt_w.l(rtti.o)
    0x08004dc4   0x08004dc4   0x000000a4   Code   RO         3601    i._ZN27_INTERNAL_6_rtti_c_066a44b021traverse_base_classesEPvPKSt9type_infoP28a_base_class_traversal_blockPN10__cxxabiv122__base_class_type_infoE  cpprt_w.l(rtti.o)
    0x08004e68   0x08004e68   0x000000c0   Code   RO         3602    i._ZN27_INTERNAL_6_rtti_c_066a44b023find_base_class_at_addrEPvS0_PKSt9type_infoS3_Pi  cpprt_w.l(rtti.o)
    0x08004f28   0x08004f28   0x0000000e   Code   RO         3603    i._ZN27_INTERNAL_6_rtti_c_066a44b024get_virtual_base_pointerEPvPN10__cxxabiv122__base_class_type_infoE  cpprt_w.l(rtti.o)
    0x08004f36   0x08004f36   0x00000002   PAD
    0x08004f38   0x08004f38   0x000001e4   Code   RO         3604    i._ZN27_INTERNAL_6_rtti_c_066a44b028derived_to_base_conversion_rEPvPS0_PKSt9type_infoS4_jPiiPS4_P19a_result_virtualityS5_  cpprt_w.l(rtti.o)
    0x0800511c   0x0800511c   0x00000060   Code   RO          560    i._ZN29_INTERNAL_8_main_cpp_6a9831bd12MX_GPIO_InitEv  main.o
    0x0800517c   0x0800517c   0x00000028   Code   RO         2453    i._ZN41_INTERNAL_19_stm32f4xx_hal_dma_c_c25f65ec13DMA_SetConfigEP19__DMA_HandleTypeDefjjj  stm32f4xx_hal_dma.o
    0x080051a4   0x080051a4   0x00000154   Code   RO         1431    i._ZN41_INTERNAL_19_stm32f4xx_hal_i2c_c_0eb271f411I2C_ITErrorEP19__I2C_HandleTypeDef  stm32f4xx_hal_i2c.o
    0x080052f8   0x080052f8   0x00000086   Code   RO         1432    i._ZN41_INTERNAL_19_stm32f4xx_hal_i2c_c_0eb271f412I2C_DMAAbortEP19__DMA_HandleTypeDef  stm32f4xx_hal_i2c.o
    0x0800537e   0x0800537e   0x00000040   Code   RO         1433    i._ZN41_INTERNAL_19_stm32f4xx_hal_i2c_c_0eb271f412I2C_DMAErrorEP19__DMA_HandleTypeDef  stm32f4xx_hal_i2c.o
    0x080053be   0x080053be   0x00000002   PAD
    0x080053c0   0x080053c0   0x00000084   Code   RO         1434    i._ZN41_INTERNAL_19_stm32f4xx_hal_i2c_c_0eb271f412I2C_Slave_AFEP19__I2C_HandleTypeDef  stm32f4xx_hal_i2c.o
    0x08005444   0x08005444   0x0000008c   Code   RO         1435    i._ZN41_INTERNAL_19_stm32f4xx_hal_i2c_c_0eb271f413I2C_Master_SBEP19__I2C_HandleTypeDef  stm32f4xx_hal_i2c.o
    0x080054d0   0x080054d0   0x0000010a   Code   RO         1436    i._ZN41_INTERNAL_19_stm32f4xx_hal_i2c_c_0eb271f415I2C_DMAXferCpltEP19__DMA_HandleTypeDef  stm32f4xx_hal_i2c.o
    0x080055da   0x080055da   0x00000002   PAD
    0x080055dc   0x080055dc   0x00000118   Code   RO         1437    i._ZN41_INTERNAL_19_stm32f4xx_hal_i2c_c_0eb271f415I2C_Master_ADDREP19__I2C_HandleTypeDef  stm32f4xx_hal_i2c.o
    0x080056f4   0x080056f4   0x0000015c   Code   RO         1438    i._ZN41_INTERNAL_19_stm32f4xx_hal_i2c_c_0eb271f415I2C_Slave_STOPFEP19__I2C_HandleTypeDef  stm32f4xx_hal_i2c.o
    0x08005850   0x08005850   0x000000d2   Code   RO         1439    i._ZN41_INTERNAL_19_stm32f4xx_hal_i2c_c_0eb271f421I2C_MasterReceive_BTFEP19__I2C_HandleTypeDef  stm32f4xx_hal_i2c.o
    0x08005922   0x08005922   0x00000002   PAD
    0x08005924   0x08005924   0x000000ec   Code   RO         1440    i._ZN41_INTERNAL_19_stm32f4xx_hal_i2c_c_0eb271f421I2C_MasterRequestReadEP19__I2C_HandleTypeDeftjj  stm32f4xx_hal_i2c.o
    0x08005a10   0x08005a10   0x00000100   Code   RO         1441    i._ZN41_INTERNAL_19_stm32f4xx_hal_i2c_c_0eb271f421I2C_RequestMemoryReadEP19__I2C_HandleTypeDeftttjj  stm32f4xx_hal_i2c.o
    0x08005b10   0x08005b10   0x00000092   Code   RO         1442    i._ZN41_INTERNAL_19_stm32f4xx_hal_i2c_c_0eb271f422I2C_MasterReceive_RXNEEP19__I2C_HandleTypeDef  stm32f4xx_hal_i2c.o
    0x08005ba2   0x08005ba2   0x00000002   PAD
    0x08005ba4   0x08005ba4   0x0000009c   Code   RO         1443    i._ZN41_INTERNAL_19_stm32f4xx_hal_i2c_c_0eb271f422I2C_MasterRequestWriteEP19__I2C_HandleTypeDeftjj  stm32f4xx_hal_i2c.o
    0x08005c40   0x08005c40   0x00000092   Code   RO         1444    i._ZN41_INTERNAL_19_stm32f4xx_hal_i2c_c_0eb271f422I2C_MasterTransmit_BTFEP19__I2C_HandleTypeDef  stm32f4xx_hal_i2c.o
    0x08005cd2   0x08005cd2   0x00000002   PAD
    0x08005cd4   0x08005cd4   0x000000b6   Code   RO         1445    i._ZN41_INTERNAL_19_stm32f4xx_hal_i2c_c_0eb271f422I2C_MasterTransmit_TXEEP19__I2C_HandleTypeDef  stm32f4xx_hal_i2c.o
    0x08005d8a   0x08005d8a   0x00000002   PAD
    0x08005d8c   0x08005d8c   0x000000a8   Code   RO         1446    i._ZN41_INTERNAL_19_stm32f4xx_hal_i2c_c_0eb271f422I2C_RequestMemoryWriteEP19__I2C_HandleTypeDeftttjj  stm32f4xx_hal_i2c.o
    0x08005e34   0x08005e34   0x0000002e   Code   RO         1447    i._ZN41_INTERNAL_19_stm32f4xx_hal_i2c_c_0eb271f423I2C_IsAcknowledgeFailedEP19__I2C_HandleTypeDef  stm32f4xx_hal_i2c.o
    0x08005e62   0x08005e62   0x0000006c   Code   RO         1448    i._ZN41_INTERNAL_19_stm32f4xx_hal_i2c_c_0eb271f426I2C_MemoryTransmit_TXE_BTFEP19__I2C_HandleTypeDef  stm32f4xx_hal_i2c.o
    0x08005ece   0x08005ece   0x00000002   PAD
    0x08005ed0   0x08005ed0   0x00000070   Code   RO         1449    i._ZN41_INTERNAL_19_stm32f4xx_hal_i2c_c_0eb271f426I2C_WaitOnFlagUntilTimeoutEP19__I2C_HandleTypeDefj10FlagStatusjj  stm32f4xx_hal_i2c.o
    0x08005f40   0x08005f40   0x0000004c   Code   RO         1450    i._ZN41_INTERNAL_19_stm32f4xx_hal_i2c_c_0eb271f429I2C_WaitOnBTFFlagUntilTimeoutEP19__I2C_HandleTypeDefjj  stm32f4xx_hal_i2c.o
    0x08005f8c   0x08005f8c   0x0000004c   Code   RO         1451    i._ZN41_INTERNAL_19_stm32f4xx_hal_i2c_c_0eb271f429I2C_WaitOnTXEFlagUntilTimeoutEP19__I2C_HandleTypeDefjj  stm32f4xx_hal_i2c.o
    0x08005fd8   0x08005fd8   0x00000066   Code   RO         1452    i._ZN41_INTERNAL_19_stm32f4xx_hal_i2c_c_0eb271f430I2C_WaitOnRXNEFlagUntilTimeoutEP19__I2C_HandleTypeDefjj  stm32f4xx_hal_i2c.o
    0x0800603e   0x0800603e   0x00000096   Code   RO         1453    i._ZN41_INTERNAL_19_stm32f4xx_hal_i2c_c_0eb271f439I2C_WaitOnMasterAddressFlagUntilTimeoutEP19__I2C_HandleTypeDefjjj  stm32f4xx_hal_i2c.o
    0x080060d4   0x080060d4   0x00000020   Code   RO         2786    i._ZN44_INTERNAL_22_stm32f4xx_hal_cortex_c_2992dbc018__NVIC_SetPriorityE9IRQn_Typej  stm32f4xx_hal_cortex.o
    0x080060f4   0x080060f4   0x00000004   Code   RO           42    i._ZNK12Adafruit_GFX11getRotationEv  adafruit_gfx.o
    0x080060f8   0x080060f8   0x00000006   Code   RO           43    i._ZNK12Adafruit_GFX5widthEv  adafruit_gfx.o
    0x080060fe   0x080060fe   0x00000006   Code   RO           44    i._ZNK12Adafruit_GFX6heightEv  adafruit_gfx.o
    0x08006104   0x08006104   0x00000020   Code   RO         3666    i._ZNKSt9type_infoeqERKS_  cpprt_w.l(type_info_eq.o)
    0x08006124   0x08006124   0x00000020   Code   RO         3669    i._ZNKSt9type_infoneERKS_  cpprt_w.l(type_info_ne.o)
    0x08006144   0x08006144   0x00000010   Code   RO         3812    i._ZNSt10bad_typeidC1ERKS_  cpprt_w.l(bad_typeid.o)
    0x08006154   0x08006154   0x00000010   Code   RO         3813    i._ZNSt10bad_typeidC1Ev  cpprt_w.l(bad_typeid.o)
    0x08006164   0x08006164   0x0000000e   Code   RO         3814    i._ZNSt10bad_typeidD0Ev  cpprt_w.l(bad_typeid.o)
    0x08006172   0x08006172   0x00000008   Code   RO         3815    i._ZNSt10bad_typeidD1Ev  cpprt_w.l(bad_typeid.o)
    0x0800617a   0x0800617a   0x00000002   PAD
    0x0800617c   0x0800617c   0x00000010   Code   RO         3637    i._ZNSt13bad_exceptionC1ERKS_  cpprt_w.l(bad_exception_cctor.o)
    0x0800618c   0x0800618c   0x00000010   Code   RO         3640    i._ZNSt13bad_exceptionC1Ev  cpprt_w.l(bad_exception_ctor.o)
    0x0800619c   0x0800619c   0x0000000e   Code   RO         3643    i._ZNSt13bad_exceptionD0Ev  cpprt_w.l(bad_exception_dtor.o)
    0x080061aa   0x080061aa   0x00000008   Code   RO         3644    i._ZNSt13bad_exceptionD1Ev  cpprt_w.l(bad_exception_dtor.o)
    0x080061b2   0x080061b2   0x00000002   PAD
    0x080061b4   0x080061b4   0x00000010   Code   RO         3923    i._ZNSt9bad_allocC1ERKS_  cpprt_w.l(bad_alloc_cctor.o)
    0x080061c4   0x080061c4   0x00000010   Code   RO         3926    i._ZNSt9bad_allocC1Ev  cpprt_w.l(bad_alloc_ctor.o)
    0x080061d4   0x080061d4   0x0000000e   Code   RO         3627    i._ZNSt9bad_allocD0Ev  cpprt_w.l(bad_alloc_dtor.o)
    0x080061e2   0x080061e2   0x00000008   Code   RO         3628    i._ZNSt9bad_allocD1Ev  cpprt_w.l(bad_alloc_dtor.o)
    0x080061ea   0x080061ea   0x00000002   PAD
    0x080061ec   0x080061ec   0x0000000c   Code   RO         3833    i._ZNSt9exceptionC1ERKS_  cpprt_w.l(exception_cctor.o)
    0x080061f8   0x080061f8   0x0000000c   Code   RO         3836    i._ZNSt9exceptionC1Ev  cpprt_w.l(exception_ctor.o)
    0x08006204   0x08006204   0x00000008   Code   RO         3320    i._ZdaPv            cpprt_w.l(array_del.o)
    0x0800620c   0x0800620c   0x00000008   Code   RO         3592    i._ZdlPv            cpprt_w.l(delete.o)
    0x08006214   0x08006214   0x00000008   Code   RO         3323    i._Znaj             cpprt_w.l(array_new.o)
    0x0800621c   0x0800621c   0x00000028   Code   RO         3595    i._Znwj             cpprt_w.l(new.o)
    0x08006244   0x08006244   0x00000092   Code   RO         3799    i.__ARM_array_new_general  cpprt_w.l(array_new_general.o)
    0x080062d6   0x080062d6   0x0000000c   Code   RO         3800    i.__ARM_array_new_general.clean  cpprt_w.l(array_new_general.o)
    0x080062e2   0x080062e2   0x00000020   Code   RO         3473    i.__ARM_common_get_typeid  cpprt_w.l(arm_exceptions_throw.o)
    0x08006302   0x08006302   0x0000002c   Code   RO         3911    i.__ARM_vec_cleanup  cpprt_w.l(ARM_vec_cleanup.o)
    0x0800632e   0x0800632e   0x00000008   Code   RO         3912    i.__ARM_vec_cleanup.clean  cpprt_w.l(ARM_vec_cleanup.o)
    0x08006336   0x08006336   0x0000002c   Code   RO         3917    i.__ARM_vec_cleanup_rethrow  cpprt_w.l(ARM_vec_cleanup_rethrow.o)
    0x08006362   0x08006362   0x00000008   Code   RO         3918    i.__ARM_vec_cleanup_rethrow.clean  cpprt_w.l(ARM_vec_cleanup_rethrow.o)
    0x0800636a   0x0800636a   0x00000022   Code   RO         3439    i.__aeabi_vec_delete  cpprt_w.l(aeabi_vec_delete.o)
    0x0800638c   0x0800638c   0x00000008   Code   RO         3440    i.__aeabi_vec_delete.clean  cpprt_w.l(aeabi_vec_delete.o)
    0x08006394   0x08006394   0x0000003a   Code   RO         3852    i.__aeabi_vec_dtor  cpprt_w.l(aeabi_vec_dtor.o)
    0x080063ce   0x080063ce   0x00000008   Code   RO         3853    i.__aeabi_vec_dtor.clean  cpprt_w.l(aeabi_vec_dtor.o)
    0x080063d6   0x080063d6   0x00000010   Code   RO         3672    i.__aeabi_vec_dtor_cookie  cpprt_w.l(aeabi_vec_dtor_cookie.o)
    0x080063e6   0x080063e6   0x00000014   Code   RO         3436    i.__aeabi_vec_new_cookie  cpprt_w.l(aeabi_vec_new_cookie.o)
    0x080063fa   0x080063fa   0x00000006   Code   RO         3327    i.__cxa_pure_virtual  cpprt_w.l(pure_virt.o)
    0x08006400   0x08006400   0x00000018   Code   RO         3653    i.__cxa_vec_new     cpprt_w.l(cxa_vec_new.o)
    0x08006418   0x08006418   0x00000070   Code   RO         3605    i.__derived_to_base_conversion  cpprt_w.l(rtti.o)
    0x08006488   0x08006488   0x000000b4   Code   RO         3606    i.__dynamic_cast    cpprt_w.l(rtti.o)
    0x0800653c   0x0800653c   0x0000002c   Code   RO          969    i.__sti___17_Double_screen_cpp_lcd_top  double_screen.o
    0x08006568   0x08006568   0x0000000c   Code   RO          561    i.__sti___8_main_cpp_6a9831bd  main.o
    0x08006574   0x08006574   0x000000a4   Code   RO          562    i.main              main.o
    0x08006618   0x08006618   0x0000000a   Code   RO          563    i.main.clean        main.o
    0x08006622   0x08006622   0x00000002   PAD
    0x08006624   0x08006624   0x0000002c   Code   RO         1332    t._ZN6VectorIS_IiEE2atEi  snake_game.o
    0x08006650   0x08006650   0x00000064   Code   RO         1308    t._ZN6VectorIS_IiEE7reserveEi  snake_game.o
    0x080066b4   0x080066b4   0x00000014   Code   RO          615    t._ZN6VectorIS_IiEED1Ev  main.o
    0x080066c8   0x080066c8   0x0000000e   Code   RO         1338    t._ZN6VectorIiE4backEv  snake_game.o
    0x080066d6   0x080066d6   0x00000040   Code   RO         1314    t._ZN6VectorIiE7reserveEi  snake_game.o
    0x08006716   0x08006716   0x0000002e   Code   RO         1320    t._ZN6VectorIiE9push_backERKi  snake_game.o
    0x08006744   0x08006744   0x0000000a   Code   RO         1326    t._ZN6VectorIiEC1Ev  snake_game.o
    0x0800674e   0x0800674e   0x0000000e   Code   RO          606    t._ZN6VectorIiED1Ev  main.o
    0x0800675c   0x0800675c   0x00000060   Code   RO         1302    t._ZN6VectorIiEaSERKS0_  snake_game.o
    0x080067bc   0x080067bc   0x0000000a   Code   RO         3861    x$fpl$fpinit        fz_wm.l(fpinit.o)
    0x080067c6   0x080067c6   0x00000002   PAD
    0x080067c8   0x080067c8   0x0000000c   Data   RO           74    .ARM.extab          adafruit_gfx.o
    0x080067d4   0x080067d4   0x00000010   Data   RO          570    .ARM.extab          main.o
    0x080067e4   0x080067e4   0x00000010   Data   RO          616    .ARM.extab          main.o
    0x080067f4   0x080067f4   0x00000010   Data   RO         1244    .ARM.extab          snake_game.o
    0x08006804   0x08006804   0x00000010   Data   RO         1245    .ARM.extab          snake_game.o
    0x08006814   0x08006814   0x00000014   Data   RO         3325    .ARM.extab          cpprt_w.l(array_new.o)
    0x08006828   0x08006828   0x0000001c   Data   RO         3443    .ARM.extab          cpprt_w.l(aeabi_vec_delete.o)
    0x08006844   0x08006844   0x00000038   Data   RO         3452    .ARM.extab          cpprt_w.l(arm_exceptions_callunex.o)
    0x0800687c   0x0800687c   0x0000001c   Data   RO         3467    .ARM.extab          cpprt_w.l(arm_exceptions_throw.o)
    0x08006898   0x08006898   0x00000014   Data   RO         3597    .ARM.extab          cpprt_w.l(new.o)
    0x080068ac   0x080068ac   0x00000030   Data   RO         3803    .ARM.extab          cpprt_w.l(array_new_general.o)
    0x080068dc   0x080068dc   0x0000001c   Data   RO         3856    .ARM.extab          cpprt_w.l(aeabi_vec_dtor.o)
    0x080068f8   0x080068f8   0x00000024   Data   RO         3915    .ARM.extab          cpprt_w.l(ARM_vec_cleanup.o)
    0x0800691c   0x0800691c   0x0000001c   Data   RO         3921    .ARM.extab          cpprt_w.l(ARM_vec_cleanup_rethrow.o)
    0x08006938   0x08006938   0x000005f0   Data   RO          379    .constdata          adafruit_ssd1306.o
    0x08006f28   0x08006f28   0x00000010   Data   RO         3271    .constdata          system_stm32f4xx.o
    0x08006f38   0x08006f38   0x00000008   Data   RO         3272    .constdata          system_stm32f4xx.o
    0x08006f40   0x08006f40   0x0000000c   Data   RO         3686    .constdata          cpprt_w.l(arm_exceptions_support.o)
    0x08006f4c   0x08006f4c   0x00000008   Data   RO         1344    .constdata__ZTI12out_of_range  snake_game.o
    0x08006f54   0x08006f54   0x0000000c   Data   RO         3420    .constdata__ZTIN10__cxxabiv117__class_type_infoE  cpprt_w.l(lib_rtti_impl.o)
    0x08006f60   0x08006f60   0x0000000c   Data   RO         3423    .constdata__ZTIN10__cxxabiv117__pbase_type_infoE  cpprt_w.l(lib_rtti_impl.o)
    0x08006f6c   0x08006f6c   0x0000000c   Data   RO         3424    .constdata__ZTIN10__cxxabiv119__pointer_type_infoE  cpprt_w.l(lib_rtti_impl.o)
    0x08006f78   0x08006f78   0x0000000c   Data   RO         3421    .constdata__ZTIN10__cxxabiv120__si_class_type_infoE  cpprt_w.l(lib_rtti_impl.o)
    0x08006f84   0x08006f84   0x0000000c   Data   RO         3422    .constdata__ZTIN10__cxxabiv121__vmi_class_type_infoE  cpprt_w.l(lib_rtti_impl.o)
    0x08006f90   0x08006f90   0x0000000c   Data   RO         3416    .constdata__ZTIN10__cxxabiv123__fundamental_type_infoE  cpprt_w.l(lib_rtti_impl.o)
    0x08006f9c   0x08006f9c   0x0000000c   Data   RO         3831    .constdata__ZTISt10bad_typeid  cpprt_w.l(bad_typeid.o)
    0x08006fa8   0x08006fa8   0x0000000c   Data   RO         3651    .constdata__ZTISt13bad_exception  cpprt_w.l(bad_exception_dtor.o)
    0x08006fb4   0x08006fb4   0x0000000c   Data   RO         3635    .constdata__ZTISt9bad_alloc  cpprt_w.l(bad_alloc_dtor.o)
    0x08006fc0   0x08006fc0   0x00000008   Data   RO         3847    .constdata__ZTISt9exception  cpprt_w.l(exception_dtor.o)
    0x08006fc8   0x08006fc8   0x00000008   Data   RO         3664    .constdata__ZTISt9type_info  cpprt_w.l(type_info_dtor.o)
    0x08006fd0   0x08006fd0   0x00000008   Data   RO         3471    .constdata__ZTIv    cpprt_w.l(arm_exceptions_throw.o)
    0x08006fd8   0x08006fd8   0x0000000f   Data   RO         1345    .constdata__ZTS12out_of_range  snake_game.o
    0x08006fe7   0x08006fe7   0x00000022   Data   RO         3430    .constdata__ZTSN10__cxxabiv117__class_type_infoE  cpprt_w.l(lib_rtti_impl.o)
    0x08007009   0x08007009   0x00000022   Data   RO         3433    .constdata__ZTSN10__cxxabiv117__pbase_type_infoE  cpprt_w.l(lib_rtti_impl.o)
    0x0800702b   0x0800702b   0x00000024   Data   RO         3434    .constdata__ZTSN10__cxxabiv119__pointer_type_infoE  cpprt_w.l(lib_rtti_impl.o)
    0x0800704f   0x0800704f   0x00000025   Data   RO         3431    .constdata__ZTSN10__cxxabiv120__si_class_type_infoE  cpprt_w.l(lib_rtti_impl.o)
    0x08007074   0x08007074   0x00000026   Data   RO         3432    .constdata__ZTSN10__cxxabiv121__vmi_class_type_infoE  cpprt_w.l(lib_rtti_impl.o)
    0x0800709a   0x0800709a   0x00000028   Data   RO         3426    .constdata__ZTSN10__cxxabiv123__fundamental_type_infoE  cpprt_w.l(lib_rtti_impl.o)
    0x080070c2   0x080070c2   0x0000000f   Data   RO         3832    .constdata__ZTSSt10bad_typeid  cpprt_w.l(bad_typeid.o)
    0x080070d1   0x080070d1   0x00000012   Data   RO         3652    .constdata__ZTSSt13bad_exception  cpprt_w.l(bad_exception_dtor.o)
    0x080070e3   0x080070e3   0x0000000d   Data   RO         3636    .constdata__ZTSSt9bad_alloc  cpprt_w.l(bad_alloc_dtor.o)
    0x080070f0   0x080070f0   0x0000000d   Data   RO         3848    .constdata__ZTSSt9exception  cpprt_w.l(exception_dtor.o)
    0x080070fd   0x080070fd   0x0000000d   Data   RO         3665    .constdata__ZTSSt9type_info  cpprt_w.l(type_info_dtor.o)
    0x0800710a   0x0800710a   0x00000002   Data   RO         3472    .constdata__ZTSv    cpprt_w.l(arm_exceptions_throw.o)
    0x0800710c   0x0800710c   0x00000028   Data   RO          230    .constdata__ZTV12Adafruit_GFX  adafruit_gfx.o
    0x08007134   0x08007134   0x00000028   Data   RO          468    .constdata__ZTV16Adafruit_SSD1306  adafruit_ssd1306.o
    0x0800715c   0x0800715c   0x00000010   Data   RO         3402    .constdata__ZTVN10__cxxabiv117__class_type_infoE  cpprt_w.l(lib_rtti_impl.o)
    0x0800716c   0x0800716c   0x00000010   Data   RO         3404    .constdata__ZTVN10__cxxabiv120__si_class_type_infoE  cpprt_w.l(lib_rtti_impl.o)
    0x0800717c   0x0800717c   0x00000010   Data   RO         3394    .constdata__ZTVN10__cxxabiv123__fundamental_type_infoE  cpprt_w.l(lib_rtti_impl.o)
    0x0800718c   0x0800718c   0x00000014   Data   RO         3830    .constdata__ZTVSt10bad_typeid  cpprt_w.l(bad_typeid.o)
    0x080071a0   0x080071a0   0x00000014   Data   RO         3650    .constdata__ZTVSt13bad_exception  cpprt_w.l(bad_exception_dtor.o)
    0x080071b4   0x080071b4   0x00000014   Data   RO         3634    .constdata__ZTVSt9bad_alloc  cpprt_w.l(bad_alloc_dtor.o)
    0x080071c8   0x080071c8   0x00000014   Data   RO         3846    .constdata__ZTVSt9exception  cpprt_w.l(exception_dtor.o)
    0x080071dc   0x080071dc   0x00000020   Data   RO         3992    Region$$Table       anon$$obj.o
    0x080071fc   0x080071fc   0x00000004   Data   RO          572    .init_array         main.o
    0x08007200   0x080071fc   0x00000004   Data   RO         1016    .init_array         double_screen.o
    0x08007204   0x080071fc   0x00000000   Data   RO         3315    .init_array         c_w.l(init_aeabi.o)
    0x08007204   0x080071fc   0x00000008   Data   RO         3735    .ARM.exidx          c_w.l(__rtentry4.o)
    0x0800720c   0x080071fc   0x00000008   Data   RO         3450    .ARM.exidx          cpprt_w.l(arm_exceptions_callunex.o)
    0x08007214   0x080071fc   0x00000008   Data   RO         3455    .ARM.exidx          cpprt_w.l(arm_exceptions_callterm.o)
    0x0800721c   0x080071fc   0x00000018   Data   RO         3465    .ARM.exidx          cpprt_w.l(arm_exceptions_throw.o)
    0x08007234   0x080071fc   0x00000008   Data   RO         3689    .ARM.exidx          cpprt_w.l(arm_exceptions_rethrow.o)
    0x0800723c   0x080071fc   0x00000008   Data   RO         3695    .ARM.exidx          cpprt_w.l(arm_exceptions_begincatch.o)
    0x08007244   0x080071fc   0x00000008   Data   RO         3698    .ARM.exidx          cpprt_w.l(arm_exceptions_bad_typeid.o)
    0x0800724c   0x080071fc   0x00000008   Data   RO         3701    .ARM.exidx          cpprt_w.l(arm_exceptions_unexpected.o)
    0x08007254   0x080071fc   0x00000008   Data   RO         3704    .ARM.exidx          cpprt_w.l(arm_exceptions_foreign.o)
    0x0800725c   0x080071fc   0x00000008   Data   RO         3784    .ARM.exidx          c_w.l(bsearch.o)
    0x08007264   0x080071fc   0x00000008   Data   RO         3859    .ARM.exidx          cpprt_w.l(unwind_delete.o)
    0x0800726c   0x080071fc   0x00000008   Data   RO         2962    .ARM.exidx          stm32f4xx_hal.o
    0x08007274   0x080071fc   0x00000008   Data   RO         2324    .ARM.exidx          stm32f4xx_hal_gpio.o
    0x0800727c   0x080071fc   0x00000008   Data   RO         1516    .ARM.exidx          stm32f4xx_hal_i2c.o
    0x08007284   0x080071fc   0x00000008   Data   RO         1473    .ARM.exidx          stm32f4xx_hal_i2c.o
    0x0800728c   0x080071fc   0x00000008   Data   RO         1455    .ARM.exidx          stm32f4xx_hal_i2c.o
    0x08007294   0x080071fc   0x00000008   Data   RO         1492    .ARM.exidx          stm32f4xx_hal_i2c.o
    0x0800729c   0x080071fc   0x00000008   Data   RO         1505    .ARM.exidx          stm32f4xx_hal_i2c.o
    0x080072a4   0x080071fc   0x00000008   Data   RO         1507    .ARM.exidx          stm32f4xx_hal_i2c.o
    0x080072ac   0x080071fc   0x00000008   Data   RO         1466    .ARM.exidx          stm32f4xx_hal_i2c.o
    0x080072b4   0x080071fc   0x00000008   Data   RO         1481    .ARM.exidx          stm32f4xx_hal_i2c.o
    0x080072bc   0x080071fc   0x00000008   Data   RO         1496    .ARM.exidx          stm32f4xx_hal_i2c.o
    0x080072c4   0x080071fc   0x00000008   Data   RO         1494    .ARM.exidx          stm32f4xx_hal_i2c.o
    0x080072cc   0x080071fc   0x00000008   Data   RO         1463    .ARM.exidx          stm32f4xx_hal_i2c.o
    0x080072d4   0x080071fc   0x00000008   Data   RO         1480    .ARM.exidx          stm32f4xx_hal_i2c.o
    0x080072dc   0x080071fc   0x00000008   Data   RO         1476    .ARM.exidx          stm32f4xx_hal_i2c.o
    0x080072e4   0x080071fc   0x00000008   Data   RO         1487    .ARM.exidx          stm32f4xx_hal_i2c.o
    0x080072ec   0x080071fc   0x00000008   Data   RO          887    .ARM.exidx          stm32f4xx_hal_msp.o
    0x080072f4   0x080071fc   0x00000008   Data   RO         1477    .ARM.exidx          stm32f4xx_hal_i2c.o
    0x080072fc   0x080071fc   0x00000008   Data   RO         1468    .ARM.exidx          stm32f4xx_hal_i2c.o
    0x08007304   0x080071fc   0x00000008   Data   RO         1483    .ARM.exidx          stm32f4xx_hal_i2c.o
    0x0800730c   0x080071fc   0x00000008   Data   RO         1502    .ARM.exidx          stm32f4xx_hal_i2c.o
    0x08007314   0x080071fc   0x00000008   Data   RO         1467    .ARM.exidx          stm32f4xx_hal_i2c.o
    0x0800731c   0x080071fc   0x00000008   Data   RO         1482    .ARM.exidx          stm32f4xx_hal_i2c.o
    0x08007324   0x080071fc   0x00000008   Data   RO         2957    .ARM.exidx          stm32f4xx_hal.o
    0x0800732c   0x080071fc   0x00000008   Data   RO         2954    .ARM.exidx          stm32f4xx_hal.o
    0x08007334   0x080071fc   0x00000008   Data   RO         2953    .ARM.exidx          stm32f4xx_hal.o
    0x0800733c   0x080071fc   0x00000008   Data   RO          886    .ARM.exidx          stm32f4xx_hal_msp.o
    0x08007344   0x080071fc   0x00000008   Data   RO         1922    .ARM.exidx          stm32f4xx_hal_rcc.o
    0x0800734c   0x080071fc   0x00000008   Data   RO         1927    .ARM.exidx          stm32f4xx_hal_rcc.o
    0x08007354   0x080071fc   0x00000008   Data   RO         1920    .ARM.exidx          stm32f4xx_hal_rcc.o
    0x0800735c   0x080071fc   0x00000008   Data   RO         2792    .ARM.exidx          stm32f4xx_hal_cortex.o
    0x08007364   0x080071fc   0x00000008   Data   RO         2960    .ARM.exidx          stm32f4xx_hal.o
    0x0800736c   0x080071fc   0x00000008   Data   RO          752    .ARM.exidx          stm32f4xx_it.o
    0x08007374   0x080071fc   0x00000008   Data   RO          565    .ARM.exidx          main.o
    0x0800737c   0x080071fc   0x00000008   Data   RO         3797    .ARM.exidx          cpprt_w.l(newhandler.o)
    0x08007384   0x080071fc   0x00000008   Data   RO         1231    .ARM.exidx          snake_game.o
    0x0800738c   0x080071fc   0x00000008   Data   RO         1232    .ARM.exidx          snake_game.o
    0x08007394   0x080071fc   0x00000008   Data   RO         1243    .ARM.exidx          snake_game.o
    0x0800739c   0x080071fc   0x00000008   Data   RO         1233    .ARM.exidx          snake_game.o
    0x080073a4   0x080071fc   0x00000008   Data   RO         1234    .ARM.exidx          snake_game.o
    0x080073ac   0x080071fc   0x00000008   Data   RO         1235    .ARM.exidx          snake_game.o
    0x080073b4   0x080071fc   0x00000008   Data   RO           48    .ARM.exidx          adafruit_gfx.o
    0x080073bc   0x080071fc   0x00000008   Data   RO           46    .ARM.exidx          adafruit_gfx.o
    0x080073c4   0x080071fc   0x00000008   Data   RO           50    .ARM.exidx          adafruit_gfx.o
    0x080073cc   0x080071fc   0x00000008   Data   RO           64    .ARM.exidx          adafruit_gfx.o
    0x080073d4   0x080071fc   0x00000008   Data   RO          993    .ARM.exidx          double_screen.o
    0x080073dc   0x080071fc   0x00000008   Data   RO         1001    .ARM.exidx          double_screen.o
    0x080073e4   0x080071fc   0x00000008   Data   RO          991    .ARM.exidx          double_screen.o
    0x080073ec   0x080071fc   0x00000008   Data   RO         1000    .ARM.exidx          double_screen.o
    0x080073f4   0x080071fc   0x00000008   Data   RO          972    .ARM.exidx          double_screen.o
    0x080073fc   0x080071fc   0x00000008   Data   RO         1010    .ARM.exidx          double_screen.o
    0x08007404   0x080071fc   0x00000008   Data   RO          990    .ARM.exidx          double_screen.o
    0x0800740c   0x080071fc   0x00000008   Data   RO          970    .ARM.exidx          double_screen.o
    0x08007414   0x080071fc   0x00000008   Data   RO          364    .ARM.exidx          adafruit_ssd1306.o
    0x0800741c   0x080071fc   0x00000008   Data   RO          377    .ARM.exidx          adafruit_ssd1306.o
    0x08007424   0x080071fc   0x00000008   Data   RO          362    .ARM.exidx          adafruit_ssd1306.o
    0x0800742c   0x080071fc   0x00000008   Data   RO          370    .ARM.exidx          adafruit_ssd1306.o
    0x08007434   0x080071fc   0x00000008   Data   RO          365    .ARM.exidx          adafruit_ssd1306.o
    0x0800743c   0x080071fc   0x00000008   Data   RO          368    .ARM.exidx          adafruit_ssd1306.o
    0x08007444   0x080071fc   0x00000008   Data   RO          375    .ARM.exidx          adafruit_ssd1306.o
    0x0800744c   0x080071fc   0x00000008   Data   RO          361    .ARM.exidx          adafruit_ssd1306.o
    0x08007454   0x080071fc   0x00000008   Data   RO         3611    .ARM.exidx          cpprt_w.l(rtti.o)
    0x0800745c   0x080071fc   0x00000008   Data   RO         3612    .ARM.exidx          cpprt_w.l(rtti.o)
    0x08007464   0x080071fc   0x00000008   Data   RO         3607    .ARM.exidx          cpprt_w.l(rtti.o)
    0x0800746c   0x080071fc   0x00000008   Data   RO         3610    .ARM.exidx          cpprt_w.l(rtti.o)
    0x08007474   0x080071fc   0x00000008   Data   RO         3614    .ARM.exidx          cpprt_w.l(rtti.o)
    0x0800747c   0x080071fc   0x00000008   Data   RO         3608    .ARM.exidx          cpprt_w.l(rtti.o)
    0x08007484   0x080071fc   0x00000008   Data   RO          569    .ARM.exidx          main.o
    0x0800748c   0x080071fc   0x00000008   Data   RO         2459    .ARM.exidx          stm32f4xx_hal_dma.o
    0x08007494   0x080071fc   0x00000008   Data   RO         1506    .ARM.exidx          stm32f4xx_hal_i2c.o
    0x0800749c   0x080071fc   0x00000008   Data   RO         1499    .ARM.exidx          stm32f4xx_hal_i2c.o
    0x080074a4   0x080071fc   0x00000008   Data   RO         1474    .ARM.exidx          stm32f4xx_hal_i2c.o
    0x080074ac   0x080071fc   0x00000008   Data   RO         1525    .ARM.exidx          stm32f4xx_hal_i2c.o
    0x080074b4   0x080071fc   0x00000008   Data   RO         1524    .ARM.exidx          stm32f4xx_hal_i2c.o
    0x080074bc   0x080071fc   0x00000008   Data   RO         1479    .ARM.exidx          stm32f4xx_hal_i2c.o
    0x080074c4   0x080071fc   0x00000008   Data   RO         1514    .ARM.exidx          stm32f4xx_hal_i2c.o
    0x080074cc   0x080071fc   0x00000008   Data   RO         1508    .ARM.exidx          stm32f4xx_hal_i2c.o
    0x080074d4   0x080071fc   0x00000008   Data   RO         1510    .ARM.exidx          stm32f4xx_hal_i2c.o
    0x080074dc   0x080071fc   0x00000008   Data   RO         1465    .ARM.exidx          stm32f4xx_hal_i2c.o
    0x080074e4   0x080071fc   0x00000008   Data   RO         1521    .ARM.exidx          stm32f4xx_hal_i2c.o
    0x080074ec   0x080071fc   0x00000008   Data   RO         1520    .ARM.exidx          stm32f4xx_hal_i2c.o
    0x080074f4   0x080071fc   0x00000008   Data   RO         1522    .ARM.exidx          stm32f4xx_hal_i2c.o
    0x080074fc   0x080071fc   0x00000008   Data   RO         1484    .ARM.exidx          stm32f4xx_hal_i2c.o
    0x08007504   0x080071fc   0x00000008   Data   RO         1458    .ARM.exidx          stm32f4xx_hal_i2c.o
    0x0800750c   0x080071fc   0x00000008   Data   RO         1462    .ARM.exidx          stm32f4xx_hal_i2c.o
    0x08007514   0x080071fc   0x00000008   Data   RO         1459    .ARM.exidx          stm32f4xx_hal_i2c.o
    0x0800751c   0x080071fc   0x00000008   Data   RO         1464    .ARM.exidx          stm32f4xx_hal_i2c.o
    0x08007524   0x080071fc   0x00000008   Data   RO         1461    .ARM.exidx          stm32f4xx_hal_i2c.o
    0x0800752c   0x080071fc   0x00000008   Data   RO         2805    .ARM.exidx          stm32f4xx_hal_cortex.o
    0x08007534   0x080071fc   0x00000008   Data   RO         3324    .ARM.exidx          cpprt_w.l(array_new.o)
    0x0800753c   0x080071fc   0x00000008   Data   RO         3596    .ARM.exidx          cpprt_w.l(new.o)
    0x08007544   0x080071fc   0x00000008   Data   RO         3801    .ARM.exidx          cpprt_w.l(array_new_general.o)
    0x0800754c   0x080071fc   0x00000008   Data   RO         3802    .ARM.exidx          cpprt_w.l(array_new_general.o)
    0x08007554   0x080071fc   0x00000008   Data   RO         3474    .ARM.exidx          cpprt_w.l(arm_exceptions_throw.o)
    0x0800755c   0x080071fc   0x00000008   Data   RO         3913    .ARM.exidx          cpprt_w.l(ARM_vec_cleanup.o)
    0x08007564   0x080071fc   0x00000008   Data   RO         3914    .ARM.exidx          cpprt_w.l(ARM_vec_cleanup.o)
    0x0800756c   0x080071fc   0x00000008   Data   RO         3919    .ARM.exidx          cpprt_w.l(ARM_vec_cleanup_rethrow.o)
    0x08007574   0x080071fc   0x00000008   Data   RO         3920    .ARM.exidx          cpprt_w.l(ARM_vec_cleanup_rethrow.o)
    0x0800757c   0x080071fc   0x00000008   Data   RO         3441    .ARM.exidx          cpprt_w.l(aeabi_vec_delete.o)
    0x08007584   0x080071fc   0x00000008   Data   RO         3442    .ARM.exidx          cpprt_w.l(aeabi_vec_delete.o)
    0x0800758c   0x080071fc   0x00000008   Data   RO         3854    .ARM.exidx          cpprt_w.l(aeabi_vec_dtor.o)
    0x08007594   0x080071fc   0x00000008   Data   RO         3855    .ARM.exidx          cpprt_w.l(aeabi_vec_dtor.o)
    0x0800759c   0x080071fc   0x00000008   Data   RO         3437    .ARM.exidx          cpprt_w.l(aeabi_vec_new_cookie.o)
    0x080075a4   0x080071fc   0x00000008   Data   RO         3328    .ARM.exidx          cpprt_w.l(pure_virt.o)
    0x080075ac   0x080071fc   0x00000008   Data   RO         3654    .ARM.exidx          cpprt_w.l(cxa_vec_new.o)
    0x080075b4   0x080071fc   0x00000008   Data   RO         3609    .ARM.exidx          cpprt_w.l(rtti.o)
    0x080075bc   0x080071fc   0x00000008   Data   RO         3613    .ARM.exidx          cpprt_w.l(rtti.o)
    0x080075c4   0x080071fc   0x00000008   Data   RO         1014    .ARM.exidx          double_screen.o
    0x080075cc   0x080071fc   0x00000008   Data   RO          568    .ARM.exidx          main.o
    0x080075d4   0x080071fc   0x00000008   Data   RO          566    .ARM.exidx          main.o
    0x080075dc   0x080071fc   0x00000008   Data   RO          567    .ARM.exidx          main.o
    0x080075e4   0x080071fc   0x00000008   Data   RO         1333    .ARM.exidx          snake_game.o
    0x080075ec   0x080071fc   0x00000008   Data   RO         1309    .ARM.exidx          snake_game.o
    0x080075f4   0x080071fc   0x00000008   Data   RO          617    .ARM.exidx          main.o
    0x080075fc   0x080071fc   0x00000008   Data   RO         1339    .ARM.exidx          snake_game.o
    0x08007604   0x080071fc   0x00000008   Data   RO         1315    .ARM.exidx          snake_game.o
    0x0800760c   0x080071fc   0x00000008   Data   RO         1327    .ARM.exidx          snake_game.o
    0x08007614   0x080071fc   0x00000008   Data   RO         1303    .ARM.exidx          snake_game.o


    Execution Region RW_IRAM1 (Exec base: 0x20000000, Load base: 0x0800761c, Size: 0x00000e10, Max: 0x00020000, ABSOLUTE, COMPRESSED[0x00000104])

    Exec Addr    Load Addr    Size         Type   Attr      Idx    E Section Name        Object

    0x20000000   COMPRESSED   0x00000283   Data   RW          380    .data               adafruit_ssd1306.o
    0x20000283   COMPRESSED   0x00000001   PAD
    0x20000284   COMPRESSED   0x0000000c   Data   RW         2979    .data               stm32f4xx_hal.o
    0x20000290   COMPRESSED   0x00000004   Data   RW         3273    .data               system_stm32f4xx.o
    0x20000294   COMPRESSED   0x00000008   Data   RW          470    .data__ZZN16Adafruit_SSD130621drawFastVLineInternalEssstE7premask  adafruit_ssd1306.o
    0x2000029c   COMPRESSED   0x00000008   Data   RW          471    .data__ZZN16Adafruit_SSD130621drawFastVLineInternalEssstE8postmask  adafruit_ssd1306.o
    0x200002a4        -       0x000000c2   Zero   RW          571    .bss                main.o
    0x20000366   COMPRESSED   0x00000002   PAD
    0x20000368        -       0x00000448   Zero   RW         1015    .bss                double_screen.o
    0x200007b0        -       0x00000060   Zero   RW         3868    .bss                c_w.l(libspace.o)
    0x20000810        -       0x00000200   Zero   RW            2    HEAP                startup_stm32f407xx.o
    0x20000a10        -       0x00000400   Zero   RW            1    STACK               startup_stm32f407xx.o


==============================================================================

Image component sizes


      Code (inc. data)   RO Data    RW Data    ZI Data      Debug   Object Name

       348          4         84          0          0     663604   adafruit_gfx.o
      2060         46       1624        659          0      20404   adafruit_ssd1306.o
       484        116         76          0       1096       7161   double_screen.o
       456         50         84          0        194      12085   main.o
       776         20        151          0          0      14780   snake_game.o
        64         26        392          0       1536        864   startup_stm32f407xx.o
       240         46         40         12          0      11491   stm32f4xx_hal.o
       174         14         16          0          0      33370   stm32f4xx_hal_cortex.o
       266          0          8          0          0       5168   stm32f4xx_hal_dma.o
       464         46          8          0          0       3129   stm32f4xx_hal_gpio.o
     11212        284        312          0          0      56717   stm32f4xx_hal_i2c.o
       220         24         16          0          0       1744   stm32f4xx_hal_msp.o
      1304         66         24          0          0       4757   stm32f4xx_hal_rcc.o
        20          0          8          0          0     652278   stm32f4xx_it.o
       148         22         24          4          0       1971   system_stm32f4xx.o

    ----------------------------------------------------------------------
     18268        764       2899        676       2828    1489523   Object Totals
         0          0         32          0          0          0   (incl. Generated)
        32          0          0          1          2          0   (incl. Padding)

    ----------------------------------------------------------------------

      Code (inc. data)   RO Data    RW Data    ZI Data      Debug   Library Member Name

        90          0          0          0          0          0   __dczerorl2.o
         8          0          0          0          0         68   __main.o
         0          0          0          0          0          0   __rtentry.o
        12          0          0          0          0          0   __rtentry2.o
         6          0          8          0          0          0   __rtentry4.o
        52          8          0          0          0          0   __scatter.o
        28          0          0          0          0          0   __scatter_zi.o
        22          0          0          0          0         80   abort.o
        80          0          8          0          0         88   bsearch.o
        48         34          0          0          0         76   defsig_abrt_inner.o
        14          0          0          0          0         80   defsig_abrt_outer.o
        10          0          0          0          0         68   defsig_exit.o
        50          0          0          0          0         88   defsig_general.o
        48         34          0          0          0         76   defsig_pvfn_inner.o
        14          0          0          0          0         80   defsig_pvfn_outer.o
        80         58          0          0          0         76   defsig_rtmem_inner.o
        14          0          0          0          0         80   defsig_rtmem_outer.o
        18          0          0          0          0         80   exit.o
        94          0          0          0          0         80   h1_alloc.o
        52          0          0          0          0         68   h1_extend.o
        78          0          0          0          0         80   h1_free.o
        14          0          0          0          0         84   h1_init.o
         6          0          0          0          0        152   heapauxi.o
         4          0          0          0          0        136   hguard.o
         0          0          0          0          0          0   indicate_semi.o
        36         10          0          0          0         80   init_aeabi.o
       138          0          0          0          0        168   init_alloc.o
         2          0          0          0          0          0   libinit.o
        18          0          0          0          0          0   libinit2.o
         2          0          0          0          0          0   libshutdown.o
         2          0          0          0          0          0   libshutdown2.o
         8          4          0          0         96         68   libspace.o
       238          0          0          0          0        100   lludivv7m.o
         0          0          0          0          0          0   maybetermalloc1.o
         8          4          0          0          0         68   rt_eh_globals_addr_intlibspace.o
         8          4          0          0          0         68   rt_heap_descriptor_intlibspace.o
        78          0          0          0          0         80   rt_memclr_w.o
       100          0          0          0          0         80   rt_memcpy_w.o
         8          4          0          0          0         68   rt_new_handler_addr_intlibspace.o
         2          0          0          0          0          0   rtexit.o
        10          0          0          0          0          0   rtexit2.o
        12          4          0          0          0         68   sys_exit.o
        74          0          0          0          0         80   sys_stackheap_outer.o
        14          0          0          0          0         76   sys_wrch.o
         2          0          0          0          0         68   use_no_semi.o
        52          0         52          0          0         84   ARM_vec_cleanup.o
        52          0         44          0          0         84   ARM_vec_cleanup_rethrow.o
        42          0         44          0          0         84   aeabi_vec_delete.o
        66          0         44          0          0         92   aeabi_vec_dtor.o
        16          0          0          0          0         68   aeabi_vec_dtor_cookie.o
        20          0          8          0          0         80   aeabi_vec_new_cookie.o
        96         14          0          0          0         80   arm_exceptions_alloc.o
        48         10          8          0          0         80   arm_exceptions_bad_typeid.o
        72          0          8          0          0         80   arm_exceptions_begincatch.o
        56          0          8          0          0        108   arm_exceptions_callterm.o
       220          8         64          0          0         92   arm_exceptions_callunex.o
       156          0          0          0          0        176   arm_exceptions_cleanup.o
        74          0          0          0          0         92   arm_exceptions_endcatch.o
        66          0          8          0          0         80   arm_exceptions_foreign.o
        34          0          0          0          0         84   arm_exceptions_free.o
        80         12          0          0          0        104   arm_exceptions_globs.o
        60          0          0          0          0        108   arm_exceptions_mem.o
        82          0          8          0          0         80   arm_exceptions_rethrow.o
        44          6         12          0          0         92   arm_exceptions_support.o
        26          0          0          0          0         76   arm_exceptions_terminate.o
       440         20         70          0          0        240   arm_exceptions_throw.o
        30          0          8          0          0         92   arm_exceptions_unexpected.o
         8          0          0          0          0         76   array_del.o
         8          0         28          0          0         76   array_new.o
       158          0         64          0          0         96   array_new_general.o
        16          4          0          0          0         76   bad_alloc_cctor.o
        16          4          0          0          0         76   bad_alloc_ctor.o
        22          0         45          0          0        156   bad_alloc_dtor.o
        16          4          0          0          0         76   bad_exception_cctor.o
        16          4          0          0          0         76   bad_exception_ctor.o
        22          0         50          0          0        156   bad_exception_dtor.o
        54          8         47          0          0        308   bad_typeid.o
        24          6          8          0          0         84   cxa_vec_new.o
         8          0          0          0          0         76   delete.o
        12          6          0          0          0         68   exception_cctor.o
        12          6          0          0          0         68   exception_ctor.o
         0          0         41          0          0          0   exception_dtor.o
         0          0        339          0          0          0   lib_rtti_impl.o
        40          6         28          0          0         76   new.o
        48         10          8          0          0         80   newhandler.o
         6          0          8          0          0         68   pure_virt.o
      1238         42         64          0          0        704   rtti.o
         0          0         21          0          0          0   type_info_dtor.o
        32          0          0          0          0         80   type_info_eq.o
        32          0          0          0          0         80   type_info_ne.o
         4          0          0          0          0         68   unwind_activity.o
        14          0          8          0          0         68   unwind_delete.o
         6          0          0          0          0         68   unwind_pr0.o
         6          0          0          0          0         68   unwind_pr1.o
      1528          6          0          0          0        116   unwind_prcommon.o
      1096         34          0          0          0        484   unwinder.o
        10          0          0          0          0        116   fpinit.o

    ----------------------------------------------------------------------
      7908        374       1161          0         96       8312   Library Totals
        22          0          0          0          0          0   (incl. Padding)

    ----------------------------------------------------------------------

      Code (inc. data)   RO Data    RW Data    ZI Data      Debug   Library Name

      1602        164         16          0         96       2612   c_w.l
      6274        210       1145          0          0       5584   cpprt_w.l
        10          0          0          0          0        116   fz_wm.l

    ----------------------------------------------------------------------
      7908        374       1161          0         96       8312   Library Totals

    ----------------------------------------------------------------------

==============================================================================


      Code (inc. data)   RO Data    RW Data    ZI Data      Debug   

     26176       1138       4060        676       2924    1478503   Grand Totals
     26176       1138       4060        260       2924    1478503   ELF Image Totals (compressed)
     26176       1138       4060        260          0          0   ROM Totals

==============================================================================

    Total RO  Size (Code + RO Data)                30236 (  29.53kB)
    Total RW  Size (RW Data + ZI Data)              3600 (   3.52kB)
    Total ROM Size (Code + RO Data + RW Data)      30496 (  29.78kB)

==============================================================================

